; Listing generated by Microsoft (R) Optimizing Compiler Version 19.00.24210.0 

	TITLE	C:\CPython\externals\zlib-1.2.11\infback.c
	.686P
	.XMM
	include listing.inc
	.model	flat

INCLUDELIB MSVCRTD
INCLUDELIB OLDNAMES

CONST	SEGMENT
?lenfix@?1??fixedtables@@9@9 DB 060H			; `fixedtables'::`2'::lenfix
	DB	07H
	DW	00H
	DB	00H
	DB	08H
	DW	050H
	DB	00H
	DB	08H
	DW	010H
	DB	014H
	DB	08H
	DW	073H
	DB	012H
	DB	07H
	DW	01fH
	DB	00H
	DB	08H
	DW	070H
	DB	00H
	DB	08H
	DW	030H
	DB	00H
	DB	09H
	DW	0c0H
	DB	010H
	DB	07H
	DW	0aH
	DB	00H
	DB	08H
	DW	060H
	DB	00H
	DB	08H
	DW	020H
	DB	00H
	DB	09H
	DW	0a0H
	DB	00H
	DB	08H
	DW	00H
	DB	00H
	DB	08H
	DW	080H
	DB	00H
	DB	08H
	DW	040H
	DB	00H
	DB	09H
	DW	0e0H
	DB	010H
	DB	07H
	DW	06H
	DB	00H
	DB	08H
	DW	058H
	DB	00H
	DB	08H
	DW	018H
	DB	00H
	DB	09H
	DW	090H
	DB	013H
	DB	07H
	DW	03bH
	DB	00H
	DB	08H
	DW	078H
	DB	00H
	DB	08H
	DW	038H
	DB	00H
	DB	09H
	DW	0d0H
	DB	011H
	DB	07H
	DW	011H
	DB	00H
	DB	08H
	DW	068H
	DB	00H
	DB	08H
	DW	028H
	DB	00H
	DB	09H
	DW	0b0H
	DB	00H
	DB	08H
	DW	08H
	DB	00H
	DB	08H
	DW	088H
	DB	00H
	DB	08H
	DW	048H
	DB	00H
	DB	09H
	DW	0f0H
	DB	010H
	DB	07H
	DW	04H
	DB	00H
	DB	08H
	DW	054H
	DB	00H
	DB	08H
	DW	014H
	DB	015H
	DB	08H
	DW	0e3H
	DB	013H
	DB	07H
	DW	02bH
	DB	00H
	DB	08H
	DW	074H
	DB	00H
	DB	08H
	DW	034H
	DB	00H
	DB	09H
	DW	0c8H
	DB	011H
	DB	07H
	DW	0dH
	DB	00H
	DB	08H
	DW	064H
	DB	00H
	DB	08H
	DW	024H
	DB	00H
	DB	09H
	DW	0a8H
	DB	00H
	DB	08H
	DW	04H
	DB	00H
	DB	08H
	DW	084H
	DB	00H
	DB	08H
	DW	044H
	DB	00H
	DB	09H
	DW	0e8H
	DB	010H
	DB	07H
	DW	08H
	DB	00H
	DB	08H
	DW	05cH
	DB	00H
	DB	08H
	DW	01cH
	DB	00H
	DB	09H
	DW	098H
	DB	014H
	DB	07H
	DW	053H
	DB	00H
	DB	08H
	DW	07cH
	DB	00H
	DB	08H
	DW	03cH
	DB	00H
	DB	09H
	DW	0d8H
	DB	012H
	DB	07H
	DW	017H
	DB	00H
	DB	08H
	DW	06cH
	DB	00H
	DB	08H
	DW	02cH
	DB	00H
	DB	09H
	DW	0b8H
	DB	00H
	DB	08H
	DW	0cH
	DB	00H
	DB	08H
	DW	08cH
	DB	00H
	DB	08H
	DW	04cH
	DB	00H
	DB	09H
	DW	0f8H
	DB	010H
	DB	07H
	DW	03H
	DB	00H
	DB	08H
	DW	052H
	DB	00H
	DB	08H
	DW	012H
	DB	015H
	DB	08H
	DW	0a3H
	DB	013H
	DB	07H
	DW	023H
	DB	00H
	DB	08H
	DW	072H
	DB	00H
	DB	08H
	DW	032H
	DB	00H
	DB	09H
	DW	0c4H
	DB	011H
	DB	07H
	DW	0bH
	DB	00H
	DB	08H
	DW	062H
	DB	00H
	DB	08H
	DW	022H
	DB	00H
	DB	09H
	DW	0a4H
	DB	00H
	DB	08H
	DW	02H
	DB	00H
	DB	08H
	DW	082H
	DB	00H
	DB	08H
	DW	042H
	DB	00H
	DB	09H
	DW	0e4H
	DB	010H
	DB	07H
	DW	07H
	DB	00H
	DB	08H
	DW	05aH
	DB	00H
	DB	08H
	DW	01aH
	DB	00H
	DB	09H
	DW	094H
	DB	014H
	DB	07H
	DW	043H
	DB	00H
	DB	08H
	DW	07aH
	DB	00H
	DB	08H
	DW	03aH
	DB	00H
	DB	09H
	DW	0d4H
	DB	012H
	DB	07H
	DW	013H
	DB	00H
	DB	08H
	DW	06aH
	DB	00H
	DB	08H
	DW	02aH
	DB	00H
	DB	09H
	DW	0b4H
	DB	00H
	DB	08H
	DW	0aH
	DB	00H
	DB	08H
	DW	08aH
	DB	00H
	DB	08H
	DW	04aH
	DB	00H
	DB	09H
	DW	0f4H
	DB	010H
	DB	07H
	DW	05H
	DB	00H
	DB	08H
	DW	056H
	DB	00H
	DB	08H
	DW	016H
	DB	040H
	DB	08H
	DW	00H
	DB	013H
	DB	07H
	DW	033H
	DB	00H
	DB	08H
	DW	076H
	DB	00H
	DB	08H
	DW	036H
	DB	00H
	DB	09H
	DW	0ccH
	DB	011H
	DB	07H
	DW	0fH
	DB	00H
	DB	08H
	DW	066H
	DB	00H
	DB	08H
	DW	026H
	DB	00H
	DB	09H
	DW	0acH
	DB	00H
	DB	08H
	DW	06H
	DB	00H
	DB	08H
	DW	086H
	DB	00H
	DB	08H
	DW	046H
	DB	00H
	DB	09H
	DW	0ecH
	DB	010H
	DB	07H
	DW	09H
	DB	00H
	DB	08H
	DW	05eH
	DB	00H
	DB	08H
	DW	01eH
	DB	00H
	DB	09H
	DW	09cH
	DB	014H
	DB	07H
	DW	063H
	DB	00H
	DB	08H
	DW	07eH
	DB	00H
	DB	08H
	DW	03eH
	DB	00H
	DB	09H
	DW	0dcH
	DB	012H
	DB	07H
	DW	01bH
	DB	00H
	DB	08H
	DW	06eH
	DB	00H
	DB	08H
	DW	02eH
	DB	00H
	DB	09H
	DW	0bcH
	DB	00H
	DB	08H
	DW	0eH
	DB	00H
	DB	08H
	DW	08eH
	DB	00H
	DB	08H
	DW	04eH
	DB	00H
	DB	09H
	DW	0fcH
	DB	060H
	DB	07H
	DW	00H
	DB	00H
	DB	08H
	DW	051H
	DB	00H
	DB	08H
	DW	011H
	DB	015H
	DB	08H
	DW	083H
	DB	012H
	DB	07H
	DW	01fH
	DB	00H
	DB	08H
	DW	071H
	DB	00H
	DB	08H
	DW	031H
	DB	00H
	DB	09H
	DW	0c2H
	DB	010H
	DB	07H
	DW	0aH
	DB	00H
	DB	08H
	DW	061H
	DB	00H
	DB	08H
	DW	021H
	DB	00H
	DB	09H
	DW	0a2H
	DB	00H
	DB	08H
	DW	01H
	DB	00H
	DB	08H
	DW	081H
	DB	00H
	DB	08H
	DW	041H
	DB	00H
	DB	09H
	DW	0e2H
	DB	010H
	DB	07H
	DW	06H
	DB	00H
	DB	08H
	DW	059H
	DB	00H
	DB	08H
	DW	019H
	DB	00H
	DB	09H
	DW	092H
	DB	013H
	DB	07H
	DW	03bH
	DB	00H
	DB	08H
	DW	079H
	DB	00H
	DB	08H
	DW	039H
	DB	00H
	DB	09H
	DW	0d2H
	DB	011H
	DB	07H
	DW	011H
	DB	00H
	DB	08H
	DW	069H
	DB	00H
	DB	08H
	DW	029H
	DB	00H
	DB	09H
	DW	0b2H
	DB	00H
	DB	08H
	DW	09H
	DB	00H
	DB	08H
	DW	089H
	DB	00H
	DB	08H
	DW	049H
	DB	00H
	DB	09H
	DW	0f2H
	DB	010H
	DB	07H
	DW	04H
	DB	00H
	DB	08H
	DW	055H
	DB	00H
	DB	08H
	DW	015H
	DB	010H
	DB	08H
	DW	0102H
	DB	013H
	DB	07H
	DW	02bH
	DB	00H
	DB	08H
	DW	075H
	DB	00H
	DB	08H
	DW	035H
	DB	00H
	DB	09H
	DW	0caH
	DB	011H
	DB	07H
	DW	0dH
	DB	00H
	DB	08H
	DW	065H
	DB	00H
	DB	08H
	DW	025H
	DB	00H
	DB	09H
	DW	0aaH
	DB	00H
	DB	08H
	DW	05H
	DB	00H
	DB	08H
	DW	085H
	DB	00H
	DB	08H
	DW	045H
	DB	00H
	DB	09H
	DW	0eaH
	DB	010H
	DB	07H
	DW	08H
	DB	00H
	DB	08H
	DW	05dH
	DB	00H
	DB	08H
	DW	01dH
	DB	00H
	DB	09H
	DW	09aH
	DB	014H
	DB	07H
	DW	053H
	DB	00H
	DB	08H
	DW	07dH
	DB	00H
	DB	08H
	DW	03dH
	DB	00H
	DB	09H
	DW	0daH
	DB	012H
	DB	07H
	DW	017H
	DB	00H
	DB	08H
	DW	06dH
	DB	00H
	DB	08H
	DW	02dH
	DB	00H
	DB	09H
	DW	0baH
	DB	00H
	DB	08H
	DW	0dH
	DB	00H
	DB	08H
	DW	08dH
	DB	00H
	DB	08H
	DW	04dH
	DB	00H
	DB	09H
	DW	0faH
	DB	010H
	DB	07H
	DW	03H
	DB	00H
	DB	08H
	DW	053H
	DB	00H
	DB	08H
	DW	013H
	DB	015H
	DB	08H
	DW	0c3H
	DB	013H
	DB	07H
	DW	023H
	DB	00H
	DB	08H
	DW	073H
	DB	00H
	DB	08H
	DW	033H
	DB	00H
	DB	09H
	DW	0c6H
	DB	011H
	DB	07H
	DW	0bH
	DB	00H
	DB	08H
	DW	063H
	DB	00H
	DB	08H
	DW	023H
	DB	00H
	DB	09H
	DW	0a6H
	DB	00H
	DB	08H
	DW	03H
	DB	00H
	DB	08H
	DW	083H
	DB	00H
	DB	08H
	DW	043H
	DB	00H
	DB	09H
	DW	0e6H
	DB	010H
	DB	07H
	DW	07H
	DB	00H
	DB	08H
	DW	05bH
	DB	00H
	DB	08H
	DW	01bH
	DB	00H
	DB	09H
	DW	096H
	DB	014H
	DB	07H
	DW	043H
	DB	00H
	DB	08H
	DW	07bH
	DB	00H
	DB	08H
	DW	03bH
	DB	00H
	DB	09H
	DW	0d6H
	DB	012H
	DB	07H
	DW	013H
	DB	00H
	DB	08H
	DW	06bH
	DB	00H
	DB	08H
	DW	02bH
	DB	00H
	DB	09H
	DW	0b6H
	DB	00H
	DB	08H
	DW	0bH
	DB	00H
	DB	08H
	DW	08bH
	DB	00H
	DB	08H
	DW	04bH
	DB	00H
	DB	09H
	DW	0f6H
	DB	010H
	DB	07H
	DW	05H
	DB	00H
	DB	08H
	DW	057H
	DB	00H
	DB	08H
	DW	017H
	DB	040H
	DB	08H
	DW	00H
	DB	013H
	DB	07H
	DW	033H
	DB	00H
	DB	08H
	DW	077H
	DB	00H
	DB	08H
	DW	037H
	DB	00H
	DB	09H
	DW	0ceH
	DB	011H
	DB	07H
	DW	0fH
	DB	00H
	DB	08H
	DW	067H
	DB	00H
	DB	08H
	DW	027H
	DB	00H
	DB	09H
	DW	0aeH
	DB	00H
	DB	08H
	DW	07H
	DB	00H
	DB	08H
	DW	087H
	DB	00H
	DB	08H
	DW	047H
	DB	00H
	DB	09H
	DW	0eeH
	DB	010H
	DB	07H
	DW	09H
	DB	00H
	DB	08H
	DW	05fH
	DB	00H
	DB	08H
	DW	01fH
	DB	00H
	DB	09H
	DW	09eH
	DB	014H
	DB	07H
	DW	063H
	DB	00H
	DB	08H
	DW	07fH
	DB	00H
	DB	08H
	DW	03fH
	DB	00H
	DB	09H
	DW	0deH
	DB	012H
	DB	07H
	DW	01bH
	DB	00H
	DB	08H
	DW	06fH
	DB	00H
	DB	08H
	DW	02fH
	DB	00H
	DB	09H
	DW	0beH
	DB	00H
	DB	08H
	DW	0fH
	DB	00H
	DB	08H
	DW	08fH
	DB	00H
	DB	08H
	DW	04fH
	DB	00H
	DB	09H
	DW	0feH
	DB	060H
	DB	07H
	DW	00H
	DB	00H
	DB	08H
	DW	050H
	DB	00H
	DB	08H
	DW	010H
	DB	014H
	DB	08H
	DW	073H
	DB	012H
	DB	07H
	DW	01fH
	DB	00H
	DB	08H
	DW	070H
	DB	00H
	DB	08H
	DW	030H
	DB	00H
	DB	09H
	DW	0c1H
	DB	010H
	DB	07H
	DW	0aH
	DB	00H
	DB	08H
	DW	060H
	DB	00H
	DB	08H
	DW	020H
	DB	00H
	DB	09H
	DW	0a1H
	DB	00H
	DB	08H
	DW	00H
	DB	00H
	DB	08H
	DW	080H
	DB	00H
	DB	08H
	DW	040H
	DB	00H
	DB	09H
	DW	0e1H
	DB	010H
	DB	07H
	DW	06H
	DB	00H
	DB	08H
	DW	058H
	DB	00H
	DB	08H
	DW	018H
	DB	00H
	DB	09H
	DW	091H
	DB	013H
	DB	07H
	DW	03bH
	DB	00H
	DB	08H
	DW	078H
	DB	00H
	DB	08H
	DW	038H
	DB	00H
	DB	09H
	DW	0d1H
	DB	011H
	DB	07H
	DW	011H
	DB	00H
	DB	08H
	DW	068H
	DB	00H
	DB	08H
	DW	028H
	DB	00H
	DB	09H
	DW	0b1H
	DB	00H
	DB	08H
	DW	08H
	DB	00H
	DB	08H
	DW	088H
	DB	00H
	DB	08H
	DW	048H
	DB	00H
	DB	09H
	DW	0f1H
	DB	010H
	DB	07H
	DW	04H
	DB	00H
	DB	08H
	DW	054H
	DB	00H
	DB	08H
	DW	014H
	DB	015H
	DB	08H
	DW	0e3H
	DB	013H
	DB	07H
	DW	02bH
	DB	00H
	DB	08H
	DW	074H
	DB	00H
	DB	08H
	DW	034H
	DB	00H
	DB	09H
	DW	0c9H
	DB	011H
	DB	07H
	DW	0dH
	DB	00H
	DB	08H
	DW	064H
	DB	00H
	DB	08H
	DW	024H
	DB	00H
	DB	09H
	DW	0a9H
	DB	00H
	DB	08H
	DW	04H
	DB	00H
	DB	08H
	DW	084H
	DB	00H
	DB	08H
	DW	044H
	DB	00H
	DB	09H
	DW	0e9H
	DB	010H
	DB	07H
	DW	08H
	DB	00H
	DB	08H
	DW	05cH
	DB	00H
	DB	08H
	DW	01cH
	DB	00H
	DB	09H
	DW	099H
	DB	014H
	DB	07H
	DW	053H
	DB	00H
	DB	08H
	DW	07cH
	DB	00H
	DB	08H
	DW	03cH
	DB	00H
	DB	09H
	DW	0d9H
	DB	012H
	DB	07H
	DW	017H
	DB	00H
	DB	08H
	DW	06cH
	DB	00H
	DB	08H
	DW	02cH
	DB	00H
	DB	09H
	DW	0b9H
	DB	00H
	DB	08H
	DW	0cH
	DB	00H
	DB	08H
	DW	08cH
	DB	00H
	DB	08H
	DW	04cH
	DB	00H
	DB	09H
	DW	0f9H
	DB	010H
	DB	07H
	DW	03H
	DB	00H
	DB	08H
	DW	052H
	DB	00H
	DB	08H
	DW	012H
	DB	015H
	DB	08H
	DW	0a3H
	DB	013H
	DB	07H
	DW	023H
	DB	00H
	DB	08H
	DW	072H
	DB	00H
	DB	08H
	DW	032H
	DB	00H
	DB	09H
	DW	0c5H
	DB	011H
	DB	07H
	DW	0bH
	DB	00H
	DB	08H
	DW	062H
	DB	00H
	DB	08H
	DW	022H
	DB	00H
	DB	09H
	DW	0a5H
	DB	00H
	DB	08H
	DW	02H
	DB	00H
	DB	08H
	DW	082H
	DB	00H
	DB	08H
	DW	042H
	DB	00H
	DB	09H
	DW	0e5H
	DB	010H
	DB	07H
	DW	07H
	DB	00H
	DB	08H
	DW	05aH
	DB	00H
	DB	08H
	DW	01aH
	DB	00H
	DB	09H
	DW	095H
	DB	014H
	DB	07H
	DW	043H
	DB	00H
	DB	08H
	DW	07aH
	DB	00H
	DB	08H
	DW	03aH
	DB	00H
	DB	09H
	DW	0d5H
	DB	012H
	DB	07H
	DW	013H
	DB	00H
	DB	08H
	DW	06aH
	DB	00H
	DB	08H
	DW	02aH
	DB	00H
	DB	09H
	DW	0b5H
	DB	00H
	DB	08H
	DW	0aH
	DB	00H
	DB	08H
	DW	08aH
	DB	00H
	DB	08H
	DW	04aH
	DB	00H
	DB	09H
	DW	0f5H
	DB	010H
	DB	07H
	DW	05H
	DB	00H
	DB	08H
	DW	056H
	DB	00H
	DB	08H
	DW	016H
	DB	040H
	DB	08H
	DW	00H
	DB	013H
	DB	07H
	DW	033H
	DB	00H
	DB	08H
	DW	076H
	DB	00H
	DB	08H
	DW	036H
	DB	00H
	DB	09H
	DW	0cdH
	DB	011H
	DB	07H
	DW	0fH
	DB	00H
	DB	08H
	DW	066H
	DB	00H
	DB	08H
	DW	026H
	DB	00H
	DB	09H
	DW	0adH
	DB	00H
	DB	08H
	DW	06H
	DB	00H
	DB	08H
	DW	086H
	DB	00H
	DB	08H
	DW	046H
	DB	00H
	DB	09H
	DW	0edH
	DB	010H
	DB	07H
	DW	09H
	DB	00H
	DB	08H
	DW	05eH
	DB	00H
	DB	08H
	DW	01eH
	DB	00H
	DB	09H
	DW	09dH
	DB	014H
	DB	07H
	DW	063H
	DB	00H
	DB	08H
	DW	07eH
	DB	00H
	DB	08H
	DW	03eH
	DB	00H
	DB	09H
	DW	0ddH
	DB	012H
	DB	07H
	DW	01bH
	DB	00H
	DB	08H
	DW	06eH
	DB	00H
	DB	08H
	DW	02eH
	DB	00H
	DB	09H
	DW	0bdH
	DB	00H
	DB	08H
	DW	0eH
	DB	00H
	DB	08H
	DW	08eH
	DB	00H
	DB	08H
	DW	04eH
	DB	00H
	DB	09H
	DW	0fdH
	DB	060H
	DB	07H
	DW	00H
	DB	00H
	DB	08H
	DW	051H
	DB	00H
	DB	08H
	DW	011H
	DB	015H
	DB	08H
	DW	083H
	DB	012H
	DB	07H
	DW	01fH
	DB	00H
	DB	08H
	DW	071H
	DB	00H
	DB	08H
	DW	031H
	DB	00H
	DB	09H
	DW	0c3H
	DB	010H
	DB	07H
	DW	0aH
	DB	00H
	DB	08H
	DW	061H
	DB	00H
	DB	08H
	DW	021H
	DB	00H
	DB	09H
	DW	0a3H
	DB	00H
	DB	08H
	DW	01H
	DB	00H
	DB	08H
	DW	081H
	DB	00H
	DB	08H
	DW	041H
	DB	00H
	DB	09H
	DW	0e3H
	DB	010H
	DB	07H
	DW	06H
	DB	00H
	DB	08H
	DW	059H
	DB	00H
	DB	08H
	DW	019H
	DB	00H
	DB	09H
	DW	093H
	DB	013H
	DB	07H
	DW	03bH
	DB	00H
	DB	08H
	DW	079H
	DB	00H
	DB	08H
	DW	039H
	DB	00H
	DB	09H
	DW	0d3H
	DB	011H
	DB	07H
	DW	011H
	DB	00H
	DB	08H
	DW	069H
	DB	00H
	DB	08H
	DW	029H
	DB	00H
	DB	09H
	DW	0b3H
	DB	00H
	DB	08H
	DW	09H
	DB	00H
	DB	08H
	DW	089H
	DB	00H
	DB	08H
	DW	049H
	DB	00H
	DB	09H
	DW	0f3H
	DB	010H
	DB	07H
	DW	04H
	DB	00H
	DB	08H
	DW	055H
	DB	00H
	DB	08H
	DW	015H
	DB	010H
	DB	08H
	DW	0102H
	DB	013H
	DB	07H
	DW	02bH
	DB	00H
	DB	08H
	DW	075H
	DB	00H
	DB	08H
	DW	035H
	DB	00H
	DB	09H
	DW	0cbH
	DB	011H
	DB	07H
	DW	0dH
	DB	00H
	DB	08H
	DW	065H
	DB	00H
	DB	08H
	DW	025H
	DB	00H
	DB	09H
	DW	0abH
	DB	00H
	DB	08H
	DW	05H
	DB	00H
	DB	08H
	DW	085H
	DB	00H
	DB	08H
	DW	045H
	DB	00H
	DB	09H
	DW	0ebH
	DB	010H
	DB	07H
	DW	08H
	DB	00H
	DB	08H
	DW	05dH
	DB	00H
	DB	08H
	DW	01dH
	DB	00H
	DB	09H
	DW	09bH
	DB	014H
	DB	07H
	DW	053H
	DB	00H
	DB	08H
	DW	07dH
	DB	00H
	DB	08H
	DW	03dH
	DB	00H
	DB	09H
	DW	0dbH
	DB	012H
	DB	07H
	DW	017H
	DB	00H
	DB	08H
	DW	06dH
	DB	00H
	DB	08H
	DW	02dH
	DB	00H
	DB	09H
	DW	0bbH
	DB	00H
	DB	08H
	DW	0dH
	DB	00H
	DB	08H
	DW	08dH
	DB	00H
	DB	08H
	DW	04dH
	DB	00H
	DB	09H
	DW	0fbH
	DB	010H
	DB	07H
	DW	03H
	DB	00H
	DB	08H
	DW	053H
	DB	00H
	DB	08H
	DW	013H
	DB	015H
	DB	08H
	DW	0c3H
	DB	013H
	DB	07H
	DW	023H
	DB	00H
	DB	08H
	DW	073H
	DB	00H
	DB	08H
	DW	033H
	DB	00H
	DB	09H
	DW	0c7H
	DB	011H
	DB	07H
	DW	0bH
	DB	00H
	DB	08H
	DW	063H
	DB	00H
	DB	08H
	DW	023H
	DB	00H
	DB	09H
	DW	0a7H
	DB	00H
	DB	08H
	DW	03H
	DB	00H
	DB	08H
	DW	083H
	DB	00H
	DB	08H
	DW	043H
	DB	00H
	DB	09H
	DW	0e7H
	DB	010H
	DB	07H
	DW	07H
	DB	00H
	DB	08H
	DW	05bH
	DB	00H
	DB	08H
	DW	01bH
	DB	00H
	DB	09H
	DW	097H
	DB	014H
	DB	07H
	DW	043H
	DB	00H
	DB	08H
	DW	07bH
	DB	00H
	DB	08H
	DW	03bH
	DB	00H
	DB	09H
	DW	0d7H
	DB	012H
	DB	07H
	DW	013H
	DB	00H
	DB	08H
	DW	06bH
	DB	00H
	DB	08H
	DW	02bH
	DB	00H
	DB	09H
	DW	0b7H
	DB	00H
	DB	08H
	DW	0bH
	DB	00H
	DB	08H
	DW	08bH
	DB	00H
	DB	08H
	DW	04bH
	DB	00H
	DB	09H
	DW	0f7H
	DB	010H
	DB	07H
	DW	05H
	DB	00H
	DB	08H
	DW	057H
	DB	00H
	DB	08H
	DW	017H
	DB	040H
	DB	08H
	DW	00H
	DB	013H
	DB	07H
	DW	033H
	DB	00H
	DB	08H
	DW	077H
	DB	00H
	DB	08H
	DW	037H
	DB	00H
	DB	09H
	DW	0cfH
	DB	011H
	DB	07H
	DW	0fH
	DB	00H
	DB	08H
	DW	067H
	DB	00H
	DB	08H
	DW	027H
	DB	00H
	DB	09H
	DW	0afH
	DB	00H
	DB	08H
	DW	07H
	DB	00H
	DB	08H
	DW	087H
	DB	00H
	DB	08H
	DW	047H
	DB	00H
	DB	09H
	DW	0efH
	DB	010H
	DB	07H
	DW	09H
	DB	00H
	DB	08H
	DW	05fH
	DB	00H
	DB	08H
	DW	01fH
	DB	00H
	DB	09H
	DW	09fH
	DB	014H
	DB	07H
	DW	063H
	DB	00H
	DB	08H
	DW	07fH
	DB	00H
	DB	08H
	DW	03fH
	DB	00H
	DB	09H
	DW	0dfH
	DB	012H
	DB	07H
	DW	01bH
	DB	00H
	DB	08H
	DW	06fH
	DB	00H
	DB	08H
	DW	02fH
	DB	00H
	DB	09H
	DW	0bfH
	DB	00H
	DB	08H
	DW	0fH
	DB	00H
	DB	08H
	DW	08fH
	DB	00H
	DB	08H
	DW	04fH
	DB	00H
	DB	09H
	DW	0ffH
?distfix@?1??fixedtables@@9@9 DB 010H			; `fixedtables'::`2'::distfix
	DB	05H
	DW	01H
	DB	017H
	DB	05H
	DW	0101H
	DB	013H
	DB	05H
	DW	011H
	DB	01bH
	DB	05H
	DW	01001H
	DB	011H
	DB	05H
	DW	05H
	DB	019H
	DB	05H
	DW	0401H
	DB	015H
	DB	05H
	DW	041H
	DB	01dH
	DB	05H
	DW	04001H
	DB	010H
	DB	05H
	DW	03H
	DB	018H
	DB	05H
	DW	0201H
	DB	014H
	DB	05H
	DW	021H
	DB	01cH
	DB	05H
	DW	02001H
	DB	012H
	DB	05H
	DW	09H
	DB	01aH
	DB	05H
	DW	0801H
	DB	016H
	DB	05H
	DW	081H
	DB	040H
	DB	05H
	DW	00H
	DB	010H
	DB	05H
	DW	02H
	DB	017H
	DB	05H
	DW	0181H
	DB	013H
	DB	05H
	DW	019H
	DB	01bH
	DB	05H
	DW	01801H
	DB	011H
	DB	05H
	DW	07H
	DB	019H
	DB	05H
	DW	0601H
	DB	015H
	DB	05H
	DW	061H
	DB	01dH
	DB	05H
	DW	06001H
	DB	010H
	DB	05H
	DW	04H
	DB	018H
	DB	05H
	DW	0301H
	DB	014H
	DB	05H
	DW	031H
	DB	01cH
	DB	05H
	DW	03001H
	DB	012H
	DB	05H
	DW	0dH
	DB	01aH
	DB	05H
	DW	0c01H
	DB	016H
	DB	05H
	DW	0c1H
	DB	040H
	DB	05H
	DW	00H
?order@?1??inflateBack@@9@9 DW 010H			; `inflateBack'::`2'::order
	DW	011H
	DW	012H
	DW	00H
	DW	08H
	DW	07H
	DW	09H
	DW	06H
	DW	0aH
	DW	05H
	DW	0bH
	DW	04H
	DW	0cH
	DW	03H
	DW	0dH
	DW	02H
	DW	0eH
	DW	01H
	DW	0fH
CONST	ENDS
_DATA	SEGMENT
$SG86246 DB	'invalid block type', 00H
	ORG $+1
$SG86251 DB	'invalid stored block lengths', 00H
	ORG $+3
$SG86263 DB	'too many length or distance symbols', 00H
$SG86267 DB	'invalid code lengths set', 00H
	ORG $+3
$SG86278 DB	'invalid bit length repeat', 00H
	ORG $+2
$SG86286 DB	'invalid bit length repeat', 00H
	ORG $+2
$SG86289 DB	'invalid code -- missing end-of-block', 00H
	ORG $+3
$SG86291 DB	'invalid literal/lengths set', 00H
$SG86293 DB	'invalid distances set', 00H
	ORG $+2
$SG86309 DB	'invalid literal/length code', 00H
$SG86321 DB	'invalid distance code', 00H
	ORG $+2
$SG86326 DB	'invalid distance too far back', 00H
	ORG $+2
$SG85860 DB	'1.2.11', 00H
_DATA	ENDS
PUBLIC	_inflateBack@20
PUBLIC	_inflateBackEnd@4
PUBLIC	_inflateBackInit_@20
EXTRN	_memcpy:PROC
EXTRN	_zcalloc:PROC
EXTRN	_zcfree:PROC
EXTRN	_inflate_table:PROC
EXTRN	_inflate_fast:PROC
; Function compile flags: /Odtp
; File c:\cpython\externals\zlib-1.2.11\infback.c
_TEXT	SEGMENT
_state$ = 8						; size = 4
_fixedtables PROC

; 84   : {

	push	ebp
	mov	ebp, esp

; 85   : #ifdef BUILDFIXED
; 86   :     static int virgin = 1;
; 87   :     static code *lenfix, *distfix;
; 88   :     static code fixed[544];
; 89   : 
; 90   :     /* build fixed huffman tables if first call (may not be thread safe) */
; 91   :     if (virgin) {
; 92   :         unsigned sym, bits;
; 93   :         static code *next;
; 94   : 
; 95   :         /* literal/length table */
; 96   :         sym = 0;
; 97   :         while (sym < 144) state->lens[sym++] = 8;
; 98   :         while (sym < 256) state->lens[sym++] = 9;
; 99   :         while (sym < 280) state->lens[sym++] = 7;
; 100  :         while (sym < 288) state->lens[sym++] = 8;
; 101  :         next = fixed;
; 102  :         lenfix = next;
; 103  :         bits = 9;
; 104  :         inflate_table(LENS, state->lens, 288, &(next), &(bits), state->work);
; 105  : 
; 106  :         /* distance table */
; 107  :         sym = 0;
; 108  :         while (sym < 32) state->lens[sym++] = 5;
; 109  :         distfix = next;
; 110  :         bits = 5;
; 111  :         inflate_table(DISTS, state->lens, 32, &(next), &(bits), state->work);
; 112  : 
; 113  :         /* do this just once */
; 114  :         virgin = 0;
; 115  :     }
; 116  : #else /* !BUILDFIXED */
; 117  : #   include "inffixed.h"
; 118  : #endif /* BUILDFIXED */
; 119  :     state->lencode = lenfix;

	mov	eax, DWORD PTR _state$[ebp]
	mov	DWORD PTR [eax+80], OFFSET ?lenfix@?1??fixedtables@@9@9

; 120  :     state->lenbits = 9;

	mov	ecx, DWORD PTR _state$[ebp]
	mov	DWORD PTR [ecx+88], 9

; 121  :     state->distcode = distfix;

	mov	edx, DWORD PTR _state$[ebp]
	mov	DWORD PTR [edx+84], OFFSET ?distfix@?1??fixedtables@@9@9

; 122  :     state->distbits = 5;

	mov	eax, DWORD PTR _state$[ebp]
	mov	DWORD PTR [eax+92], 5

; 123  : }

	pop	ebp
	ret	0
_fixedtables ENDP
_TEXT	ENDS
; Function compile flags: /Odtp
; File c:\cpython\externals\zlib-1.2.11\infback.c
_TEXT	SEGMENT
_state$ = -4						; size = 4
_strm$ = 8						; size = 4
_windowBits$ = 12					; size = 4
_window$ = 16						; size = 4
_version$ = 20						; size = 4
_stream_size$ = 24					; size = 4
_inflateBackInit_@20 PROC

; 34   : {

	push	ebp
	mov	ebp, esp
	push	ecx

; 35   :     struct inflate_state FAR *state;
; 36   : 
; 37   :     if (version == Z_NULL || version[0] != ZLIB_VERSION[0] ||

	cmp	DWORD PTR _version$[ebp], 0
	je	SHORT $LN3@inflateBac
	mov	eax, 1
	imul	ecx, eax, 0
	mov	edx, DWORD PTR _version$[ebp]
	movsx	eax, BYTE PTR [edx+ecx]
	mov	ecx, 1
	imul	edx, ecx, 0
	movsx	ecx, BYTE PTR $SG85860[edx]
	cmp	eax, ecx
	jne	SHORT $LN3@inflateBac
	cmp	DWORD PTR _stream_size$[ebp], 56	; 00000038H
	je	SHORT $LN2@inflateBac
$LN3@inflateBac:

; 38   :         stream_size != (int)(sizeof(z_stream)))
; 39   :         return Z_VERSION_ERROR;

	mov	eax, -6					; fffffffaH
	jmp	$LN1@inflateBac
$LN2@inflateBac:

; 40   :     if (strm == Z_NULL || window == Z_NULL ||
; 41   :         windowBits < 8 || windowBits > 15)

	cmp	DWORD PTR _strm$[ebp], 0
	je	SHORT $LN5@inflateBac
	cmp	DWORD PTR _window$[ebp], 0
	je	SHORT $LN5@inflateBac
	cmp	DWORD PTR _windowBits$[ebp], 8
	jl	SHORT $LN5@inflateBac
	cmp	DWORD PTR _windowBits$[ebp], 15		; 0000000fH
	jle	SHORT $LN4@inflateBac
$LN5@inflateBac:

; 42   :         return Z_STREAM_ERROR;

	mov	eax, -2					; fffffffeH
	jmp	$LN1@inflateBac
$LN4@inflateBac:

; 43   :     strm->msg = Z_NULL;                 /* in case we return an error */

	mov	edx, DWORD PTR _strm$[ebp]
	mov	DWORD PTR [edx+24], 0

; 44   :     if (strm->zalloc == (alloc_func)0) {

	mov	eax, DWORD PTR _strm$[ebp]
	cmp	DWORD PTR [eax+32], 0
	jne	SHORT $LN6@inflateBac

; 45   : #ifdef Z_SOLO
; 46   :         return Z_STREAM_ERROR;
; 47   : #else
; 48   :         strm->zalloc = zcalloc;

	mov	ecx, DWORD PTR _strm$[ebp]
	mov	DWORD PTR [ecx+32], OFFSET _zcalloc

; 49   :         strm->opaque = (voidpf)0;

	mov	edx, DWORD PTR _strm$[ebp]
	mov	DWORD PTR [edx+40], 0
$LN6@inflateBac:

; 50   : #endif
; 51   :     }
; 52   :     if (strm->zfree == (free_func)0)

	mov	eax, DWORD PTR _strm$[ebp]
	cmp	DWORD PTR [eax+36], 0
	jne	SHORT $LN7@inflateBac

; 53   : #ifdef Z_SOLO
; 54   :         return Z_STREAM_ERROR;
; 55   : #else
; 56   :     strm->zfree = zcfree;

	mov	ecx, DWORD PTR _strm$[ebp]
	mov	DWORD PTR [ecx+36], OFFSET _zcfree
$LN7@inflateBac:

; 57   : #endif
; 58   :     state = (struct inflate_state FAR *)ZALLOC(strm, 1,

	push	7120					; 00001bd0H
	push	1
	mov	edx, DWORD PTR _strm$[ebp]
	mov	eax, DWORD PTR [edx+40]
	push	eax
	mov	ecx, DWORD PTR _strm$[ebp]
	mov	edx, DWORD PTR [ecx+32]
	call	edx
	add	esp, 12					; 0000000cH
	mov	DWORD PTR _state$[ebp], eax

; 59   :                                                sizeof(struct inflate_state));
; 60   :     if (state == Z_NULL) return Z_MEM_ERROR;

	cmp	DWORD PTR _state$[ebp], 0
	jne	SHORT $LN8@inflateBac
	mov	eax, -4					; fffffffcH
	jmp	SHORT $LN1@inflateBac
$LN8@inflateBac:

; 61   :     Tracev((stderr, "inflate: allocated\n"));
; 62   :     strm->state = (struct internal_state FAR *)state;

	mov	eax, DWORD PTR _strm$[ebp]
	mov	ecx, DWORD PTR _state$[ebp]
	mov	DWORD PTR [eax+28], ecx

; 63   :     state->dmax = 32768U;

	mov	edx, DWORD PTR _state$[ebp]
	mov	DWORD PTR [edx+24], 32768		; 00008000H

; 64   :     state->wbits = (uInt)windowBits;

	mov	eax, DWORD PTR _state$[ebp]
	mov	ecx, DWORD PTR _windowBits$[ebp]
	mov	DWORD PTR [eax+40], ecx

; 65   :     state->wsize = 1U << windowBits;

	mov	edx, 1
	mov	ecx, DWORD PTR _windowBits$[ebp]
	shl	edx, cl
	mov	eax, DWORD PTR _state$[ebp]
	mov	DWORD PTR [eax+44], edx

; 66   :     state->window = window;

	mov	ecx, DWORD PTR _state$[ebp]
	mov	edx, DWORD PTR _window$[ebp]
	mov	DWORD PTR [ecx+56], edx

; 67   :     state->wnext = 0;

	mov	eax, DWORD PTR _state$[ebp]
	mov	DWORD PTR [eax+52], 0

; 68   :     state->whave = 0;

	mov	ecx, DWORD PTR _state$[ebp]
	mov	DWORD PTR [ecx+48], 0

; 69   :     return Z_OK;

	xor	eax, eax
$LN1@inflateBac:

; 70   : }

	mov	esp, ebp
	pop	ebp
	ret	20					; 00000014H
_inflateBackInit_@20 ENDP
_TEXT	ENDS
; Function compile flags: /Odtp
; File c:\cpython\externals\zlib-1.2.11\infback.c
_TEXT	SEGMENT
_strm$ = 8						; size = 4
_inflateBackEnd@4 PROC

; 633  : {

	push	ebp
	mov	ebp, esp

; 634  :     if (strm == Z_NULL || strm->state == Z_NULL || strm->zfree == (free_func)0)

	cmp	DWORD PTR _strm$[ebp], 0
	je	SHORT $LN3@inflateBac
	mov	eax, DWORD PTR _strm$[ebp]
	cmp	DWORD PTR [eax+28], 0
	je	SHORT $LN3@inflateBac
	mov	ecx, DWORD PTR _strm$[ebp]
	cmp	DWORD PTR [ecx+36], 0
	jne	SHORT $LN2@inflateBac
$LN3@inflateBac:

; 635  :         return Z_STREAM_ERROR;

	mov	eax, -2					; fffffffeH
	jmp	SHORT $LN1@inflateBac
$LN2@inflateBac:

; 636  :     ZFREE(strm, strm->state);

	mov	edx, DWORD PTR _strm$[ebp]
	mov	eax, DWORD PTR [edx+28]
	push	eax
	mov	ecx, DWORD PTR _strm$[ebp]
	mov	edx, DWORD PTR [ecx+40]
	push	edx
	mov	eax, DWORD PTR _strm$[ebp]
	mov	ecx, DWORD PTR [eax+36]
	call	ecx
	add	esp, 8

; 637  :     strm->state = Z_NULL;

	mov	edx, DWORD PTR _strm$[ebp]
	mov	DWORD PTR [edx+28], 0

; 638  :     Tracev((stderr, "inflate: end\n"));
; 639  :     return Z_OK;

	xor	eax, eax
$LN1@inflateBac:

; 640  : }

	pop	ebp
	ret	4
_inflateBackEnd@4 ENDP
_TEXT	ENDS
; Function compile flags: /Odtp
; File c:\cpython\externals\zlib-1.2.11\infback.c
_TEXT	SEGMENT
tv465 = -72						; size = 4
tv790 = -68						; size = 4
tv141 = -64						; size = 4
tv75 = -60						; size = 4
_len$ = -56						; size = 4
_from$ = -52						; size = 4
tv79 = -48						; size = 4
_last$ = -44						; size = 4
_put$ = -40						; size = 4
_ret$ = -36						; size = 4
_left$ = -32						; size = 4
_copy$ = -28						; size = 4
_here$ = -24						; size = 4
_next$ = -20						; size = 4
_have$ = -16						; size = 4
_hold$ = -12						; size = 4
_bits$ = -8						; size = 4
_state$ = -4						; size = 4
_strm$ = 8						; size = 4
_in$ = 12						; size = 4
_in_desc$ = 16						; size = 4
_out$ = 20						; size = 4
_out_desc$ = 24						; size = 4
_inflateBack@20 PROC

; 256  : {

	push	ebp
	mov	ebp, esp
	sub	esp, 72					; 00000048H

; 257  :     struct inflate_state FAR *state;
; 258  :     z_const unsigned char FAR *next;    /* next input */
; 259  :     unsigned char FAR *put;     /* next output */
; 260  :     unsigned have, left;        /* available input and output */
; 261  :     unsigned long hold;         /* bit buffer */
; 262  :     unsigned bits;              /* bits in bit buffer */
; 263  :     unsigned copy;              /* number of stored or match bytes to copy */
; 264  :     unsigned char FAR *from;    /* where to copy match bytes from */
; 265  :     code here;                  /* current decoding table entry */
; 266  :     code last;                  /* parent table entry */
; 267  :     unsigned len;               /* length to copy for repeats, bits to drop */
; 268  :     int ret;                    /* return code */
; 269  :     static const unsigned short order[19] = /* permutation of code lengths */
; 270  :         {16, 17, 18, 0, 8, 7, 9, 6, 10, 5, 11, 4, 12, 3, 13, 2, 14, 1, 15};
; 271  : 
; 272  :     /* Check that the strm exists and that the state was initialized */
; 273  :     if (strm == Z_NULL || strm->state == Z_NULL)

	cmp	DWORD PTR _strm$[ebp], 0
	je	SHORT $LN254@inflateBac
	mov	eax, DWORD PTR _strm$[ebp]
	cmp	DWORD PTR [eax+28], 0
	jne	SHORT $LN253@inflateBac
$LN254@inflateBac:

; 274  :         return Z_STREAM_ERROR;

	mov	eax, -2					; fffffffeH
	jmp	$LN1@inflateBac
$LN253@inflateBac:

; 275  :     state = (struct inflate_state FAR *)strm->state;

	mov	ecx, DWORD PTR _strm$[ebp]
	mov	edx, DWORD PTR [ecx+28]
	mov	DWORD PTR _state$[ebp], edx

; 276  : 
; 277  :     /* Reset the state */
; 278  :     strm->msg = Z_NULL;

	mov	eax, DWORD PTR _strm$[ebp]
	mov	DWORD PTR [eax+24], 0

; 279  :     state->mode = TYPE;

	mov	ecx, DWORD PTR _state$[ebp]
	mov	DWORD PTR [ecx+4], 16191		; 00003f3fH

; 280  :     state->last = 0;

	mov	edx, DWORD PTR _state$[ebp]
	mov	DWORD PTR [edx+8], 0

; 281  :     state->whave = 0;

	mov	eax, DWORD PTR _state$[ebp]
	mov	DWORD PTR [eax+48], 0

; 282  :     next = strm->next_in;

	mov	ecx, DWORD PTR _strm$[ebp]
	mov	edx, DWORD PTR [ecx]
	mov	DWORD PTR _next$[ebp], edx

; 283  :     have = next != Z_NULL ? strm->avail_in : 0;

	cmp	DWORD PTR _next$[ebp], 0
	je	SHORT $LN343@inflateBac
	mov	eax, DWORD PTR _strm$[ebp]
	mov	ecx, DWORD PTR [eax+4]
	mov	DWORD PTR tv75[ebp], ecx
	jmp	SHORT $LN344@inflateBac
$LN343@inflateBac:
	mov	DWORD PTR tv75[ebp], 0
$LN344@inflateBac:
	mov	edx, DWORD PTR tv75[ebp]
	mov	DWORD PTR _have$[ebp], edx

; 284  :     hold = 0;

	mov	DWORD PTR _hold$[ebp], 0

; 285  :     bits = 0;

	mov	DWORD PTR _bits$[ebp], 0

; 286  :     put = state->window;

	mov	eax, DWORD PTR _state$[ebp]
	mov	ecx, DWORD PTR [eax+56]
	mov	DWORD PTR _put$[ebp], ecx

; 287  :     left = state->wsize;

	mov	edx, DWORD PTR _state$[ebp]
	mov	eax, DWORD PTR [edx+44]
	mov	DWORD PTR _left$[ebp], eax
$LN4@inflateBac:

; 288  : 
; 289  :     /* Inflate until end of block marked as last */
; 290  :     for (;;)
; 291  :         switch (state->mode) {

	mov	ecx, DWORD PTR _state$[ebp]
	mov	edx, DWORD PTR [ecx+4]
	mov	DWORD PTR tv79[ebp], edx
	mov	eax, DWORD PTR tv79[ebp]
	sub	eax, 16191				; 00003f3fH
	mov	DWORD PTR tv79[ebp], eax
	cmp	DWORD PTR tv79[ebp], 18			; 00000012H
	ja	$LN341@inflateBac
	mov	ecx, DWORD PTR tv79[ebp]
	movzx	edx, BYTE PTR $LN347@inflateBac[ecx]
	jmp	DWORD PTR $LN348@inflateBac[edx*4]
$LN255@inflateBac:

; 292  :         case TYPE:
; 293  :             /* determine and dispatch block type */
; 294  :             if (state->last) {

	mov	eax, DWORD PTR _state$[ebp]
	cmp	DWORD PTR [eax+8], 0
	je	SHORT $LN13@inflateBac
$LN9@inflateBac:

; 295  :                 BYTEBITS();

	mov	ecx, DWORD PTR _bits$[ebp]
	and	ecx, 7
	mov	edx, DWORD PTR _hold$[ebp]
	shr	edx, cl
	mov	DWORD PTR _hold$[ebp], edx
	mov	eax, DWORD PTR _bits$[ebp]
	and	eax, 7
	mov	ecx, DWORD PTR _bits$[ebp]
	sub	ecx, eax
	mov	DWORD PTR _bits$[ebp], ecx
	xor	edx, edx
	jne	SHORT $LN9@inflateBac

; 296  :                 state->mode = DONE;

	mov	eax, DWORD PTR _state$[ebp]
	mov	DWORD PTR [eax+4], 16208		; 00003f50H

; 297  :                 break;

	jmp	$LN5@inflateBac
$LN13@inflateBac:

; 298  :             }
; 299  :             NEEDBITS(3);

	cmp	DWORD PTR _bits$[ebp], 3
	jae	SHORT $LN10@inflateBac
$LN20@inflateBac:
	cmp	DWORD PTR _have$[ebp], 0
	jne	SHORT $LN18@inflateBac
	lea	ecx, DWORD PTR _next$[ebp]
	push	ecx
	mov	edx, DWORD PTR _in_desc$[ebp]
	push	edx
	call	DWORD PTR _in$[ebp]
	add	esp, 8
	mov	DWORD PTR _have$[ebp], eax
	cmp	DWORD PTR _have$[ebp], 0
	jne	SHORT $LN18@inflateBac
	mov	DWORD PTR _next$[ebp], 0
	mov	DWORD PTR _ret$[ebp], -5		; fffffffbH
	jmp	$inf_leave$350
$LN18@inflateBac:
	xor	eax, eax
	jne	SHORT $LN20@inflateBac
	mov	ecx, DWORD PTR _have$[ebp]
	sub	ecx, 1
	mov	DWORD PTR _have$[ebp], ecx
	mov	edx, DWORD PTR _next$[ebp]
	movzx	eax, BYTE PTR [edx]
	mov	ecx, DWORD PTR _bits$[ebp]
	shl	eax, cl
	add	eax, DWORD PTR _hold$[ebp]
	mov	DWORD PTR _hold$[ebp], eax
	mov	ecx, DWORD PTR _next$[ebp]
	add	ecx, 1
	mov	DWORD PTR _next$[ebp], ecx
	mov	edx, DWORD PTR _bits$[ebp]
	add	edx, 8
	mov	DWORD PTR _bits$[ebp], edx
	xor	eax, eax
	jne	SHORT $LN20@inflateBac
	jmp	SHORT $LN13@inflateBac
$LN10@inflateBac:
	xor	ecx, ecx
	jne	SHORT $LN13@inflateBac

; 300  :             state->last = BITS(1);

	mov	edx, DWORD PTR _hold$[ebp]
	and	edx, 1
	mov	eax, DWORD PTR _state$[ebp]
	mov	DWORD PTR [eax+8], edx
$LN23@inflateBac:

; 301  :             DROPBITS(1);

	mov	ecx, DWORD PTR _hold$[ebp]
	shr	ecx, 1
	mov	DWORD PTR _hold$[ebp], ecx
	mov	edx, DWORD PTR _bits$[ebp]
	sub	edx, 1
	mov	DWORD PTR _bits$[ebp], edx
	xor	eax, eax
	jne	SHORT $LN23@inflateBac

; 302  :             switch (BITS(2)) {

	mov	ecx, DWORD PTR _hold$[ebp]
	and	ecx, 3
	mov	DWORD PTR tv141[ebp], ecx
	cmp	DWORD PTR tv141[ebp], 3
	ja	SHORT $LN28@inflateBac
	mov	edx, DWORD PTR tv141[ebp]
	jmp	DWORD PTR $LN349@inflateBac[edx*4]
$LN259@inflateBac:

; 303  :             case 0:                             /* stored block */
; 304  :                 Tracev((stderr, "inflate:     stored block%s\n",
; 305  :                         state->last ? " (last)" : ""));
; 306  :                 state->mode = STORED;

	mov	eax, DWORD PTR _state$[ebp]
	mov	DWORD PTR [eax+4], 16193		; 00003f41H

; 307  :                 break;

	jmp	SHORT $LN28@inflateBac
$LN260@inflateBac:

; 308  :             case 1:                             /* fixed block */
; 309  :                 fixedtables(state);

	mov	ecx, DWORD PTR _state$[ebp]
	push	ecx
	call	_fixedtables
	add	esp, 4

; 310  :                 Tracev((stderr, "inflate:     fixed codes block%s\n",
; 311  :                         state->last ? " (last)" : ""));
; 312  :                 state->mode = LEN;              /* decode codes */

	mov	edx, DWORD PTR _state$[ebp]
	mov	DWORD PTR [edx+4], 16200		; 00003f48H

; 313  :                 break;

	jmp	SHORT $LN28@inflateBac
$LN261@inflateBac:

; 314  :             case 2:                             /* dynamic block */
; 315  :                 Tracev((stderr, "inflate:     dynamic codes block%s\n",
; 316  :                         state->last ? " (last)" : ""));
; 317  :                 state->mode = TABLE;

	mov	eax, DWORD PTR _state$[ebp]
	mov	DWORD PTR [eax+4], 16196		; 00003f44H

; 318  :                 break;

	jmp	SHORT $LN28@inflateBac
$LN262@inflateBac:

; 319  :             case 3:
; 320  :                 strm->msg = (char *)"invalid block type";

	mov	ecx, DWORD PTR _strm$[ebp]
	mov	DWORD PTR [ecx+24], OFFSET $SG86246

; 321  :                 state->mode = BAD;

	mov	edx, DWORD PTR _state$[ebp]
	mov	DWORD PTR [edx+4], 16209		; 00003f51H
$LN28@inflateBac:

; 322  :             }
; 323  :             DROPBITS(2);

	mov	eax, DWORD PTR _hold$[ebp]
	shr	eax, 2
	mov	DWORD PTR _hold$[ebp], eax
	mov	ecx, DWORD PTR _bits$[ebp]
	sub	ecx, 2
	mov	DWORD PTR _bits$[ebp], ecx
	xor	edx, edx
	jne	SHORT $LN28@inflateBac

; 324  :             break;

	jmp	$LN5@inflateBac
$LN31@inflateBac:

; 325  : 
; 326  :         case STORED:
; 327  :             /* get and verify stored block length */
; 328  :             BYTEBITS();                         /* go to byte boundary */

	mov	ecx, DWORD PTR _bits$[ebp]
	and	ecx, 7
	mov	eax, DWORD PTR _hold$[ebp]
	shr	eax, cl
	mov	DWORD PTR _hold$[ebp], eax
	mov	ecx, DWORD PTR _bits$[ebp]
	and	ecx, 7
	mov	edx, DWORD PTR _bits$[ebp]
	sub	edx, ecx
	mov	DWORD PTR _bits$[ebp], edx
	xor	eax, eax
	jne	SHORT $LN31@inflateBac
$LN35@inflateBac:

; 329  :             NEEDBITS(32);

	cmp	DWORD PTR _bits$[ebp], 32		; 00000020H
	jae	SHORT $LN32@inflateBac
$LN42@inflateBac:
	cmp	DWORD PTR _have$[ebp], 0
	jne	SHORT $LN40@inflateBac
	lea	ecx, DWORD PTR _next$[ebp]
	push	ecx
	mov	edx, DWORD PTR _in_desc$[ebp]
	push	edx
	call	DWORD PTR _in$[ebp]
	add	esp, 8
	mov	DWORD PTR _have$[ebp], eax
	cmp	DWORD PTR _have$[ebp], 0
	jne	SHORT $LN40@inflateBac
	mov	DWORD PTR _next$[ebp], 0
	mov	DWORD PTR _ret$[ebp], -5		; fffffffbH
	jmp	$inf_leave$350
$LN40@inflateBac:
	xor	eax, eax
	jne	SHORT $LN42@inflateBac
	mov	ecx, DWORD PTR _have$[ebp]
	sub	ecx, 1
	mov	DWORD PTR _have$[ebp], ecx
	mov	edx, DWORD PTR _next$[ebp]
	movzx	eax, BYTE PTR [edx]
	mov	ecx, DWORD PTR _bits$[ebp]
	shl	eax, cl
	add	eax, DWORD PTR _hold$[ebp]
	mov	DWORD PTR _hold$[ebp], eax
	mov	ecx, DWORD PTR _next$[ebp]
	add	ecx, 1
	mov	DWORD PTR _next$[ebp], ecx
	mov	edx, DWORD PTR _bits$[ebp]
	add	edx, 8
	mov	DWORD PTR _bits$[ebp], edx
	xor	eax, eax
	jne	SHORT $LN42@inflateBac
	jmp	SHORT $LN35@inflateBac
$LN32@inflateBac:
	xor	ecx, ecx
	jne	SHORT $LN35@inflateBac

; 330  :             if ((hold & 0xffff) != ((hold >> 16) ^ 0xffff)) {

	mov	edx, DWORD PTR _hold$[ebp]
	and	edx, 65535				; 0000ffffH
	mov	eax, DWORD PTR _hold$[ebp]
	shr	eax, 16					; 00000010H
	xor	eax, 65535				; 0000ffffH
	cmp	edx, eax
	je	SHORT $LN266@inflateBac

; 331  :                 strm->msg = (char *)"invalid stored block lengths";

	mov	ecx, DWORD PTR _strm$[ebp]
	mov	DWORD PTR [ecx+24], OFFSET $SG86251

; 332  :                 state->mode = BAD;

	mov	edx, DWORD PTR _state$[ebp]
	mov	DWORD PTR [edx+4], 16209		; 00003f51H

; 333  :                 break;

	jmp	$LN5@inflateBac
$LN266@inflateBac:

; 334  :             }
; 335  :             state->length = (unsigned)hold & 0xffff;

	mov	eax, DWORD PTR _hold$[ebp]
	and	eax, 65535				; 0000ffffH
	mov	ecx, DWORD PTR _state$[ebp]
	mov	DWORD PTR [ecx+68], eax
$LN45@inflateBac:

; 336  :             Tracev((stderr, "inflate:       stored length %u\n",
; 337  :                     state->length));
; 338  :             INITBITS();

	mov	DWORD PTR _hold$[ebp], 0
	mov	DWORD PTR _bits$[ebp], 0
	xor	edx, edx
	jne	SHORT $LN45@inflateBac
$LN46@inflateBac:

; 339  : 
; 340  :             /* copy stored block from input to output */
; 341  :             while (state->length != 0) {

	mov	eax, DWORD PTR _state$[ebp]
	cmp	DWORD PTR [eax+68], 0
	je	$LN47@inflateBac

; 342  :                 copy = state->length;

	mov	ecx, DWORD PTR _state$[ebp]
	mov	edx, DWORD PTR [ecx+68]
	mov	DWORD PTR _copy$[ebp], edx
$LN50@inflateBac:

; 343  :                 PULL();

	cmp	DWORD PTR _have$[ebp], 0
	jne	SHORT $LN48@inflateBac
	lea	eax, DWORD PTR _next$[ebp]
	push	eax
	mov	ecx, DWORD PTR _in_desc$[ebp]
	push	ecx
	call	DWORD PTR _in$[ebp]
	add	esp, 8
	mov	DWORD PTR _have$[ebp], eax
	cmp	DWORD PTR _have$[ebp], 0
	jne	SHORT $LN48@inflateBac
	mov	DWORD PTR _next$[ebp], 0
	mov	DWORD PTR _ret$[ebp], -5		; fffffffbH
	jmp	$inf_leave$350
$LN48@inflateBac:
	xor	edx, edx
	jne	SHORT $LN50@inflateBac
$LN53@inflateBac:

; 344  :                 ROOM();

	cmp	DWORD PTR _left$[ebp], 0
	jne	SHORT $LN51@inflateBac
	mov	eax, DWORD PTR _state$[ebp]
	mov	ecx, DWORD PTR [eax+56]
	mov	DWORD PTR _put$[ebp], ecx
	mov	edx, DWORD PTR _state$[ebp]
	mov	eax, DWORD PTR [edx+44]
	mov	DWORD PTR _left$[ebp], eax
	mov	ecx, DWORD PTR _state$[ebp]
	mov	edx, DWORD PTR _left$[ebp]
	mov	DWORD PTR [ecx+48], edx
	mov	eax, DWORD PTR _left$[ebp]
	push	eax
	mov	ecx, DWORD PTR _put$[ebp]
	push	ecx
	mov	edx, DWORD PTR _out_desc$[ebp]
	push	edx
	call	DWORD PTR _out$[ebp]
	add	esp, 12					; 0000000cH
	test	eax, eax
	je	SHORT $LN51@inflateBac
	mov	DWORD PTR _ret$[ebp], -5		; fffffffbH
	jmp	$inf_leave$350
$LN51@inflateBac:
	xor	eax, eax
	jne	SHORT $LN53@inflateBac

; 345  :                 if (copy > have) copy = have;

	mov	ecx, DWORD PTR _copy$[ebp]
	cmp	ecx, DWORD PTR _have$[ebp]
	jbe	SHORT $LN271@inflateBac
	mov	edx, DWORD PTR _have$[ebp]
	mov	DWORD PTR _copy$[ebp], edx
$LN271@inflateBac:

; 346  :                 if (copy > left) copy = left;

	mov	eax, DWORD PTR _copy$[ebp]
	cmp	eax, DWORD PTR _left$[ebp]
	jbe	SHORT $LN272@inflateBac
	mov	ecx, DWORD PTR _left$[ebp]
	mov	DWORD PTR _copy$[ebp], ecx
$LN272@inflateBac:

; 347  :                 zmemcpy(put, next, copy);

	mov	edx, DWORD PTR _copy$[ebp]
	push	edx
	mov	eax, DWORD PTR _next$[ebp]
	push	eax
	mov	ecx, DWORD PTR _put$[ebp]
	push	ecx
	call	_memcpy
	add	esp, 12					; 0000000cH

; 348  :                 have -= copy;

	mov	edx, DWORD PTR _have$[ebp]
	sub	edx, DWORD PTR _copy$[ebp]
	mov	DWORD PTR _have$[ebp], edx

; 349  :                 next += copy;

	mov	eax, DWORD PTR _next$[ebp]
	add	eax, DWORD PTR _copy$[ebp]
	mov	DWORD PTR _next$[ebp], eax

; 350  :                 left -= copy;

	mov	ecx, DWORD PTR _left$[ebp]
	sub	ecx, DWORD PTR _copy$[ebp]
	mov	DWORD PTR _left$[ebp], ecx

; 351  :                 put += copy;

	mov	edx, DWORD PTR _put$[ebp]
	add	edx, DWORD PTR _copy$[ebp]
	mov	DWORD PTR _put$[ebp], edx

; 352  :                 state->length -= copy;

	mov	eax, DWORD PTR _state$[ebp]
	mov	ecx, DWORD PTR [eax+68]
	sub	ecx, DWORD PTR _copy$[ebp]
	mov	edx, DWORD PTR _state$[ebp]
	mov	DWORD PTR [edx+68], ecx

; 353  :             }

	jmp	$LN46@inflateBac
$LN47@inflateBac:

; 354  :             Tracev((stderr, "inflate:       stored end\n"));
; 355  :             state->mode = TYPE;

	mov	eax, DWORD PTR _state$[ebp]
	mov	DWORD PTR [eax+4], 16191		; 00003f3fH

; 356  :             break;

	jmp	$LN5@inflateBac
$LN57@inflateBac:

; 357  : 
; 358  :         case TABLE:
; 359  :             /* get dynamic table entries descriptor */
; 360  :             NEEDBITS(14);

	cmp	DWORD PTR _bits$[ebp], 14		; 0000000eH
	jae	SHORT $LN54@inflateBac
$LN64@inflateBac:
	cmp	DWORD PTR _have$[ebp], 0
	jne	SHORT $LN62@inflateBac
	lea	ecx, DWORD PTR _next$[ebp]
	push	ecx
	mov	edx, DWORD PTR _in_desc$[ebp]
	push	edx
	call	DWORD PTR _in$[ebp]
	add	esp, 8
	mov	DWORD PTR _have$[ebp], eax
	cmp	DWORD PTR _have$[ebp], 0
	jne	SHORT $LN62@inflateBac
	mov	DWORD PTR _next$[ebp], 0
	mov	DWORD PTR _ret$[ebp], -5		; fffffffbH
	jmp	$inf_leave$350
$LN62@inflateBac:
	xor	eax, eax
	jne	SHORT $LN64@inflateBac
	mov	ecx, DWORD PTR _have$[ebp]
	sub	ecx, 1
	mov	DWORD PTR _have$[ebp], ecx
	mov	edx, DWORD PTR _next$[ebp]
	movzx	eax, BYTE PTR [edx]
	mov	ecx, DWORD PTR _bits$[ebp]
	shl	eax, cl
	add	eax, DWORD PTR _hold$[ebp]
	mov	DWORD PTR _hold$[ebp], eax
	mov	ecx, DWORD PTR _next$[ebp]
	add	ecx, 1
	mov	DWORD PTR _next$[ebp], ecx
	mov	edx, DWORD PTR _bits$[ebp]
	add	edx, 8
	mov	DWORD PTR _bits$[ebp], edx
	xor	eax, eax
	jne	SHORT $LN64@inflateBac
	jmp	SHORT $LN57@inflateBac
$LN54@inflateBac:
	xor	ecx, ecx
	jne	SHORT $LN57@inflateBac

; 361  :             state->nlen = BITS(5) + 257;

	mov	edx, DWORD PTR _hold$[ebp]
	and	edx, 31					; 0000001fH
	add	edx, 257				; 00000101H
	mov	eax, DWORD PTR _state$[ebp]
	mov	DWORD PTR [eax+100], edx
$LN67@inflateBac:

; 362  :             DROPBITS(5);

	mov	ecx, DWORD PTR _hold$[ebp]
	shr	ecx, 5
	mov	DWORD PTR _hold$[ebp], ecx
	mov	edx, DWORD PTR _bits$[ebp]
	sub	edx, 5
	mov	DWORD PTR _bits$[ebp], edx
	xor	eax, eax
	jne	SHORT $LN67@inflateBac

; 363  :             state->ndist = BITS(5) + 1;

	mov	ecx, DWORD PTR _hold$[ebp]
	and	ecx, 31					; 0000001fH
	add	ecx, 1
	mov	edx, DWORD PTR _state$[ebp]
	mov	DWORD PTR [edx+104], ecx
$LN70@inflateBac:

; 364  :             DROPBITS(5);

	mov	eax, DWORD PTR _hold$[ebp]
	shr	eax, 5
	mov	DWORD PTR _hold$[ebp], eax
	mov	ecx, DWORD PTR _bits$[ebp]
	sub	ecx, 5
	mov	DWORD PTR _bits$[ebp], ecx
	xor	edx, edx
	jne	SHORT $LN70@inflateBac

; 365  :             state->ncode = BITS(4) + 4;

	mov	eax, DWORD PTR _hold$[ebp]
	and	eax, 15					; 0000000fH
	add	eax, 4
	mov	ecx, DWORD PTR _state$[ebp]
	mov	DWORD PTR [ecx+96], eax
$LN73@inflateBac:

; 366  :             DROPBITS(4);

	mov	edx, DWORD PTR _hold$[ebp]
	shr	edx, 4
	mov	DWORD PTR _hold$[ebp], edx
	mov	eax, DWORD PTR _bits$[ebp]
	sub	eax, 4
	mov	DWORD PTR _bits$[ebp], eax
	xor	ecx, ecx
	jne	SHORT $LN73@inflateBac

; 367  : #ifndef PKZIP_BUG_WORKAROUND
; 368  :             if (state->nlen > 286 || state->ndist > 30) {

	mov	edx, DWORD PTR _state$[ebp]
	cmp	DWORD PTR [edx+100], 286		; 0000011eH
	ja	SHORT $LN277@inflateBac
	mov	eax, DWORD PTR _state$[ebp]
	cmp	DWORD PTR [eax+104], 30			; 0000001eH
	jbe	SHORT $LN276@inflateBac
$LN277@inflateBac:

; 369  :                 strm->msg = (char *)"too many length or distance symbols";

	mov	ecx, DWORD PTR _strm$[ebp]
	mov	DWORD PTR [ecx+24], OFFSET $SG86263

; 370  :                 state->mode = BAD;

	mov	edx, DWORD PTR _state$[ebp]
	mov	DWORD PTR [edx+4], 16209		; 00003f51H

; 371  :                 break;

	jmp	$LN5@inflateBac
$LN276@inflateBac:

; 372  :             }
; 373  : #endif
; 374  :             Tracev((stderr, "inflate:       table sizes ok\n"));
; 375  : 
; 376  :             /* get code length code lengths (not a typo) */
; 377  :             state->have = 0;

	mov	eax, DWORD PTR _state$[ebp]
	mov	DWORD PTR [eax+108], 0
$LN74@inflateBac:

; 378  :             while (state->have < state->ncode) {

	mov	ecx, DWORD PTR _state$[ebp]
	mov	edx, DWORD PTR _state$[ebp]
	mov	eax, DWORD PTR [ecx+108]
	cmp	eax, DWORD PTR [edx+96]
	jae	$LN90@inflateBac
$LN79@inflateBac:

; 379  :                 NEEDBITS(3);

	cmp	DWORD PTR _bits$[ebp], 3
	jae	SHORT $LN76@inflateBac
$LN86@inflateBac:
	cmp	DWORD PTR _have$[ebp], 0
	jne	SHORT $LN84@inflateBac
	lea	ecx, DWORD PTR _next$[ebp]
	push	ecx
	mov	edx, DWORD PTR _in_desc$[ebp]
	push	edx
	call	DWORD PTR _in$[ebp]
	add	esp, 8
	mov	DWORD PTR _have$[ebp], eax
	cmp	DWORD PTR _have$[ebp], 0
	jne	SHORT $LN84@inflateBac
	mov	DWORD PTR _next$[ebp], 0
	mov	DWORD PTR _ret$[ebp], -5		; fffffffbH
	jmp	$inf_leave$350
$LN84@inflateBac:
	xor	eax, eax
	jne	SHORT $LN86@inflateBac
	mov	ecx, DWORD PTR _have$[ebp]
	sub	ecx, 1
	mov	DWORD PTR _have$[ebp], ecx
	mov	edx, DWORD PTR _next$[ebp]
	movzx	eax, BYTE PTR [edx]
	mov	ecx, DWORD PTR _bits$[ebp]
	shl	eax, cl
	add	eax, DWORD PTR _hold$[ebp]
	mov	DWORD PTR _hold$[ebp], eax
	mov	ecx, DWORD PTR _next$[ebp]
	add	ecx, 1
	mov	DWORD PTR _next$[ebp], ecx
	mov	edx, DWORD PTR _bits$[ebp]
	add	edx, 8
	mov	DWORD PTR _bits$[ebp], edx
	xor	eax, eax
	jne	SHORT $LN86@inflateBac
	jmp	SHORT $LN79@inflateBac
$LN76@inflateBac:
	xor	ecx, ecx
	jne	SHORT $LN79@inflateBac

; 380  :                 state->lens[order[state->have++]] = (unsigned short)BITS(3);

	mov	edx, DWORD PTR _hold$[ebp]
	and	edx, 7
	mov	eax, DWORD PTR _state$[ebp]
	mov	ecx, DWORD PTR [eax+108]
	movzx	eax, WORD PTR ?order@?1??inflateBack@@9@9[ecx*2]
	mov	ecx, DWORD PTR _state$[ebp]
	mov	WORD PTR [ecx+eax*2+116], dx
	mov	edx, DWORD PTR _state$[ebp]
	mov	eax, DWORD PTR [edx+108]
	add	eax, 1
	mov	ecx, DWORD PTR _state$[ebp]
	mov	DWORD PTR [ecx+108], eax
$LN89@inflateBac:

; 381  :                 DROPBITS(3);

	mov	edx, DWORD PTR _hold$[ebp]
	shr	edx, 3
	mov	DWORD PTR _hold$[ebp], edx
	mov	eax, DWORD PTR _bits$[ebp]
	sub	eax, 3
	mov	DWORD PTR _bits$[ebp], eax
	xor	ecx, ecx
	jne	SHORT $LN89@inflateBac

; 382  :             }

	jmp	$LN74@inflateBac
$LN90@inflateBac:

; 383  :             while (state->have < 19)

	mov	edx, DWORD PTR _state$[ebp]
	cmp	DWORD PTR [edx+108], 19			; 00000013H
	jae	SHORT $LN91@inflateBac

; 384  :                 state->lens[order[state->have++]] = 0;

	mov	eax, DWORD PTR _state$[ebp]
	mov	ecx, DWORD PTR [eax+108]
	movzx	edx, WORD PTR ?order@?1??inflateBack@@9@9[ecx*2]
	xor	eax, eax
	mov	ecx, DWORD PTR _state$[ebp]
	mov	WORD PTR [ecx+edx*2+116], ax
	mov	edx, DWORD PTR _state$[ebp]
	mov	eax, DWORD PTR [edx+108]
	add	eax, 1
	mov	ecx, DWORD PTR _state$[ebp]
	mov	DWORD PTR [ecx+108], eax
	jmp	SHORT $LN90@inflateBac
$LN91@inflateBac:

; 385  :             state->next = state->codes;

	mov	edx, DWORD PTR _state$[ebp]
	add	edx, 1332				; 00000534H
	mov	eax, DWORD PTR _state$[ebp]
	mov	DWORD PTR [eax+112], edx

; 386  :             state->lencode = (code const FAR *)(state->next);

	mov	ecx, DWORD PTR _state$[ebp]
	mov	edx, DWORD PTR _state$[ebp]
	mov	eax, DWORD PTR [edx+112]
	mov	DWORD PTR [ecx+80], eax

; 387  :             state->lenbits = 7;

	mov	ecx, DWORD PTR _state$[ebp]
	mov	DWORD PTR [ecx+88], 7

; 388  :             ret = inflate_table(CODES, state->lens, 19, &(state->next),

	mov	edx, DWORD PTR _state$[ebp]
	add	edx, 756				; 000002f4H
	push	edx
	mov	eax, DWORD PTR _state$[ebp]
	add	eax, 88					; 00000058H
	push	eax
	mov	ecx, DWORD PTR _state$[ebp]
	add	ecx, 112				; 00000070H
	push	ecx
	push	19					; 00000013H
	mov	edx, DWORD PTR _state$[ebp]
	add	edx, 116				; 00000074H
	push	edx
	push	0
	call	_inflate_table
	add	esp, 24					; 00000018H
	mov	DWORD PTR _ret$[ebp], eax

; 389  :                                 &(state->lenbits), state->work);
; 390  :             if (ret) {

	cmp	DWORD PTR _ret$[ebp], 0
	je	SHORT $LN280@inflateBac

; 391  :                 strm->msg = (char *)"invalid code lengths set";

	mov	eax, DWORD PTR _strm$[ebp]
	mov	DWORD PTR [eax+24], OFFSET $SG86267

; 392  :                 state->mode = BAD;

	mov	ecx, DWORD PTR _state$[ebp]
	mov	DWORD PTR [ecx+4], 16209		; 00003f51H

; 393  :                 break;

	jmp	$LN5@inflateBac
$LN280@inflateBac:

; 394  :             }
; 395  :             Tracev((stderr, "inflate:       code lengths ok\n"));
; 396  : 
; 397  :             /* get length and distance code code lengths */
; 398  :             state->have = 0;

	mov	edx, DWORD PTR _state$[ebp]
	mov	DWORD PTR [edx+108], 0
$LN92@inflateBac:

; 399  :             while (state->have < state->nlen + state->ndist) {

	mov	eax, DWORD PTR _state$[ebp]
	mov	ecx, DWORD PTR [eax+100]
	mov	edx, DWORD PTR _state$[ebp]
	add	ecx, DWORD PTR [edx+104]
	mov	eax, DWORD PTR _state$[ebp]
	cmp	DWORD PTR [eax+108], ecx
	jae	$LN93@inflateBac
$LN96@inflateBac:

; 400  :                 for (;;) {
; 401  :                     here = state->lencode[BITS(state->lenbits)];

	mov	ecx, DWORD PTR _state$[ebp]
	mov	edx, 1
	mov	ecx, DWORD PTR [ecx+88]
	shl	edx, cl
	sub	edx, 1
	and	edx, DWORD PTR _hold$[ebp]
	mov	eax, DWORD PTR _state$[ebp]
	mov	ecx, DWORD PTR [eax+80]
	mov	edx, DWORD PTR [ecx+edx*4]
	mov	DWORD PTR _here$[ebp], edx

; 402  :                     if ((unsigned)(here.bits) <= bits) break;

	movzx	eax, BYTE PTR _here$[ebp+1]
	cmp	eax, DWORD PTR _bits$[ebp]
	ja	SHORT $LN102@inflateBac
	jmp	SHORT $LN95@inflateBac
$LN102@inflateBac:

; 403  :                     PULLBYTE();

	cmp	DWORD PTR _have$[ebp], 0
	jne	SHORT $LN100@inflateBac
	lea	ecx, DWORD PTR _next$[ebp]
	push	ecx
	mov	edx, DWORD PTR _in_desc$[ebp]
	push	edx
	call	DWORD PTR _in$[ebp]
	add	esp, 8
	mov	DWORD PTR _have$[ebp], eax
	cmp	DWORD PTR _have$[ebp], 0
	jne	SHORT $LN100@inflateBac
	mov	DWORD PTR _next$[ebp], 0
	mov	DWORD PTR _ret$[ebp], -5		; fffffffbH
	jmp	$inf_leave$350
$LN100@inflateBac:
	xor	eax, eax
	jne	SHORT $LN102@inflateBac
	mov	ecx, DWORD PTR _have$[ebp]
	sub	ecx, 1
	mov	DWORD PTR _have$[ebp], ecx
	mov	edx, DWORD PTR _next$[ebp]
	movzx	eax, BYTE PTR [edx]
	mov	ecx, DWORD PTR _bits$[ebp]
	shl	eax, cl
	add	eax, DWORD PTR _hold$[ebp]
	mov	DWORD PTR _hold$[ebp], eax
	mov	ecx, DWORD PTR _next$[ebp]
	add	ecx, 1
	mov	DWORD PTR _next$[ebp], ecx
	mov	edx, DWORD PTR _bits$[ebp]
	add	edx, 8
	mov	DWORD PTR _bits$[ebp], edx
	xor	eax, eax
	jne	SHORT $LN102@inflateBac

; 404  :                 }

	jmp	$LN96@inflateBac
$LN95@inflateBac:

; 405  :                 if (here.val < 16) {

	movzx	ecx, WORD PTR _here$[ebp+2]
	cmp	ecx, 16					; 00000010H
	jge	SHORT $LN284@inflateBac
$LN105@inflateBac:

; 406  :                     DROPBITS(here.bits);

	movzx	ecx, BYTE PTR _here$[ebp+1]
	mov	edx, DWORD PTR _hold$[ebp]
	shr	edx, cl
	mov	DWORD PTR _hold$[ebp], edx
	movzx	eax, BYTE PTR _here$[ebp+1]
	mov	ecx, DWORD PTR _bits$[ebp]
	sub	ecx, eax
	mov	DWORD PTR _bits$[ebp], ecx
	xor	edx, edx
	jne	SHORT $LN105@inflateBac

; 407  :                     state->lens[state->have++] = here.val;

	mov	eax, DWORD PTR _state$[ebp]
	mov	ecx, DWORD PTR [eax+108]
	mov	edx, DWORD PTR _state$[ebp]
	mov	ax, WORD PTR _here$[ebp+2]
	mov	WORD PTR [edx+ecx*2+116], ax
	mov	ecx, DWORD PTR _state$[ebp]
	mov	edx, DWORD PTR [ecx+108]
	add	edx, 1
	mov	eax, DWORD PTR _state$[ebp]
	mov	DWORD PTR [eax+108], edx

; 408  :                 }

	jmp	$LN285@inflateBac
$LN284@inflateBac:

; 409  :                 else {
; 410  :                     if (here.val == 16) {

	movzx	ecx, WORD PTR _here$[ebp+2]
	cmp	ecx, 16					; 00000010H
	jne	$LN286@inflateBac
$LN109@inflateBac:

; 411  :                         NEEDBITS(here.bits + 2);

	movzx	edx, BYTE PTR _here$[ebp+1]
	add	edx, 2
	cmp	DWORD PTR _bits$[ebp], edx
	jae	SHORT $LN106@inflateBac
$LN116@inflateBac:
	cmp	DWORD PTR _have$[ebp], 0
	jne	SHORT $LN114@inflateBac
	lea	eax, DWORD PTR _next$[ebp]
	push	eax
	mov	ecx, DWORD PTR _in_desc$[ebp]
	push	ecx
	call	DWORD PTR _in$[ebp]
	add	esp, 8
	mov	DWORD PTR _have$[ebp], eax
	cmp	DWORD PTR _have$[ebp], 0
	jne	SHORT $LN114@inflateBac
	mov	DWORD PTR _next$[ebp], 0
	mov	DWORD PTR _ret$[ebp], -5		; fffffffbH
	jmp	$inf_leave$350
$LN114@inflateBac:
	xor	edx, edx
	jne	SHORT $LN116@inflateBac
	mov	eax, DWORD PTR _have$[ebp]
	sub	eax, 1
	mov	DWORD PTR _have$[ebp], eax
	mov	ecx, DWORD PTR _next$[ebp]
	movzx	edx, BYTE PTR [ecx]
	mov	ecx, DWORD PTR _bits$[ebp]
	shl	edx, cl
	add	edx, DWORD PTR _hold$[ebp]
	mov	DWORD PTR _hold$[ebp], edx
	mov	eax, DWORD PTR _next$[ebp]
	add	eax, 1
	mov	DWORD PTR _next$[ebp], eax
	mov	ecx, DWORD PTR _bits$[ebp]
	add	ecx, 8
	mov	DWORD PTR _bits$[ebp], ecx
	xor	edx, edx
	jne	SHORT $LN116@inflateBac
	jmp	SHORT $LN109@inflateBac
$LN106@inflateBac:
	xor	eax, eax
	jne	SHORT $LN109@inflateBac
$LN119@inflateBac:

; 412  :                         DROPBITS(here.bits);

	movzx	ecx, BYTE PTR _here$[ebp+1]
	mov	edx, DWORD PTR _hold$[ebp]
	shr	edx, cl
	mov	DWORD PTR _hold$[ebp], edx
	movzx	eax, BYTE PTR _here$[ebp+1]
	mov	ecx, DWORD PTR _bits$[ebp]
	sub	ecx, eax
	mov	DWORD PTR _bits$[ebp], ecx
	xor	edx, edx
	jne	SHORT $LN119@inflateBac

; 413  :                         if (state->have == 0) {

	mov	eax, DWORD PTR _state$[ebp]
	cmp	DWORD PTR [eax+108], 0
	jne	SHORT $LN290@inflateBac

; 414  :                             strm->msg = (char *)"invalid bit length repeat";

	mov	ecx, DWORD PTR _strm$[ebp]
	mov	DWORD PTR [ecx+24], OFFSET $SG86278

; 415  :                             state->mode = BAD;

	mov	edx, DWORD PTR _state$[ebp]
	mov	DWORD PTR [edx+4], 16209		; 00003f51H

; 416  :                             break;

	jmp	$LN93@inflateBac
$LN290@inflateBac:

; 417  :                         }
; 418  :                         len = (unsigned)(state->lens[state->have - 1]);

	mov	eax, DWORD PTR _state$[ebp]
	mov	ecx, DWORD PTR [eax+108]
	mov	edx, DWORD PTR _state$[ebp]
	movzx	eax, WORD PTR [edx+ecx*2+114]
	mov	DWORD PTR _len$[ebp], eax

; 419  :                         copy = 3 + BITS(2);

	mov	ecx, DWORD PTR _hold$[ebp]
	and	ecx, 3
	add	ecx, 3
	mov	DWORD PTR _copy$[ebp], ecx
$LN122@inflateBac:

; 420  :                         DROPBITS(2);

	mov	edx, DWORD PTR _hold$[ebp]
	shr	edx, 2
	mov	DWORD PTR _hold$[ebp], edx
	mov	eax, DWORD PTR _bits$[ebp]
	sub	eax, 2
	mov	DWORD PTR _bits$[ebp], eax
	xor	ecx, ecx
	jne	SHORT $LN122@inflateBac

; 421  :                     }

	jmp	$LN287@inflateBac
$LN286@inflateBac:

; 422  :                     else if (here.val == 17) {

	movzx	edx, WORD PTR _here$[ebp+2]
	cmp	edx, 17					; 00000011H
	jne	$LN143@inflateBac
$LN126@inflateBac:

; 423  :                         NEEDBITS(here.bits + 3);

	movzx	eax, BYTE PTR _here$[ebp+1]
	add	eax, 3
	cmp	DWORD PTR _bits$[ebp], eax
	jae	SHORT $LN123@inflateBac
$LN133@inflateBac:
	cmp	DWORD PTR _have$[ebp], 0
	jne	SHORT $LN131@inflateBac
	lea	ecx, DWORD PTR _next$[ebp]
	push	ecx
	mov	edx, DWORD PTR _in_desc$[ebp]
	push	edx
	call	DWORD PTR _in$[ebp]
	add	esp, 8
	mov	DWORD PTR _have$[ebp], eax
	cmp	DWORD PTR _have$[ebp], 0
	jne	SHORT $LN131@inflateBac
	mov	DWORD PTR _next$[ebp], 0
	mov	DWORD PTR _ret$[ebp], -5		; fffffffbH
	jmp	$inf_leave$350
$LN131@inflateBac:
	xor	eax, eax
	jne	SHORT $LN133@inflateBac
	mov	ecx, DWORD PTR _have$[ebp]
	sub	ecx, 1
	mov	DWORD PTR _have$[ebp], ecx
	mov	edx, DWORD PTR _next$[ebp]
	movzx	eax, BYTE PTR [edx]
	mov	ecx, DWORD PTR _bits$[ebp]
	shl	eax, cl
	add	eax, DWORD PTR _hold$[ebp]
	mov	DWORD PTR _hold$[ebp], eax
	mov	ecx, DWORD PTR _next$[ebp]
	add	ecx, 1
	mov	DWORD PTR _next$[ebp], ecx
	mov	edx, DWORD PTR _bits$[ebp]
	add	edx, 8
	mov	DWORD PTR _bits$[ebp], edx
	xor	eax, eax
	jne	SHORT $LN133@inflateBac
	jmp	SHORT $LN126@inflateBac
$LN123@inflateBac:
	xor	ecx, ecx
	jne	SHORT $LN126@inflateBac
$LN136@inflateBac:

; 424  :                         DROPBITS(here.bits);

	movzx	ecx, BYTE PTR _here$[ebp+1]
	mov	edx, DWORD PTR _hold$[ebp]
	shr	edx, cl
	mov	DWORD PTR _hold$[ebp], edx
	movzx	eax, BYTE PTR _here$[ebp+1]
	mov	ecx, DWORD PTR _bits$[ebp]
	sub	ecx, eax
	mov	DWORD PTR _bits$[ebp], ecx
	xor	edx, edx
	jne	SHORT $LN136@inflateBac

; 425  :                         len = 0;

	mov	DWORD PTR _len$[ebp], 0

; 426  :                         copy = 3 + BITS(3);

	mov	eax, DWORD PTR _hold$[ebp]
	and	eax, 7
	add	eax, 3
	mov	DWORD PTR _copy$[ebp], eax
$LN139@inflateBac:

; 427  :                         DROPBITS(3);

	mov	ecx, DWORD PTR _hold$[ebp]
	shr	ecx, 3
	mov	DWORD PTR _hold$[ebp], ecx
	mov	edx, DWORD PTR _bits$[ebp]
	sub	edx, 3
	mov	DWORD PTR _bits$[ebp], edx
	xor	eax, eax
	jne	SHORT $LN139@inflateBac

; 428  :                     }

	jmp	$LN287@inflateBac
$LN143@inflateBac:

; 429  :                     else {
; 430  :                         NEEDBITS(here.bits + 7);

	movzx	ecx, BYTE PTR _here$[ebp+1]
	add	ecx, 7
	cmp	DWORD PTR _bits$[ebp], ecx
	jae	SHORT $LN140@inflateBac
$LN150@inflateBac:
	cmp	DWORD PTR _have$[ebp], 0
	jne	SHORT $LN148@inflateBac
	lea	edx, DWORD PTR _next$[ebp]
	push	edx
	mov	eax, DWORD PTR _in_desc$[ebp]
	push	eax
	call	DWORD PTR _in$[ebp]
	add	esp, 8
	mov	DWORD PTR _have$[ebp], eax
	cmp	DWORD PTR _have$[ebp], 0
	jne	SHORT $LN148@inflateBac
	mov	DWORD PTR _next$[ebp], 0
	mov	DWORD PTR _ret$[ebp], -5		; fffffffbH
	jmp	$inf_leave$350
$LN148@inflateBac:
	xor	ecx, ecx
	jne	SHORT $LN150@inflateBac
	mov	edx, DWORD PTR _have$[ebp]
	sub	edx, 1
	mov	DWORD PTR _have$[ebp], edx
	mov	eax, DWORD PTR _next$[ebp]
	movzx	edx, BYTE PTR [eax]
	mov	ecx, DWORD PTR _bits$[ebp]
	shl	edx, cl
	add	edx, DWORD PTR _hold$[ebp]
	mov	DWORD PTR _hold$[ebp], edx
	mov	eax, DWORD PTR _next$[ebp]
	add	eax, 1
	mov	DWORD PTR _next$[ebp], eax
	mov	ecx, DWORD PTR _bits$[ebp]
	add	ecx, 8
	mov	DWORD PTR _bits$[ebp], ecx
	xor	edx, edx
	jne	SHORT $LN150@inflateBac
	jmp	SHORT $LN143@inflateBac
$LN140@inflateBac:
	xor	eax, eax
	jne	SHORT $LN143@inflateBac
$LN153@inflateBac:

; 431  :                         DROPBITS(here.bits);

	movzx	ecx, BYTE PTR _here$[ebp+1]
	mov	edx, DWORD PTR _hold$[ebp]
	shr	edx, cl
	mov	DWORD PTR _hold$[ebp], edx
	movzx	eax, BYTE PTR _here$[ebp+1]
	mov	ecx, DWORD PTR _bits$[ebp]
	sub	ecx, eax
	mov	DWORD PTR _bits$[ebp], ecx
	xor	edx, edx
	jne	SHORT $LN153@inflateBac

; 432  :                         len = 0;

	mov	DWORD PTR _len$[ebp], 0

; 433  :                         copy = 11 + BITS(7);

	mov	eax, DWORD PTR _hold$[ebp]
	and	eax, 127				; 0000007fH
	add	eax, 11					; 0000000bH
	mov	DWORD PTR _copy$[ebp], eax
$LN156@inflateBac:

; 434  :                         DROPBITS(7);

	mov	ecx, DWORD PTR _hold$[ebp]
	shr	ecx, 7
	mov	DWORD PTR _hold$[ebp], ecx
	mov	edx, DWORD PTR _bits$[ebp]
	sub	edx, 7
	mov	DWORD PTR _bits$[ebp], edx
	xor	eax, eax
	jne	SHORT $LN156@inflateBac
$LN287@inflateBac:

; 435  :                     }
; 436  :                     if (state->have + copy > state->nlen + state->ndist) {

	mov	ecx, DWORD PTR _state$[ebp]
	mov	edx, DWORD PTR [ecx+108]
	add	edx, DWORD PTR _copy$[ebp]
	mov	eax, DWORD PTR _state$[ebp]
	mov	ecx, DWORD PTR [eax+100]
	mov	eax, DWORD PTR _state$[ebp]
	add	ecx, DWORD PTR [eax+104]
	cmp	edx, ecx
	jbe	SHORT $LN157@inflateBac

; 437  :                         strm->msg = (char *)"invalid bit length repeat";

	mov	ecx, DWORD PTR _strm$[ebp]
	mov	DWORD PTR [ecx+24], OFFSET $SG86286

; 438  :                         state->mode = BAD;

	mov	edx, DWORD PTR _state$[ebp]
	mov	DWORD PTR [edx+4], 16209		; 00003f51H

; 439  :                         break;

	jmp	SHORT $LN93@inflateBac
$LN157@inflateBac:

; 440  :                     }
; 441  :                     while (copy--)

	mov	eax, DWORD PTR _copy$[ebp]
	mov	DWORD PTR tv465[ebp], eax
	mov	ecx, DWORD PTR _copy$[ebp]
	sub	ecx, 1
	mov	DWORD PTR _copy$[ebp], ecx
	cmp	DWORD PTR tv465[ebp], 0
	je	SHORT $LN285@inflateBac

; 442  :                         state->lens[state->have++] = (unsigned short)len;

	mov	edx, DWORD PTR _state$[ebp]
	mov	eax, DWORD PTR [edx+108]
	mov	ecx, DWORD PTR _state$[ebp]
	mov	dx, WORD PTR _len$[ebp]
	mov	WORD PTR [ecx+eax*2+116], dx
	mov	eax, DWORD PTR _state$[ebp]
	mov	ecx, DWORD PTR [eax+108]
	add	ecx, 1
	mov	edx, DWORD PTR _state$[ebp]
	mov	DWORD PTR [edx+108], ecx
	jmp	SHORT $LN157@inflateBac
$LN285@inflateBac:

; 443  :                 }
; 444  :             }

	jmp	$LN92@inflateBac
$LN93@inflateBac:

; 445  : 
; 446  :             /* handle error breaks in while */
; 447  :             if (state->mode == BAD) break;

	mov	eax, DWORD PTR _state$[ebp]
	cmp	DWORD PTR [eax+4], 16209		; 00003f51H
	jne	SHORT $LN298@inflateBac
	jmp	$LN5@inflateBac
$LN298@inflateBac:

; 448  : 
; 449  :             /* check for end-of-block code (better have one) */
; 450  :             if (state->lens[256] == 0) {

	mov	ecx, 2
	shl	ecx, 8
	mov	edx, DWORD PTR _state$[ebp]
	movzx	eax, WORD PTR [edx+ecx+116]
	test	eax, eax
	jne	SHORT $LN299@inflateBac

; 451  :                 strm->msg = (char *)"invalid code -- missing end-of-block";

	mov	ecx, DWORD PTR _strm$[ebp]
	mov	DWORD PTR [ecx+24], OFFSET $SG86289

; 452  :                 state->mode = BAD;

	mov	edx, DWORD PTR _state$[ebp]
	mov	DWORD PTR [edx+4], 16209		; 00003f51H

; 453  :                 break;

	jmp	$LN5@inflateBac
$LN299@inflateBac:

; 454  :             }
; 455  : 
; 456  :             /* build code tables -- note: do not change the lenbits or distbits
; 457  :                values here (9 and 6) without reading the comments in inftrees.h
; 458  :                concerning the ENOUGH constants, which depend on those values */
; 459  :             state->next = state->codes;

	mov	eax, DWORD PTR _state$[ebp]
	add	eax, 1332				; 00000534H
	mov	ecx, DWORD PTR _state$[ebp]
	mov	DWORD PTR [ecx+112], eax

; 460  :             state->lencode = (code const FAR *)(state->next);

	mov	edx, DWORD PTR _state$[ebp]
	mov	eax, DWORD PTR _state$[ebp]
	mov	ecx, DWORD PTR [eax+112]
	mov	DWORD PTR [edx+80], ecx

; 461  :             state->lenbits = 9;

	mov	edx, DWORD PTR _state$[ebp]
	mov	DWORD PTR [edx+88], 9

; 462  :             ret = inflate_table(LENS, state->lens, state->nlen, &(state->next),

	mov	eax, DWORD PTR _state$[ebp]
	add	eax, 756				; 000002f4H
	push	eax
	mov	ecx, DWORD PTR _state$[ebp]
	add	ecx, 88					; 00000058H
	push	ecx
	mov	edx, DWORD PTR _state$[ebp]
	add	edx, 112				; 00000070H
	push	edx
	mov	eax, DWORD PTR _state$[ebp]
	mov	ecx, DWORD PTR [eax+100]
	push	ecx
	mov	edx, DWORD PTR _state$[ebp]
	add	edx, 116				; 00000074H
	push	edx
	push	1
	call	_inflate_table
	add	esp, 24					; 00000018H
	mov	DWORD PTR _ret$[ebp], eax

; 463  :                                 &(state->lenbits), state->work);
; 464  :             if (ret) {

	cmp	DWORD PTR _ret$[ebp], 0
	je	SHORT $LN300@inflateBac

; 465  :                 strm->msg = (char *)"invalid literal/lengths set";

	mov	eax, DWORD PTR _strm$[ebp]
	mov	DWORD PTR [eax+24], OFFSET $SG86291

; 466  :                 state->mode = BAD;

	mov	ecx, DWORD PTR _state$[ebp]
	mov	DWORD PTR [ecx+4], 16209		; 00003f51H

; 467  :                 break;

	jmp	$LN5@inflateBac
$LN300@inflateBac:

; 468  :             }
; 469  :             state->distcode = (code const FAR *)(state->next);

	mov	edx, DWORD PTR _state$[ebp]
	mov	eax, DWORD PTR _state$[ebp]
	mov	ecx, DWORD PTR [eax+112]
	mov	DWORD PTR [edx+84], ecx

; 470  :             state->distbits = 6;

	mov	edx, DWORD PTR _state$[ebp]
	mov	DWORD PTR [edx+92], 6

; 471  :             ret = inflate_table(DISTS, state->lens + state->nlen, state->ndist,

	mov	eax, DWORD PTR _state$[ebp]
	add	eax, 756				; 000002f4H
	push	eax
	mov	ecx, DWORD PTR _state$[ebp]
	add	ecx, 92					; 0000005cH
	push	ecx
	mov	edx, DWORD PTR _state$[ebp]
	add	edx, 112				; 00000070H
	push	edx
	mov	eax, DWORD PTR _state$[ebp]
	mov	ecx, DWORD PTR [eax+104]
	push	ecx
	mov	edx, DWORD PTR _state$[ebp]
	mov	eax, DWORD PTR [edx+100]
	mov	ecx, DWORD PTR _state$[ebp]
	lea	edx, DWORD PTR [ecx+eax*2+116]
	push	edx
	push	2
	call	_inflate_table
	add	esp, 24					; 00000018H
	mov	DWORD PTR _ret$[ebp], eax

; 472  :                             &(state->next), &(state->distbits), state->work);
; 473  :             if (ret) {

	cmp	DWORD PTR _ret$[ebp], 0
	je	SHORT $LN301@inflateBac

; 474  :                 strm->msg = (char *)"invalid distances set";

	mov	eax, DWORD PTR _strm$[ebp]
	mov	DWORD PTR [eax+24], OFFSET $SG86293

; 475  :                 state->mode = BAD;

	mov	ecx, DWORD PTR _state$[ebp]
	mov	DWORD PTR [ecx+4], 16209		; 00003f51H

; 476  :                 break;

	jmp	$LN5@inflateBac
$LN301@inflateBac:

; 477  :             }
; 478  :             Tracev((stderr, "inflate:       codes ok\n"));
; 479  :             state->mode = LEN;

	mov	edx, DWORD PTR _state$[ebp]
	mov	DWORD PTR [edx+4], 16200		; 00003f48H
$LN302@inflateBac:

; 480  : 
; 481  :         case LEN:
; 482  :             /* use inflate_fast() if we have enough input and output */
; 483  :             if (have >= 6 && left >= 258) {

	cmp	DWORD PTR _have$[ebp], 6
	jb	$LN167@inflateBac
	cmp	DWORD PTR _left$[ebp], 258		; 00000102H
	jb	$LN167@inflateBac
$LN161@inflateBac:

; 484  :                 RESTORE();

	mov	eax, DWORD PTR _strm$[ebp]
	mov	ecx, DWORD PTR _put$[ebp]
	mov	DWORD PTR [eax+12], ecx
	mov	edx, DWORD PTR _strm$[ebp]
	mov	eax, DWORD PTR _left$[ebp]
	mov	DWORD PTR [edx+16], eax
	mov	ecx, DWORD PTR _strm$[ebp]
	mov	edx, DWORD PTR _next$[ebp]
	mov	DWORD PTR [ecx], edx
	mov	eax, DWORD PTR _strm$[ebp]
	mov	ecx, DWORD PTR _have$[ebp]
	mov	DWORD PTR [eax+4], ecx
	mov	edx, DWORD PTR _state$[ebp]
	mov	eax, DWORD PTR _hold$[ebp]
	mov	DWORD PTR [edx+60], eax
	mov	ecx, DWORD PTR _state$[ebp]
	mov	edx, DWORD PTR _bits$[ebp]
	mov	DWORD PTR [ecx+64], edx
	xor	eax, eax
	jne	SHORT $LN161@inflateBac

; 485  :                 if (state->whave < state->wsize)

	mov	ecx, DWORD PTR _state$[ebp]
	mov	edx, DWORD PTR _state$[ebp]
	mov	eax, DWORD PTR [ecx+48]
	cmp	eax, DWORD PTR [edx+44]
	jae	SHORT $LN304@inflateBac

; 486  :                     state->whave = state->wsize - left;

	mov	ecx, DWORD PTR _state$[ebp]
	mov	edx, DWORD PTR [ecx+44]
	sub	edx, DWORD PTR _left$[ebp]
	mov	eax, DWORD PTR _state$[ebp]
	mov	DWORD PTR [eax+48], edx
$LN304@inflateBac:

; 487  :                 inflate_fast(strm, state->wsize);

	mov	ecx, DWORD PTR _state$[ebp]
	mov	edx, DWORD PTR [ecx+44]
	push	edx
	mov	eax, DWORD PTR _strm$[ebp]
	push	eax
	call	_inflate_fast
	add	esp, 8
$LN164@inflateBac:

; 488  :                 LOAD();

	mov	ecx, DWORD PTR _strm$[ebp]
	mov	edx, DWORD PTR [ecx+12]
	mov	DWORD PTR _put$[ebp], edx
	mov	eax, DWORD PTR _strm$[ebp]
	mov	ecx, DWORD PTR [eax+16]
	mov	DWORD PTR _left$[ebp], ecx
	mov	edx, DWORD PTR _strm$[ebp]
	mov	eax, DWORD PTR [edx]
	mov	DWORD PTR _next$[ebp], eax
	mov	ecx, DWORD PTR _strm$[ebp]
	mov	edx, DWORD PTR [ecx+4]
	mov	DWORD PTR _have$[ebp], edx
	mov	eax, DWORD PTR _state$[ebp]
	mov	ecx, DWORD PTR [eax+60]
	mov	DWORD PTR _hold$[ebp], ecx
	mov	edx, DWORD PTR _state$[ebp]
	mov	eax, DWORD PTR [edx+64]
	mov	DWORD PTR _bits$[ebp], eax
	xor	ecx, ecx
	jne	SHORT $LN164@inflateBac

; 489  :                 break;

	jmp	$LN5@inflateBac
$LN167@inflateBac:

; 490  :             }
; 491  : 
; 492  :             /* get a literal, length, or end-of-block code */
; 493  :             for (;;) {
; 494  :                 here = state->lencode[BITS(state->lenbits)];

	mov	edx, DWORD PTR _state$[ebp]
	mov	eax, 1
	mov	ecx, DWORD PTR [edx+88]
	shl	eax, cl
	sub	eax, 1
	and	eax, DWORD PTR _hold$[ebp]
	mov	ecx, DWORD PTR _state$[ebp]
	mov	edx, DWORD PTR [ecx+80]
	mov	eax, DWORD PTR [edx+eax*4]
	mov	DWORD PTR _here$[ebp], eax

; 495  :                 if ((unsigned)(here.bits) <= bits) break;

	movzx	ecx, BYTE PTR _here$[ebp+1]
	cmp	ecx, DWORD PTR _bits$[ebp]
	ja	SHORT $LN173@inflateBac
	jmp	SHORT $LN166@inflateBac
$LN173@inflateBac:

; 496  :                 PULLBYTE();

	cmp	DWORD PTR _have$[ebp], 0
	jne	SHORT $LN171@inflateBac
	lea	edx, DWORD PTR _next$[ebp]
	push	edx
	mov	eax, DWORD PTR _in_desc$[ebp]
	push	eax
	call	DWORD PTR _in$[ebp]
	add	esp, 8
	mov	DWORD PTR _have$[ebp], eax
	cmp	DWORD PTR _have$[ebp], 0
	jne	SHORT $LN171@inflateBac
	mov	DWORD PTR _next$[ebp], 0
	mov	DWORD PTR _ret$[ebp], -5		; fffffffbH
	jmp	$inf_leave$350
$LN171@inflateBac:
	xor	ecx, ecx
	jne	SHORT $LN173@inflateBac
	mov	edx, DWORD PTR _have$[ebp]
	sub	edx, 1
	mov	DWORD PTR _have$[ebp], edx
	mov	eax, DWORD PTR _next$[ebp]
	movzx	edx, BYTE PTR [eax]
	mov	ecx, DWORD PTR _bits$[ebp]
	shl	edx, cl
	add	edx, DWORD PTR _hold$[ebp]
	mov	DWORD PTR _hold$[ebp], edx
	mov	eax, DWORD PTR _next$[ebp]
	add	eax, 1
	mov	DWORD PTR _next$[ebp], eax
	mov	ecx, DWORD PTR _bits$[ebp]
	add	ecx, 8
	mov	DWORD PTR _bits$[ebp], ecx
	xor	edx, edx
	jne	SHORT $LN173@inflateBac

; 497  :             }

	jmp	$LN167@inflateBac
$LN166@inflateBac:

; 498  :             if (here.op && (here.op & 0xf0) == 0) {

	movzx	eax, BYTE PTR _here$[ebp]
	test	eax, eax
	je	$LN188@inflateBac
	movzx	ecx, BYTE PTR _here$[ebp]
	and	ecx, 240				; 000000f0H
	jne	$LN188@inflateBac

; 499  :                 last = here;

	mov	edx, DWORD PTR _here$[ebp]
	mov	DWORD PTR _last$[ebp], edx
$LN176@inflateBac:

; 500  :                 for (;;) {
; 501  :                     here = state->lencode[last.val +

	movzx	eax, WORD PTR _last$[ebp+2]
	movzx	ecx, BYTE PTR _last$[ebp+1]
	movzx	edx, BYTE PTR _last$[ebp]
	add	ecx, edx
	mov	edx, 1
	shl	edx, cl
	sub	edx, 1
	and	edx, DWORD PTR _hold$[ebp]
	movzx	ecx, BYTE PTR _last$[ebp+1]
	shr	edx, cl
	add	eax, edx
	mov	ecx, DWORD PTR _state$[ebp]
	mov	edx, DWORD PTR [ecx+80]
	mov	eax, DWORD PTR [edx+eax*4]
	mov	DWORD PTR _here$[ebp], eax

; 502  :                             (BITS(last.bits + last.op) >> last.bits)];
; 503  :                     if ((unsigned)(last.bits + here.bits) <= bits) break;

	movzx	ecx, BYTE PTR _last$[ebp+1]
	movzx	edx, BYTE PTR _here$[ebp+1]
	add	ecx, edx
	cmp	ecx, DWORD PTR _bits$[ebp]
	ja	SHORT $LN182@inflateBac
	jmp	SHORT $LN185@inflateBac
$LN182@inflateBac:

; 504  :                     PULLBYTE();

	cmp	DWORD PTR _have$[ebp], 0
	jne	SHORT $LN180@inflateBac
	lea	eax, DWORD PTR _next$[ebp]
	push	eax
	mov	ecx, DWORD PTR _in_desc$[ebp]
	push	ecx
	call	DWORD PTR _in$[ebp]
	add	esp, 8
	mov	DWORD PTR _have$[ebp], eax
	cmp	DWORD PTR _have$[ebp], 0
	jne	SHORT $LN180@inflateBac
	mov	DWORD PTR _next$[ebp], 0
	mov	DWORD PTR _ret$[ebp], -5		; fffffffbH
	jmp	$inf_leave$350
$LN180@inflateBac:
	xor	edx, edx
	jne	SHORT $LN182@inflateBac
	mov	eax, DWORD PTR _have$[ebp]
	sub	eax, 1
	mov	DWORD PTR _have$[ebp], eax
	mov	ecx, DWORD PTR _next$[ebp]
	movzx	edx, BYTE PTR [ecx]
	mov	ecx, DWORD PTR _bits$[ebp]
	shl	edx, cl
	add	edx, DWORD PTR _hold$[ebp]
	mov	DWORD PTR _hold$[ebp], edx
	mov	eax, DWORD PTR _next$[ebp]
	add	eax, 1
	mov	DWORD PTR _next$[ebp], eax
	mov	ecx, DWORD PTR _bits$[ebp]
	add	ecx, 8
	mov	DWORD PTR _bits$[ebp], ecx
	xor	edx, edx
	jne	SHORT $LN182@inflateBac

; 505  :                 }

	jmp	$LN176@inflateBac
$LN185@inflateBac:

; 506  :                 DROPBITS(last.bits);

	movzx	ecx, BYTE PTR _last$[ebp+1]
	mov	eax, DWORD PTR _hold$[ebp]
	shr	eax, cl
	mov	DWORD PTR _hold$[ebp], eax
	movzx	ecx, BYTE PTR _last$[ebp+1]
	mov	edx, DWORD PTR _bits$[ebp]
	sub	edx, ecx
	mov	DWORD PTR _bits$[ebp], edx
	xor	eax, eax
	jne	SHORT $LN185@inflateBac
$LN188@inflateBac:

; 507  :             }
; 508  :             DROPBITS(here.bits);

	movzx	ecx, BYTE PTR _here$[ebp+1]
	mov	edx, DWORD PTR _hold$[ebp]
	shr	edx, cl
	mov	DWORD PTR _hold$[ebp], edx
	movzx	eax, BYTE PTR _here$[ebp+1]
	mov	ecx, DWORD PTR _bits$[ebp]
	sub	ecx, eax
	mov	DWORD PTR _bits$[ebp], ecx
	xor	edx, edx
	jne	SHORT $LN188@inflateBac

; 509  :             state->length = (unsigned)here.val;

	movzx	eax, WORD PTR _here$[ebp+2]
	mov	ecx, DWORD PTR _state$[ebp]
	mov	DWORD PTR [ecx+68], eax

; 510  : 
; 511  :             /* process literal */
; 512  :             if (here.op == 0) {

	movzx	edx, BYTE PTR _here$[ebp]
	test	edx, edx
	jne	SHORT $LN312@inflateBac
$LN191@inflateBac:

; 513  :                 Tracevv((stderr, here.val >= 0x20 && here.val < 0x7f ?
; 514  :                         "inflate:         literal '%c'\n" :
; 515  :                         "inflate:         literal 0x%02x\n", here.val));
; 516  :                 ROOM();

	cmp	DWORD PTR _left$[ebp], 0
	jne	SHORT $LN189@inflateBac
	mov	eax, DWORD PTR _state$[ebp]
	mov	ecx, DWORD PTR [eax+56]
	mov	DWORD PTR _put$[ebp], ecx
	mov	edx, DWORD PTR _state$[ebp]
	mov	eax, DWORD PTR [edx+44]
	mov	DWORD PTR _left$[ebp], eax
	mov	ecx, DWORD PTR _state$[ebp]
	mov	edx, DWORD PTR _left$[ebp]
	mov	DWORD PTR [ecx+48], edx
	mov	eax, DWORD PTR _left$[ebp]
	push	eax
	mov	ecx, DWORD PTR _put$[ebp]
	push	ecx
	mov	edx, DWORD PTR _out_desc$[ebp]
	push	edx
	call	DWORD PTR _out$[ebp]
	add	esp, 12					; 0000000cH
	test	eax, eax
	je	SHORT $LN189@inflateBac
	mov	DWORD PTR _ret$[ebp], -5		; fffffffbH
	jmp	$inf_leave$350
$LN189@inflateBac:
	xor	eax, eax
	jne	SHORT $LN191@inflateBac

; 517  :                 *put++ = (unsigned char)(state->length);

	mov	ecx, DWORD PTR _put$[ebp]
	mov	edx, DWORD PTR _state$[ebp]
	mov	al, BYTE PTR [edx+68]
	mov	BYTE PTR [ecx], al
	mov	ecx, DWORD PTR _put$[ebp]
	add	ecx, 1
	mov	DWORD PTR _put$[ebp], ecx

; 518  :                 left--;

	mov	edx, DWORD PTR _left$[ebp]
	sub	edx, 1
	mov	DWORD PTR _left$[ebp], edx

; 519  :                 state->mode = LEN;

	mov	eax, DWORD PTR _state$[ebp]
	mov	DWORD PTR [eax+4], 16200		; 00003f48H

; 520  :                 break;

	jmp	$LN5@inflateBac
$LN312@inflateBac:

; 521  :             }
; 522  : 
; 523  :             /* process end of block */
; 524  :             if (here.op & 32) {

	movzx	ecx, BYTE PTR _here$[ebp]
	and	ecx, 32					; 00000020H
	je	SHORT $LN315@inflateBac

; 525  :                 Tracevv((stderr, "inflate:         end of block\n"));
; 526  :                 state->mode = TYPE;

	mov	edx, DWORD PTR _state$[ebp]
	mov	DWORD PTR [edx+4], 16191		; 00003f3fH

; 527  :                 break;

	jmp	$LN5@inflateBac
$LN315@inflateBac:

; 528  :             }
; 529  : 
; 530  :             /* invalid code */
; 531  :             if (here.op & 64) {

	movzx	eax, BYTE PTR _here$[ebp]
	and	eax, 64					; 00000040H
	je	SHORT $LN316@inflateBac

; 532  :                 strm->msg = (char *)"invalid literal/length code";

	mov	ecx, DWORD PTR _strm$[ebp]
	mov	DWORD PTR [ecx+24], OFFSET $SG86309

; 533  :                 state->mode = BAD;

	mov	edx, DWORD PTR _state$[ebp]
	mov	DWORD PTR [edx+4], 16209		; 00003f51H

; 534  :                 break;

	jmp	$LN5@inflateBac
$LN316@inflateBac:

; 535  :             }
; 536  : 
; 537  :             /* length code -- get extra bits, if any */
; 538  :             state->extra = (unsigned)(here.op) & 15;

	movzx	eax, BYTE PTR _here$[ebp]
	and	eax, 15					; 0000000fH
	mov	ecx, DWORD PTR _state$[ebp]
	mov	DWORD PTR [ecx+76], eax

; 539  :             if (state->extra != 0) {

	mov	edx, DWORD PTR _state$[ebp]
	cmp	DWORD PTR [edx+76], 0
	je	$LN208@inflateBac
$LN195@inflateBac:

; 540  :                 NEEDBITS(state->extra);

	mov	eax, DWORD PTR _state$[ebp]
	mov	ecx, DWORD PTR _bits$[ebp]
	cmp	ecx, DWORD PTR [eax+76]
	jae	SHORT $LN192@inflateBac
$LN202@inflateBac:
	cmp	DWORD PTR _have$[ebp], 0
	jne	SHORT $LN200@inflateBac
	lea	edx, DWORD PTR _next$[ebp]
	push	edx
	mov	eax, DWORD PTR _in_desc$[ebp]
	push	eax
	call	DWORD PTR _in$[ebp]
	add	esp, 8
	mov	DWORD PTR _have$[ebp], eax
	cmp	DWORD PTR _have$[ebp], 0
	jne	SHORT $LN200@inflateBac
	mov	DWORD PTR _next$[ebp], 0
	mov	DWORD PTR _ret$[ebp], -5		; fffffffbH
	jmp	$inf_leave$350
$LN200@inflateBac:
	xor	ecx, ecx
	jne	SHORT $LN202@inflateBac
	mov	edx, DWORD PTR _have$[ebp]
	sub	edx, 1
	mov	DWORD PTR _have$[ebp], edx
	mov	eax, DWORD PTR _next$[ebp]
	movzx	edx, BYTE PTR [eax]
	mov	ecx, DWORD PTR _bits$[ebp]
	shl	edx, cl
	add	edx, DWORD PTR _hold$[ebp]
	mov	DWORD PTR _hold$[ebp], edx
	mov	eax, DWORD PTR _next$[ebp]
	add	eax, 1
	mov	DWORD PTR _next$[ebp], eax
	mov	ecx, DWORD PTR _bits$[ebp]
	add	ecx, 8
	mov	DWORD PTR _bits$[ebp], ecx
	xor	edx, edx
	jne	SHORT $LN202@inflateBac
	jmp	SHORT $LN195@inflateBac
$LN192@inflateBac:
	xor	eax, eax
	jne	SHORT $LN195@inflateBac

; 541  :                 state->length += BITS(state->extra);

	mov	ecx, DWORD PTR _state$[ebp]
	mov	edx, 1
	mov	ecx, DWORD PTR [ecx+76]
	shl	edx, cl
	sub	edx, 1
	and	edx, DWORD PTR _hold$[ebp]
	mov	eax, DWORD PTR _state$[ebp]
	add	edx, DWORD PTR [eax+68]
	mov	ecx, DWORD PTR _state$[ebp]
	mov	DWORD PTR [ecx+68], edx
$LN205@inflateBac:

; 542  :                 DROPBITS(state->extra);

	mov	edx, DWORD PTR _state$[ebp]
	mov	eax, DWORD PTR _hold$[ebp]
	mov	ecx, DWORD PTR [edx+76]
	shr	eax, cl
	mov	DWORD PTR _hold$[ebp], eax
	mov	ecx, DWORD PTR _state$[ebp]
	mov	edx, DWORD PTR _bits$[ebp]
	sub	edx, DWORD PTR [ecx+76]
	mov	DWORD PTR _bits$[ebp], edx
	xor	eax, eax
	jne	SHORT $LN205@inflateBac
$LN208@inflateBac:

; 543  :             }
; 544  :             Tracevv((stderr, "inflate:         length %u\n", state->length));
; 545  : 
; 546  :             /* get distance code */
; 547  :             for (;;) {
; 548  :                 here = state->distcode[BITS(state->distbits)];

	mov	ecx, DWORD PTR _state$[ebp]
	mov	edx, 1
	mov	ecx, DWORD PTR [ecx+92]
	shl	edx, cl
	sub	edx, 1
	and	edx, DWORD PTR _hold$[ebp]
	mov	eax, DWORD PTR _state$[ebp]
	mov	ecx, DWORD PTR [eax+84]
	mov	edx, DWORD PTR [ecx+edx*4]
	mov	DWORD PTR _here$[ebp], edx

; 549  :                 if ((unsigned)(here.bits) <= bits) break;

	movzx	eax, BYTE PTR _here$[ebp+1]
	cmp	eax, DWORD PTR _bits$[ebp]
	ja	SHORT $LN214@inflateBac
	jmp	SHORT $LN207@inflateBac
$LN214@inflateBac:

; 550  :                 PULLBYTE();

	cmp	DWORD PTR _have$[ebp], 0
	jne	SHORT $LN212@inflateBac
	lea	ecx, DWORD PTR _next$[ebp]
	push	ecx
	mov	edx, DWORD PTR _in_desc$[ebp]
	push	edx
	call	DWORD PTR _in$[ebp]
	add	esp, 8
	mov	DWORD PTR _have$[ebp], eax
	cmp	DWORD PTR _have$[ebp], 0
	jne	SHORT $LN212@inflateBac
	mov	DWORD PTR _next$[ebp], 0
	mov	DWORD PTR _ret$[ebp], -5		; fffffffbH
	jmp	$inf_leave$350
$LN212@inflateBac:
	xor	eax, eax
	jne	SHORT $LN214@inflateBac
	mov	ecx, DWORD PTR _have$[ebp]
	sub	ecx, 1
	mov	DWORD PTR _have$[ebp], ecx
	mov	edx, DWORD PTR _next$[ebp]
	movzx	eax, BYTE PTR [edx]
	mov	ecx, DWORD PTR _bits$[ebp]
	shl	eax, cl
	add	eax, DWORD PTR _hold$[ebp]
	mov	DWORD PTR _hold$[ebp], eax
	mov	ecx, DWORD PTR _next$[ebp]
	add	ecx, 1
	mov	DWORD PTR _next$[ebp], ecx
	mov	edx, DWORD PTR _bits$[ebp]
	add	edx, 8
	mov	DWORD PTR _bits$[ebp], edx
	xor	eax, eax
	jne	SHORT $LN214@inflateBac

; 551  :             }

	jmp	$LN208@inflateBac
$LN207@inflateBac:

; 552  :             if ((here.op & 0xf0) == 0) {

	movzx	ecx, BYTE PTR _here$[ebp]
	and	ecx, 240				; 000000f0H
	jne	$LN229@inflateBac

; 553  :                 last = here;

	mov	edx, DWORD PTR _here$[ebp]
	mov	DWORD PTR _last$[ebp], edx
$LN217@inflateBac:

; 554  :                 for (;;) {
; 555  :                     here = state->distcode[last.val +

	movzx	eax, WORD PTR _last$[ebp+2]
	movzx	ecx, BYTE PTR _last$[ebp+1]
	movzx	edx, BYTE PTR _last$[ebp]
	add	ecx, edx
	mov	edx, 1
	shl	edx, cl
	sub	edx, 1
	and	edx, DWORD PTR _hold$[ebp]
	movzx	ecx, BYTE PTR _last$[ebp+1]
	shr	edx, cl
	add	eax, edx
	mov	ecx, DWORD PTR _state$[ebp]
	mov	edx, DWORD PTR [ecx+84]
	mov	eax, DWORD PTR [edx+eax*4]
	mov	DWORD PTR _here$[ebp], eax

; 556  :                             (BITS(last.bits + last.op) >> last.bits)];
; 557  :                     if ((unsigned)(last.bits + here.bits) <= bits) break;

	movzx	ecx, BYTE PTR _last$[ebp+1]
	movzx	edx, BYTE PTR _here$[ebp+1]
	add	ecx, edx
	cmp	ecx, DWORD PTR _bits$[ebp]
	ja	SHORT $LN223@inflateBac
	jmp	SHORT $LN226@inflateBac
$LN223@inflateBac:

; 558  :                     PULLBYTE();

	cmp	DWORD PTR _have$[ebp], 0
	jne	SHORT $LN221@inflateBac
	lea	eax, DWORD PTR _next$[ebp]
	push	eax
	mov	ecx, DWORD PTR _in_desc$[ebp]
	push	ecx
	call	DWORD PTR _in$[ebp]
	add	esp, 8
	mov	DWORD PTR _have$[ebp], eax
	cmp	DWORD PTR _have$[ebp], 0
	jne	SHORT $LN221@inflateBac
	mov	DWORD PTR _next$[ebp], 0
	mov	DWORD PTR _ret$[ebp], -5		; fffffffbH
	jmp	$inf_leave$350
$LN221@inflateBac:
	xor	edx, edx
	jne	SHORT $LN223@inflateBac
	mov	eax, DWORD PTR _have$[ebp]
	sub	eax, 1
	mov	DWORD PTR _have$[ebp], eax
	mov	ecx, DWORD PTR _next$[ebp]
	movzx	edx, BYTE PTR [ecx]
	mov	ecx, DWORD PTR _bits$[ebp]
	shl	edx, cl
	add	edx, DWORD PTR _hold$[ebp]
	mov	DWORD PTR _hold$[ebp], edx
	mov	eax, DWORD PTR _next$[ebp]
	add	eax, 1
	mov	DWORD PTR _next$[ebp], eax
	mov	ecx, DWORD PTR _bits$[ebp]
	add	ecx, 8
	mov	DWORD PTR _bits$[ebp], ecx
	xor	edx, edx
	jne	SHORT $LN223@inflateBac

; 559  :                 }

	jmp	$LN217@inflateBac
$LN226@inflateBac:

; 560  :                 DROPBITS(last.bits);

	movzx	ecx, BYTE PTR _last$[ebp+1]
	mov	eax, DWORD PTR _hold$[ebp]
	shr	eax, cl
	mov	DWORD PTR _hold$[ebp], eax
	movzx	ecx, BYTE PTR _last$[ebp+1]
	mov	edx, DWORD PTR _bits$[ebp]
	sub	edx, ecx
	mov	DWORD PTR _bits$[ebp], edx
	xor	eax, eax
	jne	SHORT $LN226@inflateBac
$LN229@inflateBac:

; 561  :             }
; 562  :             DROPBITS(here.bits);

	movzx	ecx, BYTE PTR _here$[ebp+1]
	mov	edx, DWORD PTR _hold$[ebp]
	shr	edx, cl
	mov	DWORD PTR _hold$[ebp], edx
	movzx	eax, BYTE PTR _here$[ebp+1]
	mov	ecx, DWORD PTR _bits$[ebp]
	sub	ecx, eax
	mov	DWORD PTR _bits$[ebp], ecx
	xor	edx, edx
	jne	SHORT $LN229@inflateBac

; 563  :             if (here.op & 64) {

	movzx	eax, BYTE PTR _here$[ebp]
	and	eax, 64					; 00000040H
	je	SHORT $LN327@inflateBac

; 564  :                 strm->msg = (char *)"invalid distance code";

	mov	ecx, DWORD PTR _strm$[ebp]
	mov	DWORD PTR [ecx+24], OFFSET $SG86321

; 565  :                 state->mode = BAD;

	mov	edx, DWORD PTR _state$[ebp]
	mov	DWORD PTR [edx+4], 16209		; 00003f51H

; 566  :                 break;

	jmp	$LN5@inflateBac
$LN327@inflateBac:

; 567  :             }
; 568  :             state->offset = (unsigned)here.val;

	movzx	eax, WORD PTR _here$[ebp+2]
	mov	ecx, DWORD PTR _state$[ebp]
	mov	DWORD PTR [ecx+72], eax

; 569  : 
; 570  :             /* get distance extra bits, if any */
; 571  :             state->extra = (unsigned)(here.op) & 15;

	movzx	edx, BYTE PTR _here$[ebp]
	and	edx, 15					; 0000000fH
	mov	eax, DWORD PTR _state$[ebp]
	mov	DWORD PTR [eax+76], edx

; 572  :             if (state->extra != 0) {

	mov	ecx, DWORD PTR _state$[ebp]
	cmp	DWORD PTR [ecx+76], 0
	je	$LN328@inflateBac
$LN233@inflateBac:

; 573  :                 NEEDBITS(state->extra);

	mov	edx, DWORD PTR _state$[ebp]
	mov	eax, DWORD PTR _bits$[ebp]
	cmp	eax, DWORD PTR [edx+76]
	jae	SHORT $LN230@inflateBac
$LN240@inflateBac:
	cmp	DWORD PTR _have$[ebp], 0
	jne	SHORT $LN238@inflateBac
	lea	ecx, DWORD PTR _next$[ebp]
	push	ecx
	mov	edx, DWORD PTR _in_desc$[ebp]
	push	edx
	call	DWORD PTR _in$[ebp]
	add	esp, 8
	mov	DWORD PTR _have$[ebp], eax
	cmp	DWORD PTR _have$[ebp], 0
	jne	SHORT $LN238@inflateBac
	mov	DWORD PTR _next$[ebp], 0
	mov	DWORD PTR _ret$[ebp], -5		; fffffffbH
	jmp	$inf_leave$350
$LN238@inflateBac:
	xor	eax, eax
	jne	SHORT $LN240@inflateBac
	mov	ecx, DWORD PTR _have$[ebp]
	sub	ecx, 1
	mov	DWORD PTR _have$[ebp], ecx
	mov	edx, DWORD PTR _next$[ebp]
	movzx	eax, BYTE PTR [edx]
	mov	ecx, DWORD PTR _bits$[ebp]
	shl	eax, cl
	add	eax, DWORD PTR _hold$[ebp]
	mov	DWORD PTR _hold$[ebp], eax
	mov	ecx, DWORD PTR _next$[ebp]
	add	ecx, 1
	mov	DWORD PTR _next$[ebp], ecx
	mov	edx, DWORD PTR _bits$[ebp]
	add	edx, 8
	mov	DWORD PTR _bits$[ebp], edx
	xor	eax, eax
	jne	SHORT $LN240@inflateBac
	jmp	SHORT $LN233@inflateBac
$LN230@inflateBac:
	xor	ecx, ecx
	jne	SHORT $LN233@inflateBac

; 574  :                 state->offset += BITS(state->extra);

	mov	edx, DWORD PTR _state$[ebp]
	mov	eax, 1
	mov	ecx, DWORD PTR [edx+76]
	shl	eax, cl
	sub	eax, 1
	and	eax, DWORD PTR _hold$[ebp]
	mov	ecx, DWORD PTR _state$[ebp]
	add	eax, DWORD PTR [ecx+72]
	mov	edx, DWORD PTR _state$[ebp]
	mov	DWORD PTR [edx+72], eax
$LN243@inflateBac:

; 575  :                 DROPBITS(state->extra);

	mov	eax, DWORD PTR _state$[ebp]
	mov	edx, DWORD PTR _hold$[ebp]
	mov	ecx, DWORD PTR [eax+76]
	shr	edx, cl
	mov	DWORD PTR _hold$[ebp], edx
	mov	eax, DWORD PTR _state$[ebp]
	mov	ecx, DWORD PTR _bits$[ebp]
	sub	ecx, DWORD PTR [eax+76]
	mov	DWORD PTR _bits$[ebp], ecx
	xor	edx, edx
	jne	SHORT $LN243@inflateBac
$LN328@inflateBac:

; 576  :             }
; 577  :             if (state->offset > state->wsize - (state->whave < state->wsize ?

	mov	eax, DWORD PTR _state$[ebp]
	mov	ecx, DWORD PTR _state$[ebp]
	mov	edx, DWORD PTR [eax+48]
	cmp	edx, DWORD PTR [ecx+44]
	jae	SHORT $LN345@inflateBac
	mov	eax, DWORD PTR _left$[ebp]
	mov	DWORD PTR tv790[ebp], eax
	jmp	SHORT $LN346@inflateBac
$LN345@inflateBac:
	mov	DWORD PTR tv790[ebp], 0
$LN346@inflateBac:
	mov	ecx, DWORD PTR _state$[ebp]
	mov	edx, DWORD PTR [ecx+44]
	sub	edx, DWORD PTR tv790[ebp]
	mov	eax, DWORD PTR _state$[ebp]
	cmp	DWORD PTR [eax+72], edx
	jbe	SHORT $LN249@inflateBac

; 578  :                                                 left : 0)) {
; 579  :                 strm->msg = (char *)"invalid distance too far back";

	mov	ecx, DWORD PTR _strm$[ebp]
	mov	DWORD PTR [ecx+24], OFFSET $SG86326

; 580  :                 state->mode = BAD;

	mov	edx, DWORD PTR _state$[ebp]
	mov	DWORD PTR [edx+4], 16209		; 00003f51H

; 581  :                 break;

	jmp	$LN5@inflateBac
$LN249@inflateBac:

; 582  :             }
; 583  :             Tracevv((stderr, "inflate:         distance %u\n", state->offset));
; 584  : 
; 585  :             /* copy match from window to output */
; 586  :             do {
; 587  :                 ROOM();

	cmp	DWORD PTR _left$[ebp], 0
	jne	SHORT $LN247@inflateBac
	mov	eax, DWORD PTR _state$[ebp]
	mov	ecx, DWORD PTR [eax+56]
	mov	DWORD PTR _put$[ebp], ecx
	mov	edx, DWORD PTR _state$[ebp]
	mov	eax, DWORD PTR [edx+44]
	mov	DWORD PTR _left$[ebp], eax
	mov	ecx, DWORD PTR _state$[ebp]
	mov	edx, DWORD PTR _left$[ebp]
	mov	DWORD PTR [ecx+48], edx
	mov	eax, DWORD PTR _left$[ebp]
	push	eax
	mov	ecx, DWORD PTR _put$[ebp]
	push	ecx
	mov	edx, DWORD PTR _out_desc$[ebp]
	push	edx
	call	DWORD PTR _out$[ebp]
	add	esp, 12					; 0000000cH
	test	eax, eax
	je	SHORT $LN247@inflateBac
	mov	DWORD PTR _ret$[ebp], -5		; fffffffbH
	jmp	$inf_leave$350
$LN247@inflateBac:
	xor	eax, eax
	jne	SHORT $LN249@inflateBac

; 588  :                 copy = state->wsize - state->offset;

	mov	ecx, DWORD PTR _state$[ebp]
	mov	edx, DWORD PTR _state$[ebp]
	mov	eax, DWORD PTR [ecx+44]
	sub	eax, DWORD PTR [edx+72]
	mov	DWORD PTR _copy$[ebp], eax

; 589  :                 if (copy < left) {

	mov	ecx, DWORD PTR _copy$[ebp]
	cmp	ecx, DWORD PTR _left$[ebp]
	jae	SHORT $LN334@inflateBac

; 590  :                     from = put + copy;

	mov	edx, DWORD PTR _put$[ebp]
	add	edx, DWORD PTR _copy$[ebp]
	mov	DWORD PTR _from$[ebp], edx

; 591  :                     copy = left - copy;

	mov	eax, DWORD PTR _left$[ebp]
	sub	eax, DWORD PTR _copy$[ebp]
	mov	DWORD PTR _copy$[ebp], eax

; 592  :                 }

	jmp	SHORT $LN335@inflateBac
$LN334@inflateBac:

; 593  :                 else {
; 594  :                     from = put - state->offset;

	mov	ecx, DWORD PTR _state$[ebp]
	mov	edx, DWORD PTR _put$[ebp]
	sub	edx, DWORD PTR [ecx+72]
	mov	DWORD PTR _from$[ebp], edx

; 595  :                     copy = left;

	mov	eax, DWORD PTR _left$[ebp]
	mov	DWORD PTR _copy$[ebp], eax
$LN335@inflateBac:

; 596  :                 }
; 597  :                 if (copy > state->length) copy = state->length;

	mov	ecx, DWORD PTR _state$[ebp]
	mov	edx, DWORD PTR _copy$[ebp]
	cmp	edx, DWORD PTR [ecx+68]
	jbe	SHORT $LN336@inflateBac
	mov	eax, DWORD PTR _state$[ebp]
	mov	ecx, DWORD PTR [eax+68]
	mov	DWORD PTR _copy$[ebp], ecx
$LN336@inflateBac:

; 598  :                 state->length -= copy;

	mov	edx, DWORD PTR _state$[ebp]
	mov	eax, DWORD PTR [edx+68]
	sub	eax, DWORD PTR _copy$[ebp]
	mov	ecx, DWORD PTR _state$[ebp]
	mov	DWORD PTR [ecx+68], eax

; 599  :                 left -= copy;

	mov	edx, DWORD PTR _left$[ebp]
	sub	edx, DWORD PTR _copy$[ebp]
	mov	DWORD PTR _left$[ebp], edx
$LN252@inflateBac:

; 600  :                 do {
; 601  :                     *put++ = *from++;

	mov	eax, DWORD PTR _put$[ebp]
	mov	ecx, DWORD PTR _from$[ebp]
	mov	dl, BYTE PTR [ecx]
	mov	BYTE PTR [eax], dl
	mov	eax, DWORD PTR _put$[ebp]
	add	eax, 1
	mov	DWORD PTR _put$[ebp], eax
	mov	ecx, DWORD PTR _from$[ebp]
	add	ecx, 1
	mov	DWORD PTR _from$[ebp], ecx

; 602  :                 } while (--copy);

	mov	edx, DWORD PTR _copy$[ebp]
	sub	edx, 1
	mov	DWORD PTR _copy$[ebp], edx
	jne	SHORT $LN252@inflateBac

; 603  :             } while (state->length != 0);

	mov	eax, DWORD PTR _state$[ebp]
	cmp	DWORD PTR [eax+68], 0
	jne	$LN249@inflateBac

; 604  :             break;

	jmp	SHORT $LN5@inflateBac
$LN337@inflateBac:

; 605  : 
; 606  :         case DONE:
; 607  :             /* inflate stream terminated properly -- write leftover output */
; 608  :             ret = Z_STREAM_END;

	mov	DWORD PTR _ret$[ebp], 1

; 609  :             if (left < state->wsize) {

	mov	ecx, DWORD PTR _state$[ebp]
	mov	edx, DWORD PTR _left$[ebp]
	cmp	edx, DWORD PTR [ecx+44]
	jae	SHORT $LN338@inflateBac

; 610  :                 if (out(out_desc, state->window, state->wsize - left))

	mov	eax, DWORD PTR _state$[ebp]
	mov	ecx, DWORD PTR [eax+44]
	sub	ecx, DWORD PTR _left$[ebp]
	push	ecx
	mov	edx, DWORD PTR _state$[ebp]
	mov	eax, DWORD PTR [edx+56]
	push	eax
	mov	ecx, DWORD PTR _out_desc$[ebp]
	push	ecx
	call	DWORD PTR _out$[ebp]
	add	esp, 12					; 0000000cH
	test	eax, eax
	je	SHORT $LN338@inflateBac

; 611  :                     ret = Z_BUF_ERROR;

	mov	DWORD PTR _ret$[ebp], -5		; fffffffbH
$LN338@inflateBac:

; 612  :             }
; 613  :             goto inf_leave;

	jmp	SHORT $inf_leave$350
$LN340@inflateBac:

; 614  : 
; 615  :         case BAD:
; 616  :             ret = Z_DATA_ERROR;

	mov	DWORD PTR _ret$[ebp], -3		; fffffffdH

; 617  :             goto inf_leave;

	jmp	SHORT $inf_leave$350
$LN341@inflateBac:

; 618  : 
; 619  :         default:                /* can't happen, but makes compilers happy */
; 620  :             ret = Z_STREAM_ERROR;

	mov	DWORD PTR _ret$[ebp], -2		; fffffffeH

; 621  :             goto inf_leave;

	jmp	SHORT $inf_leave$350
$LN5@inflateBac:

; 622  :         }

	jmp	$LN4@inflateBac
$inf_leave$350:

; 623  : 
; 624  :     /* Return unused input */
; 625  :   inf_leave:
; 626  :     strm->next_in = next;

	mov	edx, DWORD PTR _strm$[ebp]
	mov	eax, DWORD PTR _next$[ebp]
	mov	DWORD PTR [edx], eax

; 627  :     strm->avail_in = have;

	mov	ecx, DWORD PTR _strm$[ebp]
	mov	edx, DWORD PTR _have$[ebp]
	mov	DWORD PTR [ecx+4], edx

; 628  :     return ret;

	mov	eax, DWORD PTR _ret$[ebp]
$LN1@inflateBac:

; 629  : }

	mov	esp, ebp
	pop	ebp
	ret	20					; 00000014H
	npad	2
$LN348@inflateBac:
	DD	$LN255@inflateBac
	DD	$LN31@inflateBac
	DD	$LN57@inflateBac
	DD	$LN302@inflateBac
	DD	$LN337@inflateBac
	DD	$LN340@inflateBac
	DD	$LN341@inflateBac
$LN347@inflateBac:
	DB	0
	DB	6
	DB	1
	DB	6
	DB	6
	DB	2
	DB	6
	DB	6
	DB	6
	DB	3
	DB	6
	DB	6
	DB	6
	DB	6
	DB	6
	DB	6
	DB	6
	DB	4
	DB	5
	npad	1
$LN349@inflateBac:
	DD	$LN259@inflateBac
	DD	$LN260@inflateBac
	DD	$LN261@inflateBac
	DD	$LN262@inflateBac
_inflateBack@20 ENDP
_TEXT	ENDS
END
