; Listing generated by Microsoft (R) Optimizing Compiler Version 19.27.29112.0 

	TITLE	c:\cpython\externals\zlib-1.2.11\gzclose.c
	.686P
	.XMM
	include listing.inc
	.model	flat

INCLUDELIB OLDNAMES

COMM	?_OptionsStorage@?1??__local_stdio_scanf_options@@9@9:QWORD							; `__local_stdio_scanf_options'::`2'::_OptionsStorage
COMM	?_OptionsStorage@?1??__local_stdio_printf_options@@9@9:QWORD							; `__local_stdio_printf_options'::`2'::_OptionsStorage
_DATA	ENDS
PUBLIC	_gzclose@4
; Function compile flags: /Ogtp
; File C:\CPython\externals\zlib-1.2.11\gzclose.c
;	COMDAT _gzclose@4
_TEXT	SEGMENT
_file$ = 8						; size = 4
_gzclose@4 PROC						; COMDAT

; 13   : {

  00000	55		 push	 ebp
  00001	8b ec		 mov	 ebp, esp

; 14   : #ifndef NO_GZCOMPRESS
; 15   :     gz_statep state;
; 16   : 
; 17   :     if (file == NULL)

  00003	8b 45 08	 mov	 eax, DWORD PTR _file$[ebp]
  00006	85 c0		 test	 eax, eax
  00008	75 09		 jne	 SHORT $LN2@gzclose

; 18   :         return Z_STREAM_ERROR;

  0000a	b8 fe ff ff ff	 mov	 eax, -2			; fffffffeH

; 22   : #else
; 23   :     return gzclose_r(file);
; 24   : #endif
; 25   : }

  0000f	5d		 pop	 ebp
  00010	c2 04 00	 ret	 4
$LN2@gzclose:

; 19   :     state = (gz_statep)file;
; 20   : 
; 21   :     return state->mode == GZ_READ ? gzclose_r(file) : gzclose_w(file);

  00013	81 78 10 4f 1c
	00 00		 cmp	 DWORD PTR [eax+16], 7247 ; 00001c4fH
  0001a	75 09		 jne	 SHORT $LN4@gzclose
  0001c	89 45 08	 mov	 DWORD PTR _file$[ebp], eax

; 22   : #else
; 23   :     return gzclose_r(file);
; 24   : #endif
; 25   : }

  0001f	5d		 pop	 ebp

; 19   :     state = (gz_statep)file;
; 20   : 
; 21   :     return state->mode == GZ_READ ? gzclose_r(file) : gzclose_w(file);

  00020	e9 00 00 00 00	 jmp	 _gzclose_r@4
$LN4@gzclose:
  00025	89 45 08	 mov	 DWORD PTR _file$[ebp], eax

; 22   : #else
; 23   :     return gzclose_r(file);
; 24   : #endif
; 25   : }

  00028	5d		 pop	 ebp

; 19   :     state = (gz_statep)file;
; 20   : 
; 21   :     return state->mode == GZ_READ ? gzclose_r(file) : gzclose_w(file);

  00029	e9 00 00 00 00	 jmp	 _gzclose_w@4
_gzclose@4 ENDP
_TEXT	ENDS
END
