; Listing generated by Microsoft (R) Optimizing Compiler Version 19.27.29112.0 

	TITLE	c:\cpython\externals\zlib-1.2.11\gzread.c
	.686P
	.XMM
	include listing.inc
	.model	flat

INCLUDELIB OLDNAMES

PUBLIC	??_C@_0BH@CFIIDOJD@unexpected?5end?5of?5file@	; `string'
PUBLIC	??_C@_0CH@CPOLIEKA@internal?5error?3?5inflate?5stream?5@ ; `string'
PUBLIC	??_C@_0BG@HCKBMIHF@compressed?5data?5error@	; `string'
PUBLIC	??_C@_0BP@HLDABFKK@request?5does?5not?5fit?5in?5an?5int@ ; `string'
PUBLIC	??_C@_0CB@EGGJDMIK@request?5does?5not?5fit?5in?5a?5size_@ ; `string'
PUBLIC	??_C@_0BP@IIKIGMCC@out?5of?5room?5to?5push?5characters@ ; `string'
EXTRN	__imp__strerror:PROC
EXTRN	__imp___errno:PROC
EXTRN	__imp___close:PROC
EXTRN	__imp___read:PROC
;	COMDAT ??_C@_0BP@IIKIGMCC@out?5of?5room?5to?5push?5characters@
CONST	SEGMENT
??_C@_0BP@IIKIGMCC@out?5of?5room?5to?5push?5characters@ DB 'out of room t'
	DB	'o push characters', 00H			; `string'
CONST	ENDS
;	COMDAT ??_C@_0CB@EGGJDMIK@request?5does?5not?5fit?5in?5a?5size_@
CONST	SEGMENT
??_C@_0CB@EGGJDMIK@request?5does?5not?5fit?5in?5a?5size_@ DB 'request doe'
	DB	's not fit in a size_t', 00H			; `string'
CONST	ENDS
;	COMDAT ??_C@_0BP@HLDABFKK@request?5does?5not?5fit?5in?5an?5int@
CONST	SEGMENT
??_C@_0BP@HLDABFKK@request?5does?5not?5fit?5in?5an?5int@ DB 'request does'
	DB	' not fit in an int', 00H			; `string'
CONST	ENDS
;	COMDAT ??_C@_0BG@HCKBMIHF@compressed?5data?5error@
CONST	SEGMENT
??_C@_0BG@HCKBMIHF@compressed?5data?5error@ DB 'compressed data error', 00H ; `string'
CONST	ENDS
;	COMDAT ??_C@_0CH@CPOLIEKA@internal?5error?3?5inflate?5stream?5@
CONST	SEGMENT
??_C@_0CH@CPOLIEKA@internal?5error?3?5inflate?5stream?5@ DB 'internal err'
	DB	'or: inflate stream corrupt', 00H		; `string'
CONST	ENDS
;	COMDAT ??_C@_0BH@CFIIDOJD@unexpected?5end?5of?5file@
CONST	SEGMENT
??_C@_0BH@CFIIDOJD@unexpected?5end?5of?5file@ DB 'unexpected end of file', 00H ; `string'
PUBLIC	_gzdirect@4
PUBLIC	_gzgets@12
PUBLIC	_gzungetc@8
PUBLIC	_gzgetc_@4
PUBLIC	_gzgetc@4
PUBLIC	_gzfread@16
PUBLIC	_gzread@12
PUBLIC	_gzclose_r@4
; Function compile flags: /Ogtp
; File C:\CPython\externals\zlib-1.2.11\gzread.c
;	COMDAT _gzclose_r@4
_TEXT	SEGMENT
_file$ = 8						; size = 4
_gzclose_r@4 PROC					; COMDAT

; 629  : {

  00000	55		 push	 ebp
  00001	8b ec		 mov	 ebp, esp
  00003	53		 push	 ebx

; 630  :     int ret, err;
; 631  :     gz_statep state;
; 632  : 
; 633  :     /* get internal structure */
; 634  :     if (file == NULL)

  00004	8b 5d 08	 mov	 ebx, DWORD PTR _file$[ebp]
  00007	85 db		 test	 ebx, ebx
  00009	74 70		 je	 SHORT $LN6@gzclose_r

; 635  :         return Z_STREAM_ERROR;
; 636  :     state = (gz_statep)file;
; 637  : 
; 638  :     /* check that we're reading */
; 639  :     if (state->mode != GZ_READ)

  0000b	81 7b 10 4f 1c
	00 00		 cmp	 DWORD PTR [ebx+16], 7247 ; 00001c4fH
  00012	75 67		 jne	 SHORT $LN6@gzclose_r

; 641  : 
; 642  :     /* free memory and close file */
; 643  :     if (state->size) {

  00014	83 7b 1c 00	 cmp	 DWORD PTR [ebx+28], 0
  00018	56		 push	 esi
  00019	8b 35 00 00 00
	00		 mov	 esi, DWORD PTR __imp__free
  0001f	57		 push	 edi
  00020	74 16		 je	 SHORT $LN4@gzclose_r

; 644  :         inflateEnd(&(state->strm));

  00022	8d 43 64	 lea	 eax, DWORD PTR [ebx+100]
  00025	50		 push	 eax
  00026	e8 00 00 00 00	 call	 _inflateEnd@4

; 645  :         free(state->out);

  0002b	ff 73 28	 push	 DWORD PTR [ebx+40]
  0002e	ff d6		 call	 esi

; 646  :         free(state->in);

  00030	ff 73 24	 push	 DWORD PTR [ebx+36]
  00033	ff d6		 call	 esi
  00035	83 c4 08	 add	 esp, 8
$LN4@gzclose_r:

; 647  :     }
; 648  :     err = state->err == Z_BUF_ERROR ? Z_BUF_ERROR : Z_OK;

  00038	b8 fb ff ff ff	 mov	 eax, -5			; fffffffbH
  0003d	33 ff		 xor	 edi, edi
  0003f	39 43 5c	 cmp	 DWORD PTR [ebx+92], eax

; 649  :     gz_error(state, Z_OK, NULL);

  00042	8b cb		 mov	 ecx, ebx
  00044	6a 00		 push	 0
  00046	0f 44 f8	 cmove	 edi, eax
  00049	33 d2		 xor	 edx, edx
  0004b	e8 00 00 00 00	 call	 _gz_error

; 650  :     free(state->path);

  00050	ff 73 18	 push	 DWORD PTR [ebx+24]
  00053	ff d6		 call	 esi

; 651  :     ret = close(state->fd);

  00055	ff 73 14	 push	 DWORD PTR [ebx+20]
  00058	ff 15 00 00 00
	00		 call	 DWORD PTR __imp___close

; 652  :     free(state);

  0005e	53		 push	 ebx
  0005f	8b f0		 mov	 esi, eax
  00061	ff 15 00 00 00
	00		 call	 DWORD PTR __imp__free
  00067	83 c4 10	 add	 esp, 16			; 00000010H

; 653  :     return ret ? Z_ERRNO : err;

  0006a	83 c8 ff	 or	 eax, -1
  0006d	85 f6		 test	 esi, esi
  0006f	0f 45 f8	 cmovne	 edi, eax
  00072	8b c7		 mov	 eax, edi
  00074	5f		 pop	 edi
  00075	5e		 pop	 esi
  00076	5b		 pop	 ebx

; 654  : }

  00077	5d		 pop	 ebp
  00078	c2 04 00	 ret	 4
$LN6@gzclose_r:

; 640  :         return Z_STREAM_ERROR;

  0007b	b8 fe ff ff ff	 mov	 eax, -2			; fffffffeH
  00080	5b		 pop	 ebx

; 654  : }

  00081	5d		 pop	 ebp
  00082	c2 04 00	 ret	 4
_gzclose_r@4 ENDP
_TEXT	ENDS
; Function compile flags: /Ogtp
; File C:\CPython\externals\zlib-1.2.11\gzread.c
;	COMDAT _gz_load
_TEXT	SEGMENT
_buf$1$ = -8						; size = 4
_state$1$ = -4						; size = 4
_len$ = 8						; size = 4
tv177 = 12						; size = 4
_have$ = 12						; size = 4
_gz_load PROC						; COMDAT
; _state$ = ecx
; _buf$ = edx

; 26   : {

  00000	55		 push	 ebp
  00001	8b ec		 mov	 ebp, esp
  00003	83 ec 08	 sub	 esp, 8
  00006	53		 push	 ebx

; 27   :     int ret;
; 28   :     unsigned get, max = ((unsigned)-1 >> 2) + 1;
; 29   : 
; 30   :     *have = 0;

  00007	8b 5d 08	 mov	 ebx, DWORD PTR _len$[ebp]
  0000a	56		 push	 esi
  0000b	57		 push	 edi
  0000c	8b 7d 0c	 mov	 edi, DWORD PTR _have$[ebp]
  0000f	33 f6		 xor	 esi, esi
  00011	89 55 f8	 mov	 DWORD PTR _buf$1$[ebp], edx
  00014	89 4d fc	 mov	 DWORD PTR _state$1$[ebp], ecx
  00017	c7 45 0c 00 00
	00 40		 mov	 DWORD PTR tv177[ebp], 1073741824 ; 40000000H
  0001e	c7 07 00 00 00
	00		 mov	 DWORD PTR [edi], 0
$LL4@gz_load:

; 31   :     do {
; 32   :         get = len - *have;

  00024	8b c3		 mov	 eax, ebx
  00026	2b c6		 sub	 eax, esi

; 33   :         if (get > max)

  00028	3d 00 00 00 40	 cmp	 eax, 1073741824		; 40000000H
  0002d	0f 47 45 0c	 cmova	 eax, DWORD PTR tv177[ebp]

; 34   :             get = max;
; 35   :         ret = read(state->fd, buf + *have, get);

  00031	50		 push	 eax
  00032	8d 04 16	 lea	 eax, DWORD PTR [esi+edx]
  00035	50		 push	 eax
  00036	ff 71 14	 push	 DWORD PTR [ecx+20]
  00039	ff 15 00 00 00
	00		 call	 DWORD PTR __imp___read
  0003f	83 c4 0c	 add	 esp, 12			; 0000000cH

; 36   :         if (ret <= 0)

  00042	85 c0		 test	 eax, eax
  00044	7e 10		 jle	 SHORT $LN3@gz_load

; 37   :             break;
; 38   :         *have += (unsigned)ret;

  00046	8b 37		 mov	 esi, DWORD PTR [edi]

; 39   :     } while (*have < len);

  00048	8b 4d fc	 mov	 ecx, DWORD PTR _state$1$[ebp]
  0004b	03 f0		 add	 esi, eax
  0004d	8b 55 f8	 mov	 edx, DWORD PTR _buf$1$[ebp]
  00050	89 37		 mov	 DWORD PTR [edi], esi
  00052	3b f3		 cmp	 esi, ebx
  00054	72 ce		 jb	 SHORT $LL4@gz_load
$LN3@gz_load:
  00056	5f		 pop	 edi

; 40   :     if (ret < 0) {

  00057	5e		 pop	 esi
  00058	5b		 pop	 ebx
  00059	85 c0		 test	 eax, eax
  0005b	79 24		 jns	 SHORT $LN14@gz_load

; 41   :         gz_error(state, Z_ERRNO, zstrerror());

  0005d	ff 15 00 00 00
	00		 call	 DWORD PTR __imp___errno
  00063	ff 30		 push	 DWORD PTR [eax]
  00065	ff 15 00 00 00
	00		 call	 DWORD PTR __imp__strerror
  0006b	8b 4d fc	 mov	 ecx, DWORD PTR _state$1$[ebp]
  0006e	83 ca ff	 or	 edx, -1
  00071	50		 push	 eax
  00072	e8 00 00 00 00	 call	 _gz_error
  00077	83 c4 08	 add	 esp, 8

; 42   :         return -1;

  0007a	83 c8 ff	 or	 eax, -1

; 47   : }

  0007d	8b e5		 mov	 esp, ebp
  0007f	5d		 pop	 ebp
  00080	c3		 ret	 0
$LN14@gz_load:

; 43   :     }
; 44   :     if (ret == 0)

  00081	75 0a		 jne	 SHORT $LN8@gz_load

; 45   :         state->eof = 1;

  00083	8b 4d fc	 mov	 ecx, DWORD PTR _state$1$[ebp]
  00086	c7 41 40 01 00
	00 00		 mov	 DWORD PTR [ecx+64], 1
$LN8@gz_load:

; 46   :     return 0;

  0008d	33 c0		 xor	 eax, eax

; 47   : }

  0008f	8b e5		 mov	 esp, ebp
  00091	5d		 pop	 ebp
  00092	c3		 ret	 0
_gz_load ENDP
_TEXT	ENDS
; Function compile flags: /Ogtp
; File C:\CPython\externals\zlib-1.2.11\gzread.c
;	COMDAT _gz_avail
_TEXT	SEGMENT
_got$ = -4						; size = 4
_gz_avail PROC						; COMDAT
; _state$ = ecx

; 58   : {

  00000	55		 push	 ebp
  00001	8b ec		 mov	 ebp, esp
  00003	51		 push	 ecx
  00004	56		 push	 esi
  00005	8b f1		 mov	 esi, ecx

; 59   :     unsigned got;
; 60   :     z_streamp strm = &(state->strm);
; 61   : 
; 62   :     if (state->err != Z_OK && state->err != Z_BUF_ERROR)

  00007	8b 46 5c	 mov	 eax, DWORD PTR [esi+92]
  0000a	85 c0		 test	 eax, eax
  0000c	74 05		 je	 SHORT $LN5@gz_avail
  0000e	83 f8 fb	 cmp	 eax, -5			; fffffffbH
  00011	75 46		 jne	 SHORT $LN13@gz_avail
$LN5@gz_avail:

; 63   :         return -1;
; 64   :     if (state->eof == 0) {

  00013	83 7e 40 00	 cmp	 DWORD PTR [esi+64], 0
  00017	75 54		 jne	 SHORT $LN6@gz_avail

; 65   :         if (strm->avail_in) {       /* copy what's there to the start */

  00019	57		 push	 edi
  0001a	8b 7e 68	 mov	 edi, DWORD PTR [esi+104]
  0001d	85 ff		 test	 edi, edi
  0001f	74 19		 je	 SHORT $LN3@gz_avail

; 66   :             unsigned char *p = state->in;

  00021	8b 4e 24	 mov	 ecx, DWORD PTR [esi+36]

; 67   :             unsigned const char *q = strm->next_in;

  00024	8b 56 64	 mov	 edx, DWORD PTR [esi+100]
$LL4@gz_avail:

; 68   :             unsigned n = strm->avail_in;
; 69   :             do {
; 70   :                 *p++ = *q++;

  00027	8a 02		 mov	 al, BYTE PTR [edx]
  00029	8d 49 01	 lea	 ecx, DWORD PTR [ecx+1]
  0002c	88 41 ff	 mov	 BYTE PTR [ecx-1], al
  0002f	8d 52 01	 lea	 edx, DWORD PTR [edx+1]

; 71   :             } while (--n);

  00032	83 ef 01	 sub	 edi, 1
  00035	75 f0		 jne	 SHORT $LL4@gz_avail
  00037	8b 7e 68	 mov	 edi, DWORD PTR [esi+104]
$LN3@gz_avail:

; 72   :         }
; 73   :         if (gz_load(state, state->in + strm->avail_in,
; 74   :                     state->size - strm->avail_in, &got) == -1)

  0003a	8b 56 24	 mov	 edx, DWORD PTR [esi+36]
  0003d	8d 45 fc	 lea	 eax, DWORD PTR _got$[ebp]
  00040	50		 push	 eax
  00041	8b 46 1c	 mov	 eax, DWORD PTR [esi+28]
  00044	03 d7		 add	 edx, edi
  00046	2b c7		 sub	 eax, edi
  00048	8b ce		 mov	 ecx, esi
  0004a	50		 push	 eax
  0004b	e8 00 00 00 00	 call	 _gz_load
  00050	83 c4 08	 add	 esp, 8
  00053	5f		 pop	 edi
  00054	83 f8 ff	 cmp	 eax, -1
  00057	75 08		 jne	 SHORT $LN8@gz_avail
$LN13@gz_avail:

; 75   :             return -1;

  00059	83 c8 ff	 or	 eax, -1
  0005c	5e		 pop	 esi

; 80   : }

  0005d	8b e5		 mov	 esp, ebp
  0005f	5d		 pop	 ebp
  00060	c3		 ret	 0
$LN8@gz_avail:

; 76   :         strm->avail_in += got;

  00061	8b 45 fc	 mov	 eax, DWORD PTR _got$[ebp]
  00064	01 46 68	 add	 DWORD PTR [esi+104], eax

; 77   :         strm->next_in = state->in;

  00067	8b 46 24	 mov	 eax, DWORD PTR [esi+36]
  0006a	89 46 64	 mov	 DWORD PTR [esi+100], eax
$LN6@gz_avail:

; 78   :     }
; 79   :     return 0;

  0006d	33 c0		 xor	 eax, eax
  0006f	5e		 pop	 esi

; 80   : }

  00070	8b e5		 mov	 esp, ebp
  00072	5d		 pop	 ebp
  00073	c3		 ret	 0
_gz_avail ENDP
_TEXT	ENDS
; Function compile flags: /Ogtp
; File C:\CPython\externals\zlib-1.2.11\gzread.c
;	COMDAT _gz_look
_TEXT	SEGMENT
_gz_look PROC						; COMDAT
; _state$ = ecx

; 93   : {

  00000	53		 push	 ebx
  00001	56		 push	 esi
  00002	57		 push	 edi
  00003	8b f9		 mov	 edi, ecx

; 94   :     z_streamp strm = &(state->strm);
; 95   : 
; 96   :     /* allocate read buffers and inflate memory */
; 97   :     if (state->size == 0) {

  00005	83 7f 1c 00	 cmp	 DWORD PTR [edi+28], 0
  00009	8d 5f 64	 lea	 ebx, DWORD PTR [edi+100]
  0000c	0f 85 d8 00 00
	00		 jne	 $LN5@gz_look

; 98   :         /* allocate buffers */
; 99   :         state->in = (unsigned char *)malloc(state->want);

  00012	ff 77 20	 push	 DWORD PTR [edi+32]
  00015	8b 35 00 00 00
	00		 mov	 esi, DWORD PTR __imp__malloc
  0001b	ff d6		 call	 esi
  0001d	89 47 24	 mov	 DWORD PTR [edi+36], eax
  00020	83 c4 04	 add	 esp, 4

; 100  :         state->out = (unsigned char *)malloc(state->want << 1);

  00023	8b 47 20	 mov	 eax, DWORD PTR [edi+32]
  00026	03 c0		 add	 eax, eax
  00028	50		 push	 eax
  00029	ff d6		 call	 esi
  0002b	83 c4 04	 add	 esp, 4
  0002e	89 47 28	 mov	 DWORD PTR [edi+40], eax

; 101  :         if (state->in == NULL || state->out == NULL) {

  00031	83 7f 24 00	 cmp	 DWORD PTR [edi+36], 0
  00035	0f 84 80 00 00
	00		 je	 $LN13@gz_look
  0003b	85 c0		 test	 eax, eax
  0003d	74 7c		 je	 SHORT $LN13@gz_look

; 105  :             return -1;
; 106  :         }
; 107  :         state->size = state->want;

  0003f	8b 47 20	 mov	 eax, DWORD PTR [edi+32]

; 108  : 
; 109  :         /* allocate inflate memory */
; 110  :         state->strm.zalloc = Z_NULL;
; 111  :         state->strm.zfree = Z_NULL;
; 112  :         state->strm.opaque = Z_NULL;
; 113  :         state->strm.avail_in = 0;
; 114  :         state->strm.next_in = Z_NULL;
; 115  :         if (inflateInit2(&(state->strm), 15 + 16) != Z_OK) {    /* gunzip */

  00042	6a 38		 push	 56			; 00000038H
  00044	68 00 00 00 00	 push	 OFFSET ??_C@_06CJNJFBNP@1?42?411@
  00049	6a 1f		 push	 31			; 0000001fH
  0004b	53		 push	 ebx
  0004c	89 47 1c	 mov	 DWORD PTR [edi+28], eax
  0004f	c7 87 84 00 00
	00 00 00 00 00	 mov	 DWORD PTR [edi+132], 0
  00059	c7 87 88 00 00
	00 00 00 00 00	 mov	 DWORD PTR [edi+136], 0
  00063	c7 87 8c 00 00
	00 00 00 00 00	 mov	 DWORD PTR [edi+140], 0
  0006d	c7 47 68 00 00
	00 00		 mov	 DWORD PTR [edi+104], 0
  00074	c7 03 00 00 00
	00		 mov	 DWORD PTR [ebx], 0
  0007a	e8 00 00 00 00	 call	 _inflateInit2_@16
  0007f	85 c0		 test	 eax, eax
  00081	74 67		 je	 SHORT $LN5@gz_look

; 116  :             free(state->out);

  00083	ff 77 28	 push	 DWORD PTR [edi+40]
  00086	8b 35 00 00 00
	00		 mov	 esi, DWORD PTR __imp__free
  0008c	ff d6		 call	 esi
  0008e	83 c4 04	 add	 esp, 4

; 117  :             free(state->in);

  00091	ff 77 24	 push	 DWORD PTR [edi+36]
  00094	ff d6		 call	 esi
  00096	83 c4 04	 add	 esp, 4

; 118  :             state->size = 0;

  00099	c7 47 1c 00 00
	00 00		 mov	 DWORD PTR [edi+28], 0

; 119  :             gz_error(state, Z_MEM_ERROR, "out of memory");

  000a0	ba fc ff ff ff	 mov	 edx, -4			; fffffffcH
  000a5	8b cf		 mov	 ecx, edi
  000a7	68 00 00 00 00	 push	 OFFSET ??_C@_0O@BNNCBLEN@out?5of?5memory@
  000ac	e8 00 00 00 00	 call	 _gz_error
  000b1	83 c4 04	 add	 esp, 4

; 120  :             return -1;

  000b4	83 c8 ff	 or	 eax, -1

; 167  :     return 0;
; 168  : }

  000b7	5f		 pop	 edi
  000b8	5e		 pop	 esi
  000b9	5b		 pop	 ebx
  000ba	c3		 ret	 0
$LN13@gz_look:

; 102  :             free(state->out);

  000bb	8b 35 00 00 00
	00		 mov	 esi, DWORD PTR __imp__free
  000c1	50		 push	 eax
  000c2	ff d6		 call	 esi
  000c4	83 c4 04	 add	 esp, 4

; 103  :             free(state->in);

  000c7	ff 77 24	 push	 DWORD PTR [edi+36]
  000ca	ff d6		 call	 esi
  000cc	83 c4 04	 add	 esp, 4

; 104  :             gz_error(state, Z_MEM_ERROR, "out of memory");

  000cf	ba fc ff ff ff	 mov	 edx, -4			; fffffffcH
  000d4	8b cf		 mov	 ecx, edi
  000d6	68 00 00 00 00	 push	 OFFSET ??_C@_0O@BNNCBLEN@out?5of?5memory@
  000db	e8 00 00 00 00	 call	 _gz_error
  000e0	83 c4 04	 add	 esp, 4
$LN15@gz_look:

; 167  :     return 0;
; 168  : }

  000e3	83 c8 ff	 or	 eax, -1
  000e6	5f		 pop	 edi
  000e7	5e		 pop	 esi
  000e8	5b		 pop	 ebx
  000e9	c3		 ret	 0
$LN5@gz_look:

; 121  :         }
; 122  :     }
; 123  : 
; 124  :     /* get at least the magic bytes in the input buffer */
; 125  :     if (strm->avail_in < 2) {

  000ea	8b 43 04	 mov	 eax, DWORD PTR [ebx+4]
  000ed	83 f8 02	 cmp	 eax, 2
  000f0	73 13		 jae	 SHORT $LN8@gz_look

; 126  :         if (gz_avail(state) == -1)

  000f2	8b cf		 mov	 ecx, edi
  000f4	e8 00 00 00 00	 call	 _gz_avail
  000f9	83 f8 ff	 cmp	 eax, -1
  000fc	74 e5		 je	 SHORT $LN15@gz_look

; 127  :             return -1;
; 128  :         if (strm->avail_in == 0)

  000fe	8b 43 04	 mov	 eax, DWORD PTR [ebx+4]
  00101	85 c0		 test	 eax, eax
  00103	74 7f		 je	 SHORT $LN14@gz_look
$LN8@gz_look:

; 129  :             return 0;
; 130  :     }
; 131  : 
; 132  :     /* look for gzip magic bytes -- if there, do gzip decoding (note: there is
; 133  :        a logical dilemma here when considering the case of a partially written
; 134  :        gzip file, to wit, if a single 31 byte is written, then we cannot tell
; 135  :        whether this is a single-byte file, or just a partially written gzip
; 136  :        file -- for here we assume that if a gzip file is being written, then
; 137  :        the header will be written in a single operation, so that reading a
; 138  :        single byte is sufficient indication that it is not a gzip file) */
; 139  :     if (strm->avail_in > 1 &&
; 140  :             strm->next_in[0] == 31 && strm->next_in[1] == 139) {

  00105	83 f8 01	 cmp	 eax, 1
  00108	76 27		 jbe	 SHORT $LN9@gz_look
  0010a	8b 03		 mov	 eax, DWORD PTR [ebx]
  0010c	80 38 1f	 cmp	 BYTE PTR [eax], 31	; 0000001fH
  0010f	75 20		 jne	 SHORT $LN9@gz_look
  00111	80 78 01 8b	 cmp	 BYTE PTR [eax+1], 139	; 0000008bH
  00115	75 1a		 jne	 SHORT $LN9@gz_look

; 141  :         inflateReset(strm);

  00117	53		 push	 ebx
  00118	e8 00 00 00 00	 call	 _inflateReset@4

; 142  :         state->how = GZIP;

  0011d	c7 47 30 02 00
	00 00		 mov	 DWORD PTR [edi+48], 2

; 167  :     return 0;
; 168  : }

  00124	33 c0		 xor	 eax, eax
  00126	c7 47 2c 00 00
	00 00		 mov	 DWORD PTR [edi+44], 0
  0012d	5f		 pop	 edi
  0012e	5e		 pop	 esi
  0012f	5b		 pop	 ebx
  00130	c3		 ret	 0
$LN9@gz_look:

; 143  :         state->direct = 0;
; 144  :         return 0;
; 145  :     }
; 146  : 
; 147  :     /* no gzip header -- if we were decoding gzip before, then this is trailing
; 148  :        garbage.  Ignore the trailing garbage and finish. */
; 149  :     if (state->direct == 0) {

  00131	83 7f 2c 00	 cmp	 DWORD PTR [edi+44], 0
  00135	75 1a		 jne	 SHORT $LN10@gz_look

; 150  :         strm->avail_in = 0;

  00137	c7 43 04 00 00
	00 00		 mov	 DWORD PTR [ebx+4], 0

; 167  :     return 0;
; 168  : }

  0013e	33 c0		 xor	 eax, eax
  00140	c7 47 40 01 00
	00 00		 mov	 DWORD PTR [edi+64], 1
  00147	c7 07 00 00 00
	00		 mov	 DWORD PTR [edi], 0
  0014d	5f		 pop	 edi
  0014e	5e		 pop	 esi
  0014f	5b		 pop	 ebx
  00150	c3		 ret	 0
$LN10@gz_look:

; 151  :         state->eof = 1;
; 152  :         state->x.have = 0;
; 153  :         return 0;
; 154  :     }
; 155  : 
; 156  :     /* doing raw i/o, copy any leftover input to output -- this assumes that
; 157  :        the output buffer is larger than the input buffer, which also assures
; 158  :        space for gzungetc() */
; 159  :     state->x.next = state->out;

  00151	8b 47 28	 mov	 eax, DWORD PTR [edi+40]
  00154	89 47 04	 mov	 DWORD PTR [edi+4], eax

; 160  :     if (strm->avail_in) {

  00157	8b 4b 04	 mov	 ecx, DWORD PTR [ebx+4]
  0015a	85 c9		 test	 ecx, ecx
  0015c	74 18		 je	 SHORT $LN11@gz_look

; 161  :         memcpy(state->x.next, strm->next_in, strm->avail_in);

  0015e	51		 push	 ecx
  0015f	ff 33		 push	 DWORD PTR [ebx]
  00161	50		 push	 eax
  00162	e8 00 00 00 00	 call	 _memcpy

; 162  :         state->x.have = strm->avail_in;

  00167	8b 43 04	 mov	 eax, DWORD PTR [ebx+4]
  0016a	83 c4 0c	 add	 esp, 12			; 0000000cH
  0016d	89 07		 mov	 DWORD PTR [edi], eax

; 163  :         strm->avail_in = 0;

  0016f	c7 43 04 00 00
	00 00		 mov	 DWORD PTR [ebx+4], 0
$LN11@gz_look:

; 164  :     }
; 165  :     state->how = COPY;

  00176	c7 47 30 01 00
	00 00		 mov	 DWORD PTR [edi+48], 1

; 166  :     state->direct = 1;

  0017d	c7 47 2c 01 00
	00 00		 mov	 DWORD PTR [edi+44], 1
$LN14@gz_look:

; 167  :     return 0;
; 168  : }

  00184	5f		 pop	 edi
  00185	5e		 pop	 esi
  00186	33 c0		 xor	 eax, eax
  00188	5b		 pop	 ebx
  00189	c3		 ret	 0
_gz_look ENDP
_TEXT	ENDS
; Function compile flags: /Ogtp
; File C:\CPython\externals\zlib-1.2.11\gzread.c
;	COMDAT _gz_decomp
_TEXT	SEGMENT
_had$1$ = -4						; size = 4
_gz_decomp PROC						; COMDAT
; _state$ = ecx

; 177  : {

  00000	55		 push	 ebp
  00001	8b ec		 mov	 ebp, esp
  00003	51		 push	 ecx
  00004	53		 push	 ebx
  00005	8b d9		 mov	 ebx, ecx

; 178  :     int ret = Z_OK;
; 179  :     unsigned had;
; 180  :     z_streamp strm = &(state->strm);
; 181  : 
; 182  :     /* fill output buffer up to end of deflate stream */
; 183  :     had = strm->avail_out;

  00007	8b 43 74	 mov	 eax, DWORD PTR [ebx+116]
  0000a	56		 push	 esi
  0000b	57		 push	 edi
  0000c	8d 7b 64	 lea	 edi, DWORD PTR [ebx+100]
  0000f	89 45 fc	 mov	 DWORD PTR _had$1$[ebp], eax
  00012	33 f6		 xor	 esi, esi
$LL4@gz_decomp:

; 184  :     do {
; 185  :         /* get more input for inflate() */
; 186  :         if (strm->avail_in == 0 && gz_avail(state) == -1)

  00014	83 7f 04 00	 cmp	 DWORD PTR [edi+4], 0
  00018	75 16		 jne	 SHORT $LN25@gz_decomp
  0001a	8b cb		 mov	 ecx, ebx
  0001c	e8 00 00 00 00	 call	 _gz_avail
  00021	83 f8 ff	 cmp	 eax, -1
  00024	0f 84 ce 00 00
	00		 je	 $LN17@gz_decomp

; 187  :             return -1;
; 188  :         if (strm->avail_in == 0) {

  0002a	83 7f 04 00	 cmp	 DWORD PTR [edi+4], 0
  0002e	74 34		 je	 SHORT $LN18@gz_decomp
$LN25@gz_decomp:

; 190  :             break;
; 191  :         }
; 192  : 
; 193  :         /* decompress and handle errors */
; 194  :         ret = inflate(strm, Z_NO_FLUSH);

  00030	6a 00		 push	 0
  00032	57		 push	 edi
  00033	e8 00 00 00 00	 call	 _inflate@8
  00038	8b f0		 mov	 esi, eax

; 195  :         if (ret == Z_STREAM_ERROR || ret == Z_NEED_DICT) {

  0003a	83 fe fe	 cmp	 esi, -2			; fffffffeH
  0003d	0f 84 a1 00 00
	00		 je	 $LN8@gz_decomp
  00043	83 fe 02	 cmp	 esi, 2
  00046	0f 84 98 00 00
	00		 je	 $LN8@gz_decomp

; 197  :                      "internal error: inflate stream corrupt");
; 198  :             return -1;
; 199  :         }
; 200  :         if (ret == Z_MEM_ERROR) {

  0004c	83 fe fc	 cmp	 esi, -4			; fffffffcH
  0004f	74 75		 je	 SHORT $LN20@gz_decomp

; 202  :             return -1;
; 203  :         }
; 204  :         if (ret == Z_DATA_ERROR) {              /* deflate stream invalid */

  00051	83 fe fd	 cmp	 esi, -3			; fffffffdH
  00054	74 49		 je	 SHORT $LN21@gz_decomp

; 206  :                      strm->msg == NULL ? "compressed data error" : strm->msg);
; 207  :             return -1;
; 208  :         }
; 209  :     } while (strm->avail_out && ret != Z_STREAM_END);

  00056	8b 47 10	 mov	 eax, DWORD PTR [edi+16]
  00059	85 c0		 test	 eax, eax
  0005b	74 1e		 je	 SHORT $LN3@gz_decomp
  0005d	83 fe 01	 cmp	 esi, 1
  00060	75 b2		 jne	 SHORT $LL4@gz_decomp
  00062	eb 17		 jmp	 SHORT $LN3@gz_decomp
$LN18@gz_decomp:

; 189  :             gz_error(state, Z_BUF_ERROR, "unexpected end of file");

  00064	68 00 00 00 00	 push	 OFFSET ??_C@_0BH@CFIIDOJD@unexpected?5end?5of?5file@
  00069	ba fb ff ff ff	 mov	 edx, -5			; fffffffbH
  0006e	8b cb		 mov	 ecx, ebx
  00070	e8 00 00 00 00	 call	 _gz_error
  00075	8b 47 10	 mov	 eax, DWORD PTR [edi+16]
  00078	83 c4 04	 add	 esp, 4
$LN3@gz_decomp:

; 210  : 
; 211  :     /* update available output */
; 212  :     state->x.have = had - strm->avail_out;

  0007b	8b 4d fc	 mov	 ecx, DWORD PTR _had$1$[ebp]
  0007e	2b c8		 sub	 ecx, eax
  00080	89 0b		 mov	 DWORD PTR [ebx], ecx

; 213  :     state->x.next = strm->next_out - state->x.have;

  00082	8b 47 0c	 mov	 eax, DWORD PTR [edi+12]
  00085	2b c1		 sub	 eax, ecx
  00087	89 43 04	 mov	 DWORD PTR [ebx+4], eax

; 214  : 
; 215  :     /* if the gzip stream completed successfully, look for another */
; 216  :     if (ret == Z_STREAM_END)

  0008a	83 fe 01	 cmp	 esi, 1
  0008d	75 07		 jne	 SHORT $LN12@gz_decomp

; 217  :         state->how = LOOK;

  0008f	c7 43 30 00 00
	00 00		 mov	 DWORD PTR [ebx+48], 0
$LN12@gz_decomp:

; 218  : 
; 219  :     /* good decompression */
; 220  :     return 0;

  00096	33 c0		 xor	 eax, eax

; 221  : }

  00098	5f		 pop	 edi
  00099	5e		 pop	 esi
  0009a	5b		 pop	 ebx
  0009b	8b e5		 mov	 esp, ebp
  0009d	5d		 pop	 ebp
  0009e	c3		 ret	 0
$LN21@gz_decomp:

; 205  :             gz_error(state, Z_DATA_ERROR,

  0009f	8b 47 18	 mov	 eax, DWORD PTR [edi+24]
  000a2	b9 00 00 00 00	 mov	 ecx, OFFSET ??_C@_0BG@HCKBMIHF@compressed?5data?5error@
  000a7	85 c0		 test	 eax, eax
  000a9	ba fd ff ff ff	 mov	 edx, -3			; fffffffdH
  000ae	0f 45 c8	 cmovne	 ecx, eax
  000b1	51		 push	 ecx

; 221  : }

  000b2	8b cb		 mov	 ecx, ebx
  000b4	e8 00 00 00 00	 call	 _gz_error
  000b9	83 c4 04	 add	 esp, 4
  000bc	83 c8 ff	 or	 eax, -1
  000bf	5f		 pop	 edi
  000c0	5e		 pop	 esi
  000c1	5b		 pop	 ebx
  000c2	8b e5		 mov	 esp, ebp
  000c4	5d		 pop	 ebp
  000c5	c3		 ret	 0
$LN20@gz_decomp:

; 201  :             gz_error(state, Z_MEM_ERROR, "out of memory");

  000c6	68 00 00 00 00	 push	 OFFSET ??_C@_0O@BNNCBLEN@out?5of?5memory@
  000cb	ba fc ff ff ff	 mov	 edx, -4			; fffffffcH

; 221  : }

  000d0	8b cb		 mov	 ecx, ebx
  000d2	e8 00 00 00 00	 call	 _gz_error
  000d7	83 c4 04	 add	 esp, 4
  000da	83 c8 ff	 or	 eax, -1
  000dd	5f		 pop	 edi
  000de	5e		 pop	 esi
  000df	5b		 pop	 ebx
  000e0	8b e5		 mov	 esp, ebp
  000e2	5d		 pop	 ebp
  000e3	c3		 ret	 0
$LN8@gz_decomp:

; 196  :             gz_error(state, Z_STREAM_ERROR,

  000e4	68 00 00 00 00	 push	 OFFSET ??_C@_0CH@CPOLIEKA@internal?5error?3?5inflate?5stream?5@
  000e9	ba fe ff ff ff	 mov	 edx, -2			; fffffffeH

; 221  : }

  000ee	8b cb		 mov	 ecx, ebx
  000f0	e8 00 00 00 00	 call	 _gz_error
  000f5	83 c4 04	 add	 esp, 4
$LN17@gz_decomp:
  000f8	5f		 pop	 edi
  000f9	5e		 pop	 esi
  000fa	83 c8 ff	 or	 eax, -1
  000fd	5b		 pop	 ebx
  000fe	8b e5		 mov	 esp, ebp
  00100	5d		 pop	 ebp
  00101	c3		 ret	 0
_gz_decomp ENDP
_TEXT	ENDS
; Function compile flags: /Ogtp
; File C:\CPython\externals\zlib-1.2.11\gzread.c
;	COMDAT _gz_fetch
_TEXT	SEGMENT
_gz_fetch PROC						; COMDAT
; _state$ = ecx

; 231  : {

  00000	56		 push	 esi
  00001	8b f1		 mov	 esi, ecx
$LL4@gz_fetch:

; 232  :     z_streamp strm = &(state->strm);
; 233  : 
; 234  :     do {
; 235  :         switch(state->how) {

  00003	8b 46 30	 mov	 eax, DWORD PTR [esi+48]
  00006	83 e8 00	 sub	 eax, 0
  00009	74 29		 je	 SHORT $LN7@gz_fetch
  0000b	83 e8 01	 sub	 eax, 1
  0000e	74 4b		 je	 SHORT $LN10@gz_fetch
  00010	83 e8 01	 sub	 eax, 1
  00013	75 31		 jne	 SHORT $LN2@gz_fetch

; 247  :             return 0;
; 248  :         case GZIP:      /* -> GZIP or LOOK (if end of gzip stream) */
; 249  :             strm->avail_out = state->size << 1;

  00015	8b 46 1c	 mov	 eax, DWORD PTR [esi+28]

; 250  :             strm->next_out = state->out;
; 251  :             if (gz_decomp(state) == -1)

  00018	8b ce		 mov	 ecx, esi
  0001a	03 c0		 add	 eax, eax
  0001c	89 46 74	 mov	 DWORD PTR [esi+116], eax
  0001f	8b 46 28	 mov	 eax, DWORD PTR [esi+40]
  00022	89 46 70	 mov	 DWORD PTR [esi+112], eax
  00025	e8 00 00 00 00	 call	 _gz_decomp
  0002a	83 f8 ff	 cmp	 eax, -1
  0002d	75 17		 jne	 SHORT $LN2@gz_fetch
$LN19@gz_fetch:

; 238  :                 return -1;

  0002f	83 c8 ff	 or	 eax, -1

; 255  :     return 0;
; 256  : }

  00032	5e		 pop	 esi
  00033	c3		 ret	 0
$LN7@gz_fetch:

; 236  :         case LOOK:      /* -> LOOK, COPY (only if never GZIP), or GZIP */
; 237  :             if (gz_look(state) == -1)

  00034	8b ce		 mov	 ecx, esi
  00036	e8 00 00 00 00	 call	 _gz_look
  0003b	83 f8 ff	 cmp	 eax, -1
  0003e	74 ef		 je	 SHORT $LN19@gz_fetch

; 239  :             if (state->how == LOOK)

  00040	83 7e 30 00	 cmp	 DWORD PTR [esi+48], 0
  00044	74 34		 je	 SHORT $LN14@gz_fetch
$LN2@gz_fetch:

; 252  :                 return -1;
; 253  :         }
; 254  :     } while (state->x.have == 0 && (!state->eof || strm->avail_in));

  00046	83 3e 00	 cmp	 DWORD PTR [esi], 0
  00049	75 2f		 jne	 SHORT $LN14@gz_fetch
  0004b	83 7e 40 00	 cmp	 DWORD PTR [esi+64], 0
  0004f	74 b2		 je	 SHORT $LL4@gz_fetch
  00051	83 7e 68 00	 cmp	 DWORD PTR [esi+104], 0
  00055	75 ac		 jne	 SHORT $LL4@gz_fetch

; 255  :     return 0;
; 256  : }

  00057	33 c0		 xor	 eax, eax
  00059	5e		 pop	 esi
  0005a	c3		 ret	 0
$LN10@gz_fetch:

; 240  :                 return 0;
; 241  :             break;
; 242  :         case COPY:      /* -> COPY */
; 243  :             if (gz_load(state, state->out, state->size << 1, &(state->x.have))
; 244  :                     == -1)

  0005b	8b 46 1c	 mov	 eax, DWORD PTR [esi+28]
  0005e	8b ce		 mov	 ecx, esi
  00060	8b 56 28	 mov	 edx, DWORD PTR [esi+40]
  00063	03 c0		 add	 eax, eax
  00065	56		 push	 esi
  00066	50		 push	 eax
  00067	e8 00 00 00 00	 call	 _gz_load
  0006c	83 c4 08	 add	 esp, 8
  0006f	83 f8 ff	 cmp	 eax, -1
  00072	74 bb		 je	 SHORT $LN19@gz_fetch

; 245  :                 return -1;
; 246  :             state->x.next = state->out;

  00074	8b 46 28	 mov	 eax, DWORD PTR [esi+40]
  00077	89 46 04	 mov	 DWORD PTR [esi+4], eax
$LN14@gz_fetch:

; 255  :     return 0;
; 256  : }

  0007a	33 c0		 xor	 eax, eax
  0007c	5e		 pop	 esi
  0007d	c3		 ret	 0
_gz_fetch ENDP
_TEXT	ENDS
; Function compile flags: /Ogtp
; File C:\CPython\externals\zlib-1.2.11\gzread.c
;	COMDAT _gz_skip
_TEXT	SEGMENT
_len$ = 8						; size = 8
_gz_skip PROC						; COMDAT
; _state$ = ecx

; 262  : {

  00000	55		 push	 ebp
  00001	8b ec		 mov	 ebp, esp
  00003	51		 push	 ecx
  00004	53		 push	 ebx

; 263  :     unsigned n;
; 264  : 
; 265  :     /* skip over len bytes or reach end-of-file, whichever comes first */
; 266  :     while (len)

  00005	8b 5d 0c	 mov	 ebx, DWORD PTR _len$[ebp+4]
  00008	56		 push	 esi
  00009	57		 push	 edi
  0000a	8b 7d 08	 mov	 edi, DWORD PTR _len$[ebp]
  0000d	8b f1		 mov	 esi, ecx
  0000f	8b c7		 mov	 eax, edi
  00011	0b c3		 or	 eax, ebx
  00013	74 4b		 je	 SHORT $LN3@gz_skip
$LL2@gz_skip:

; 267  :         /* skip over whatever is in output buffer */
; 268  :         if (state->x.have) {

  00015	8b 06		 mov	 eax, DWORD PTR [esi]
  00017	85 c0		 test	 eax, eax
  00019	74 27		 je	 SHORT $LN4@gz_skip

; 269  :             n = GT_OFF(state->x.have) || (z_off64_t)state->x.have > len ?

  0001b	33 c9		 xor	 ecx, ecx
  0001d	3b cb		 cmp	 ecx, ebx
  0001f	7f 0a		 jg	 SHORT $LN10@gz_skip
  00021	7c 04		 jl	 SHORT $LN17@gz_skip
  00023	3b c7		 cmp	 eax, edi
  00025	77 04		 ja	 SHORT $LN10@gz_skip
$LN17@gz_skip:
  00027	8b c8		 mov	 ecx, eax
  00029	eb 02		 jmp	 SHORT $LN11@gz_skip
$LN10@gz_skip:
  0002b	8b cf		 mov	 ecx, edi
$LN11@gz_skip:

; 270  :                 (unsigned)len : state->x.have;
; 271  :             state->x.have -= n;
; 272  :             state->x.next += n;

  0002d	01 4e 04	 add	 DWORD PTR [esi+4], ecx
  00030	2b c1		 sub	 eax, ecx

; 273  :             state->x.pos += n;

  00032	01 4e 08	 add	 DWORD PTR [esi+8], ecx
  00035	89 06		 mov	 DWORD PTR [esi], eax
  00037	83 56 0c 00	 adc	 DWORD PTR [esi+12], 0

; 274  :             len -= n;

  0003b	2b f9		 sub	 edi, ecx
  0003d	83 db 00	 sbb	 ebx, 0

; 275  :         }

  00040	eb 18		 jmp	 SHORT $LN8@gz_skip
$LN4@gz_skip:

; 276  : 
; 277  :         /* output buffer empty -- return if we're at the end of the input */
; 278  :         else if (state->eof && state->strm.avail_in == 0)

  00042	83 7e 40 00	 cmp	 DWORD PTR [esi+64], 0
  00046	74 06		 je	 SHORT $LN6@gz_skip
  00048	83 7e 68 00	 cmp	 DWORD PTR [esi+104], 0
  0004c	74 12		 je	 SHORT $LN3@gz_skip
$LN6@gz_skip:

; 279  :             break;
; 280  : 
; 281  :         /* need more data to skip -- load up output buffer */
; 282  :         else {
; 283  :             /* get more output, looking for header if required */
; 284  :             if (gz_fetch(state) == -1)

  0004e	8b ce		 mov	 ecx, esi
  00050	e8 00 00 00 00	 call	 _gz_fetch
  00055	83 f8 ff	 cmp	 eax, -1
  00058	74 0e		 je	 SHORT $LN14@gz_skip
$LN8@gz_skip:

; 263  :     unsigned n;
; 264  : 
; 265  :     /* skip over len bytes or reach end-of-file, whichever comes first */
; 266  :     while (len)

  0005a	8b c7		 mov	 eax, edi
  0005c	0b c3		 or	 eax, ebx
  0005e	75 b5		 jne	 SHORT $LL2@gz_skip
$LN3@gz_skip:

; 285  :                 return -1;
; 286  :         }
; 287  :     return 0;

  00060	33 c0		 xor	 eax, eax

; 288  : }

  00062	5f		 pop	 edi
  00063	5e		 pop	 esi
  00064	5b		 pop	 ebx
  00065	59		 pop	 ecx
  00066	5d		 pop	 ebp
  00067	c3		 ret	 0
$LN14@gz_skip:
  00068	5f		 pop	 edi
  00069	5e		 pop	 esi
  0006a	83 c8 ff	 or	 eax, -1
  0006d	5b		 pop	 ebx
  0006e	59		 pop	 ecx
  0006f	5d		 pop	 ebp
  00070	c3		 ret	 0
_gz_skip ENDP
_TEXT	ENDS
; Function compile flags: /Ogtp
; File C:\CPython\externals\zlib-1.2.11\gzread.c
;	COMDAT _gz_read
_TEXT	SEGMENT
_buf$1$ = -12						; size = 4
_n$ = -8						; size = 4
_got$1$ = -4						; size = 4
_len$ = 8						; size = 4
_gz_read PROC						; COMDAT
; _state$ = ecx
; _buf$ = edx

; 298  : {

  00000	55		 push	 ebp
  00001	8b ec		 mov	 ebp, esp
  00003	83 e4 f8	 and	 esp, -8			; fffffff8H
  00006	83 ec 0c	 sub	 esp, 12			; 0000000cH

; 299  :     z_size_t got;
; 300  :     unsigned n;
; 301  : 
; 302  :     /* if len is zero, avoid unnecessary operations */
; 303  :     if (len == 0)

  00009	8b 45 08	 mov	 eax, DWORD PTR _len$[ebp]
  0000c	89 14 24	 mov	 DWORD PTR _buf$1$[esp+12], edx
  0000f	53		 push	 ebx
  00010	56		 push	 esi
  00011	8b f1		 mov	 esi, ecx
  00013	57		 push	 edi
  00014	85 c0		 test	 eax, eax
  00016	0f 84 22 01 00
	00		 je	 $LN27@gz_read

; 304  :         return 0;
; 305  : 
; 306  :     /* process a skip request */
; 307  :     if (state->seek) {

  0001c	83 7e 58 00	 cmp	 DWORD PTR [esi+88], 0
  00020	74 25		 je	 SHORT $LN7@gz_read

; 308  :         state->seek = 0;
; 309  :         if (gz_skip(state, state->skip) == -1)

  00022	ff 76 54	 push	 DWORD PTR [esi+84]
  00025	c7 46 58 00 00
	00 00		 mov	 DWORD PTR [esi+88], 0
  0002c	ff 76 50	 push	 DWORD PTR [esi+80]
  0002f	e8 00 00 00 00	 call	 _gz_skip
  00034	83 c4 08	 add	 esp, 8
  00037	83 f8 ff	 cmp	 eax, -1
  0003a	0f 84 fe 00 00
	00		 je	 $LN27@gz_read
  00040	8b 45 08	 mov	 eax, DWORD PTR _len$[ebp]
  00043	8b 54 24 0c	 mov	 edx, DWORD PTR _buf$1$[esp+24]
$LN7@gz_read:

; 310  :             return 0;
; 311  :     }
; 312  : 
; 313  :     /* get len bytes to buf, or less than len if at the end */
; 314  :     got = 0;

  00047	33 c9		 xor	 ecx, ecx
  00049	89 4c 24 14	 mov	 DWORD PTR _got$1$[esp+24], ecx
  0004d	0f 1f 00	 npad	 3
$LL4@gz_read:

; 315  :     do {
; 316  :         /* set n to the maximum amount of len that fits in an unsigned int */
; 317  :         n = -1;

  00050	83 cf ff	 or	 edi, -1
  00053	83 cb ff	 or	 ebx, -1
  00056	89 7c 24 10	 mov	 DWORD PTR _n$[esp+24], edi
  0005a	83 f8 ff	 cmp	 eax, -1

; 318  :         if (n > len)

  0005d	73 08		 jae	 SHORT $LN8@gz_read

; 319  :             n = len;

  0005f	8b f8		 mov	 edi, eax
  00061	8b d8		 mov	 ebx, eax
  00063	89 7c 24 10	 mov	 DWORD PTR _n$[esp+24], edi
$LN8@gz_read:

; 320  : 
; 321  :         /* first just try copying data from the output buffer */
; 322  :         if (state->x.have) {

  00067	8b 06		 mov	 eax, DWORD PTR [esi]
  00069	85 c0		 test	 eax, eax
  0006b	74 1c		 je	 SHORT $LN9@gz_read

; 323  :             if (state->x.have < n)

  0006d	3b c3		 cmp	 eax, ebx
  0006f	73 04		 jae	 SHORT $LN11@gz_read

; 324  :                 n = state->x.have;

  00071	8b f8		 mov	 edi, eax
  00073	8b d8		 mov	 ebx, eax
$LN11@gz_read:

; 325  :             memcpy(buf, state->x.next, n);

  00075	53		 push	 ebx
  00076	ff 76 04	 push	 DWORD PTR [esi+4]
  00079	52		 push	 edx
  0007a	e8 00 00 00 00	 call	 _memcpy

; 326  :             state->x.next += n;

  0007f	01 5e 04	 add	 DWORD PTR [esi+4], ebx
  00082	83 c4 0c	 add	 esp, 12			; 0000000cH

; 327  :             state->x.have -= n;

  00085	29 1e		 sub	 DWORD PTR [esi], ebx

; 328  :         }

  00087	eb 58		 jmp	 SHORT $LN19@gz_read
$LN9@gz_read:

; 329  : 
; 330  :         /* output buffer empty -- return if we're at the end of the input */
; 331  :         else if (state->eof && state->strm.avail_in == 0) {

  00089	83 7e 40 00	 cmp	 DWORD PTR [esi+64], 0
  0008d	74 0a		 je	 SHORT $LN12@gz_read
  0008f	83 7e 68 00	 cmp	 DWORD PTR [esi+104], 0
  00093	0f 84 95 00 00
	00		 je	 $LN24@gz_read
$LN12@gz_read:

; 333  :             break;
; 334  :         }
; 335  : 
; 336  :         /* need output data -- for small len or new stream load up our output
; 337  :            buffer */
; 338  :         else if (state->how == LOOK || n < (state->size << 1)) {

  00099	8b 4e 30	 mov	 ecx, DWORD PTR [esi+48]
  0009c	85 c9		 test	 ecx, ecx
  0009e	74 66		 je	 SHORT $LN16@gz_read
  000a0	8b 46 1c	 mov	 eax, DWORD PTR [esi+28]
  000a3	03 c0		 add	 eax, eax
  000a5	3b d8		 cmp	 ebx, eax
  000a7	72 5d		 jb	 SHORT $LN16@gz_read

; 341  :                 return 0;
; 342  :             continue;       /* no progress yet -- go back to copy above */
; 343  :             /* the copy above assures that we will leave with space in the
; 344  :                output buffer, allowing at least one gzungetc() to succeed */
; 345  :         }
; 346  : 
; 347  :         /* large len -- read directly into user buffer */
; 348  :         else if (state->how == COPY) {      /* read directly */

  000a9	83 f9 01	 cmp	 ecx, 1
  000ac	8b ce		 mov	 ecx, esi
  000ae	75 19		 jne	 SHORT $LN18@gz_read

; 349  :             if (gz_load(state, (unsigned char *)buf, n, &n) == -1)

  000b0	8d 44 24 10	 lea	 eax, DWORD PTR _n$[esp+24]
  000b4	50		 push	 eax
  000b5	57		 push	 edi
  000b6	e8 00 00 00 00	 call	 _gz_load
  000bb	83 c4 08	 add	 esp, 8
  000be	83 f8 ff	 cmp	 eax, -1
  000c1	74 7b		 je	 SHORT $LN27@gz_read

; 350  :                 return 0;
; 351  :         }

  000c3	8b 7c 24 10	 mov	 edi, DWORD PTR _n$[esp+24]
  000c7	eb 18		 jmp	 SHORT $LN19@gz_read
$LN18@gz_read:

; 352  : 
; 353  :         /* large len -- decompress directly into user buffer */
; 354  :         else {  /* state->how == GZIP */
; 355  :             state->strm.avail_out = n;

  000c9	89 7e 74	 mov	 DWORD PTR [esi+116], edi

; 356  :             state->strm.next_out = (unsigned char *)buf;

  000cc	89 56 70	 mov	 DWORD PTR [esi+112], edx

; 357  :             if (gz_decomp(state) == -1)

  000cf	e8 00 00 00 00	 call	 _gz_decomp
  000d4	83 f8 ff	 cmp	 eax, -1
  000d7	74 65		 je	 SHORT $LN27@gz_read

; 358  :                 return 0;
; 359  :             n = state->x.have;

  000d9	8b 3e		 mov	 edi, DWORD PTR [esi]

; 360  :             state->x.have = 0;

  000db	c7 06 00 00 00
	00		 mov	 DWORD PTR [esi], 0
$LN19@gz_read:

; 361  :         }
; 362  : 
; 363  :         /* update progress */
; 364  :         len -= n;

  000e1	8b 45 08	 mov	 eax, DWORD PTR _len$[ebp]

; 365  :         buf = (char *)buf + n;

  000e4	8b 54 24 0c	 mov	 edx, DWORD PTR _buf$1$[esp+24]
  000e8	2b c7		 sub	 eax, edi

; 366  :         got += n;

  000ea	8b 4c 24 14	 mov	 ecx, DWORD PTR _got$1$[esp+24]
  000ee	03 d7		 add	 edx, edi
  000f0	03 cf		 add	 ecx, edi
  000f2	89 45 08	 mov	 DWORD PTR _len$[ebp], eax

; 367  :         state->x.pos += n;

  000f5	01 7e 08	 add	 DWORD PTR [esi+8], edi
  000f8	89 54 24 0c	 mov	 DWORD PTR _buf$1$[esp+24], edx
  000fc	83 56 0c 00	 adc	 DWORD PTR [esi+12], 0
  00100	89 4c 24 14	 mov	 DWORD PTR _got$1$[esp+24], ecx
  00104	eb 17		 jmp	 SHORT $LN2@gz_read
$LN16@gz_read:

; 339  :             /* get more output, looking for header if required */
; 340  :             if (gz_fetch(state) == -1)

  00106	8b ce		 mov	 ecx, esi
  00108	e8 00 00 00 00	 call	 _gz_fetch
  0010d	83 f8 ff	 cmp	 eax, -1
  00110	74 2c		 je	 SHORT $LN27@gz_read
  00112	8b 45 08	 mov	 eax, DWORD PTR _len$[ebp]
  00115	8b 54 24 0c	 mov	 edx, DWORD PTR _buf$1$[esp+24]
  00119	8b 4c 24 14	 mov	 ecx, DWORD PTR _got$1$[esp+24]
$LN2@gz_read:

; 368  :     } while (len);

  0011d	85 c0		 test	 eax, eax
  0011f	0f 85 2b ff ff
	ff		 jne	 $LL4@gz_read

; 369  : 
; 370  :     /* return number of bytes read into user buffer */
; 371  :     return got;

  00125	8b c1		 mov	 eax, ecx

; 372  : }

  00127	5f		 pop	 edi
  00128	5e		 pop	 esi
  00129	5b		 pop	 ebx
  0012a	8b e5		 mov	 esp, ebp
  0012c	5d		 pop	 ebp
  0012d	c3		 ret	 0
$LN24@gz_read:

; 332  :             state->past = 1;        /* tried to read past end */

  0012e	c7 46 44 01 00
	00 00		 mov	 DWORD PTR [esi+68], 1

; 369  : 
; 370  :     /* return number of bytes read into user buffer */
; 371  :     return got;

  00135	8b c1		 mov	 eax, ecx

; 372  : }

  00137	5f		 pop	 edi
  00138	5e		 pop	 esi
  00139	5b		 pop	 ebx
  0013a	8b e5		 mov	 esp, ebp
  0013c	5d		 pop	 ebp
  0013d	c3		 ret	 0
$LN27@gz_read:
  0013e	5f		 pop	 edi
  0013f	5e		 pop	 esi
  00140	33 c0		 xor	 eax, eax
  00142	5b		 pop	 ebx
  00143	8b e5		 mov	 esp, ebp
  00145	5d		 pop	 ebp
  00146	c3		 ret	 0
_gz_read ENDP
_TEXT	ENDS
; Function compile flags: /Ogtp
; File C:\CPython\externals\zlib-1.2.11\gzread.c
;	COMDAT _gzread@12
_TEXT	SEGMENT
_file$ = 8						; size = 4
_buf$ = 12						; size = 4
_len$ = 16						; size = 4
_gzread@12 PROC						; COMDAT

; 379  : {

  00000	55		 push	 ebp
  00001	8b ec		 mov	 ebp, esp
  00003	56		 push	 esi

; 380  :     gz_statep state;
; 381  : 
; 382  :     /* get internal structure */
; 383  :     if (file == NULL)

  00004	8b 75 08	 mov	 esi, DWORD PTR _file$[ebp]
  00007	85 f6		 test	 esi, esi
  00009	74 54		 je	 SHORT $LN4@gzread

; 384  :         return -1;
; 385  :     state = (gz_statep)file;
; 386  : 
; 387  :     /* check that we're reading and that there's no (serious) error */
; 388  :     if (state->mode != GZ_READ ||

  0000b	81 7e 10 4f 1c
	00 00		 cmp	 DWORD PTR [esi+16], 7247 ; 00001c4fH
  00012	75 4b		 jne	 SHORT $LN4@gzread
  00014	8b 46 5c	 mov	 eax, DWORD PTR [esi+92]
  00017	85 c0		 test	 eax, eax
  00019	74 05		 je	 SHORT $LN3@gzread
  0001b	83 f8 fb	 cmp	 eax, -5			; fffffffbH
  0001e	75 3f		 jne	 SHORT $LN4@gzread
$LN3@gzread:

; 389  :             (state->err != Z_OK && state->err != Z_BUF_ERROR))
; 390  :         return -1;
; 391  : 
; 392  :     /* since an int is returned, make sure len fits in one, otherwise return
; 393  :        with an error (this avoids a flaw in the interface) */
; 394  :     if ((int)len < 0) {

  00020	8b 45 10	 mov	 eax, DWORD PTR _len$[ebp]
  00023	8b ce		 mov	 ecx, esi
  00025	85 c0		 test	 eax, eax
  00027	79 1a		 jns	 SHORT $LN5@gzread

; 395  :         gz_error(state, Z_STREAM_ERROR, "request does not fit in an int");

  00029	68 00 00 00 00	 push	 OFFSET ??_C@_0BP@HLDABFKK@request?5does?5not?5fit?5in?5an?5int@
  0002e	ba fe ff ff ff	 mov	 edx, -2			; fffffffeH
  00033	e8 00 00 00 00	 call	 _gz_error
  00038	83 c4 04	 add	 esp, 4

; 404  :         return -1;
; 405  : 
; 406  :     /* return the number of bytes read (this is assured to fit in an int) */
; 407  :     return (int)len;
; 408  : }

  0003b	83 c8 ff	 or	 eax, -1
  0003e	5e		 pop	 esi
  0003f	5d		 pop	 ebp
  00040	c2 0c 00	 ret	 12			; 0000000cH
$LN5@gzread:

; 396  :         return -1;
; 397  :     }
; 398  : 
; 399  :     /* read len or fewer bytes to buf */
; 400  :     len = gz_read(state, buf, len);

  00043	8b 55 0c	 mov	 edx, DWORD PTR _buf$[ebp]
  00046	50		 push	 eax
  00047	e8 00 00 00 00	 call	 _gz_read
  0004c	83 c4 04	 add	 esp, 4

; 401  : 
; 402  :     /* check for an error */
; 403  :     if (len == 0 && state->err != Z_OK && state->err != Z_BUF_ERROR)

  0004f	85 c0		 test	 eax, eax
  00051	75 0f		 jne	 SHORT $LN1@gzread
  00053	8b 4e 5c	 mov	 ecx, DWORD PTR [esi+92]
  00056	85 c9		 test	 ecx, ecx
  00058	74 08		 je	 SHORT $LN1@gzread
  0005a	83 f9 fb	 cmp	 ecx, -5			; fffffffbH
  0005d	74 03		 je	 SHORT $LN1@gzread
$LN4@gzread:

; 404  :         return -1;
; 405  : 
; 406  :     /* return the number of bytes read (this is assured to fit in an int) */
; 407  :     return (int)len;
; 408  : }

  0005f	83 c8 ff	 or	 eax, -1
$LN1@gzread:
  00062	5e		 pop	 esi
  00063	5d		 pop	 ebp
  00064	c2 0c 00	 ret	 12			; 0000000cH
_gzread@12 ENDP
_TEXT	ENDS
; Function compile flags: /Ogtp
; File C:\CPython\externals\zlib-1.2.11\gzread.c
;	COMDAT _gzfread@16
_TEXT	SEGMENT
_buf$ = 8						; size = 4
_size$ = 12						; size = 4
_nitems$ = 16						; size = 4
_file$ = 20						; size = 4
_gzfread@16 PROC					; COMDAT

; 416  : {

  00000	55		 push	 ebp
  00001	8b ec		 mov	 ebp, esp

; 417  :     z_size_t len;
; 418  :     gz_statep state;
; 419  : 
; 420  :     /* get internal structure */
; 421  :     if (file == NULL)

  00003	8b 4d 14	 mov	 ecx, DWORD PTR _file$[ebp]
  00006	85 c9		 test	 ecx, ecx
  00008	74 63		 je	 SHORT $LN4@gzfread

; 422  :         return 0;
; 423  :     state = (gz_statep)file;
; 424  : 
; 425  :     /* check that we're reading and that there's no (serious) error */
; 426  :     if (state->mode != GZ_READ ||

  0000a	81 79 10 4f 1c
	00 00		 cmp	 DWORD PTR [ecx+16], 7247 ; 00001c4fH
  00011	75 5a		 jne	 SHORT $LN4@gzfread
  00013	8b 41 5c	 mov	 eax, DWORD PTR [ecx+92]
  00016	85 c0		 test	 eax, eax
  00018	74 05		 je	 SHORT $LN3@gzfread
  0001a	83 f8 fb	 cmp	 eax, -5			; fffffffbH
  0001d	75 4e		 jne	 SHORT $LN4@gzfread
$LN3@gzfread:
  0001f	56		 push	 esi
  00020	57		 push	 edi

; 429  : 
; 430  :     /* compute bytes to read -- error on overflow */
; 431  :     len = nitems * size;

  00021	8b 7d 0c	 mov	 edi, DWORD PTR _size$[ebp]
  00024	8b f7		 mov	 esi, edi
  00026	0f af 75 10	 imul	 esi, DWORD PTR _nitems$[ebp]

; 432  :     if (size && len / size != nitems) {

  0002a	85 ff		 test	 edi, edi
  0002c	74 25		 je	 SHORT $LN5@gzfread
  0002e	33 d2		 xor	 edx, edx
  00030	8b c6		 mov	 eax, esi
  00032	f7 f7		 div	 edi
  00034	3b 45 10	 cmp	 eax, DWORD PTR _nitems$[ebp]
  00037	74 1a		 je	 SHORT $LN5@gzfread

; 433  :         gz_error(state, Z_STREAM_ERROR, "request does not fit in a size_t");

  00039	68 00 00 00 00	 push	 OFFSET ??_C@_0CB@EGGJDMIK@request?5does?5not?5fit?5in?5a?5size_@
  0003e	ba fe ff ff ff	 mov	 edx, -2			; fffffffeH
  00043	e8 00 00 00 00	 call	 _gz_error
  00048	83 c4 04	 add	 esp, 4
$LN7@gzfread:

; 434  :         return 0;

  0004b	5f		 pop	 edi
  0004c	33 c0		 xor	 eax, eax
  0004e	5e		 pop	 esi

; 439  : }

  0004f	5d		 pop	 ebp
  00050	c2 10 00	 ret	 16			; 00000010H
$LN5@gzfread:

; 435  :     }
; 436  : 
; 437  :     /* read len or fewer bytes to buf, return the number of full items read */
; 438  :     return len ? gz_read(state, buf, len) / size : 0;

  00053	85 f6		 test	 esi, esi
  00055	74 f4		 je	 SHORT $LN7@gzfread
  00057	8b 55 08	 mov	 edx, DWORD PTR _buf$[ebp]
  0005a	56		 push	 esi
  0005b	e8 00 00 00 00	 call	 _gz_read
  00060	83 c4 04	 add	 esp, 4
  00063	33 d2		 xor	 edx, edx
  00065	f7 f7		 div	 edi
  00067	5f		 pop	 edi
  00068	5e		 pop	 esi

; 439  : }

  00069	5d		 pop	 ebp
  0006a	c2 10 00	 ret	 16			; 00000010H
$LN4@gzfread:

; 427  :             (state->err != Z_OK && state->err != Z_BUF_ERROR))
; 428  :         return 0;

  0006d	33 c0		 xor	 eax, eax

; 439  : }

  0006f	5d		 pop	 ebp
  00070	c2 10 00	 ret	 16			; 00000010H
_gzfread@16 ENDP
_TEXT	ENDS
; Function compile flags: /Ogtp
; File C:\CPython\externals\zlib-1.2.11\gzread.c
;	COMDAT _gzgetc@4
_TEXT	SEGMENT
_file$ = 8						; size = 4
_buf$ = 11						; size = 1
_gzgetc@4 PROC						; COMDAT

; 449  : {

  00000	55		 push	 ebp
  00001	8b ec		 mov	 ebp, esp
  00003	56		 push	 esi

; 450  :     int ret;
; 451  :     unsigned char buf[1];
; 452  :     gz_statep state;
; 453  : 
; 454  :     /* get internal structure */
; 455  :     if (file == NULL)

  00004	8b 75 08	 mov	 esi, DWORD PTR _file$[ebp]
  00007	85 f6		 test	 esi, esi
  00009	74 54		 je	 SHORT $LN4@gzgetc

; 456  :         return -1;
; 457  :     state = (gz_statep)file;
; 458  : 
; 459  :     /* check that we're reading and that there's no (serious) error */
; 460  :     if (state->mode != GZ_READ ||

  0000b	81 7e 10 4f 1c
	00 00		 cmp	 DWORD PTR [esi+16], 7247 ; 00001c4fH
  00012	75 4b		 jne	 SHORT $LN4@gzgetc
  00014	8b 46 5c	 mov	 eax, DWORD PTR [esi+92]
  00017	85 c0		 test	 eax, eax
  00019	74 05		 je	 SHORT $LN3@gzgetc
  0001b	83 f8 fb	 cmp	 eax, -5			; fffffffbH
  0001e	75 3f		 jne	 SHORT $LN4@gzgetc
$LN3@gzgetc:

; 461  :         (state->err != Z_OK && state->err != Z_BUF_ERROR))
; 462  :         return -1;
; 463  : 
; 464  :     /* try output buffer (no need to check for skip request) */
; 465  :     if (state->x.have) {

  00020	8b 06		 mov	 eax, DWORD PTR [esi]
  00022	85 c0		 test	 eax, eax
  00024	74 1c		 je	 SHORT $LN5@gzgetc

; 466  :         state->x.have--;

  00026	48		 dec	 eax

; 467  :         state->x.pos++;

  00027	83 46 08 01	 add	 DWORD PTR [esi+8], 1
  0002b	89 06		 mov	 DWORD PTR [esi], eax

; 468  :         return *(state->x.next)++;

  0002d	8b 46 04	 mov	 eax, DWORD PTR [esi+4]
  00030	83 56 0c 00	 adc	 DWORD PTR [esi+12], 0
  00034	8a 08		 mov	 cl, BYTE PTR [eax]
  00036	40		 inc	 eax
  00037	89 46 04	 mov	 DWORD PTR [esi+4], eax
  0003a	0f b6 c1	 movzx	 eax, cl
  0003d	5e		 pop	 esi

; 474  : }

  0003e	5d		 pop	 ebp
  0003f	c2 04 00	 ret	 4
$LN5@gzgetc:

; 469  :     }
; 470  : 
; 471  :     /* nothing there -- try gz_read() */
; 472  :     ret = gz_read(state, buf, 1);

  00042	6a 01		 push	 1
  00044	8d 55 0b	 lea	 edx, DWORD PTR _buf$[ebp]
  00047	8b ce		 mov	 ecx, esi
  00049	e8 00 00 00 00	 call	 _gz_read
  0004e	83 c4 04	 add	 esp, 4

; 473  :     return ret < 1 ? -1 : buf[0];

  00051	83 f8 01	 cmp	 eax, 1
  00054	7c 09		 jl	 SHORT $LN4@gzgetc
  00056	0f b6 45 0b	 movzx	 eax, BYTE PTR _buf$[ebp]
  0005a	5e		 pop	 esi

; 474  : }

  0005b	5d		 pop	 ebp
  0005c	c2 04 00	 ret	 4
$LN4@gzgetc:
  0005f	83 c8 ff	 or	 eax, -1
  00062	5e		 pop	 esi
  00063	5d		 pop	 ebp
  00064	c2 04 00	 ret	 4
_gzgetc@4 ENDP
_TEXT	ENDS
; Function compile flags: /Ogtp
; File C:\CPython\externals\zlib-1.2.11\gzread.c
;	COMDAT _gzgetc_@4
_TEXT	SEGMENT
_file$ = 8						; size = 4
_gzgetc_@4 PROC						; COMDAT

; 478  : {

  00000	55		 push	 ebp
  00001	8b ec		 mov	 ebp, esp

; 480  : }

  00003	5d		 pop	 ebp

; 479  :     return gzgetc(file);

  00004	e9 00 00 00 00	 jmp	 _gzgetc@4
_gzgetc_@4 ENDP
_TEXT	ENDS
; Function compile flags: /Ogtp
; File C:\CPython\externals\zlib-1.2.11\gzread.c
;	COMDAT _gzungetc@8
_TEXT	SEGMENT
_c$ = 8							; size = 4
_file$ = 12						; size = 4
_gzungetc@8 PROC					; COMDAT

; 486  : {

  00000	55		 push	 ebp
  00001	8b ec		 mov	 ebp, esp
  00003	53		 push	 ebx
  00004	56		 push	 esi

; 487  :     gz_statep state;
; 488  : 
; 489  :     /* get internal structure */
; 490  :     if (file == NULL)

  00005	8b 75 0c	 mov	 esi, DWORD PTR _file$[ebp]
  00008	85 f6		 test	 esi, esi
  0000a	0f 84 e3 00 00
	00		 je	 $LN6@gzungetc

; 491  :         return -1;
; 492  :     state = (gz_statep)file;
; 493  : 
; 494  :     /* check that we're reading and that there's no (serious) error */
; 495  :     if (state->mode != GZ_READ ||

  00010	81 7e 10 4f 1c
	00 00		 cmp	 DWORD PTR [esi+16], 7247 ; 00001c4fH
  00017	0f 85 d6 00 00
	00		 jne	 $LN6@gzungetc
  0001d	8b 46 5c	 mov	 eax, DWORD PTR [esi+92]
  00020	85 c0		 test	 eax, eax
  00022	74 09		 je	 SHORT $LN5@gzungetc
  00024	83 f8 fb	 cmp	 eax, -5			; fffffffbH
  00027	0f 85 c6 00 00
	00		 jne	 $LN6@gzungetc
$LN5@gzungetc:

; 498  : 
; 499  :     /* process a skip request */
; 500  :     if (state->seek) {

  0002d	83 7e 58 00	 cmp	 DWORD PTR [esi+88], 0
  00031	74 20		 je	 SHORT $LN8@gzungetc

; 501  :         state->seek = 0;
; 502  :         if (gz_skip(state, state->skip) == -1)

  00033	ff 76 54	 push	 DWORD PTR [esi+84]
  00036	8b ce		 mov	 ecx, esi
  00038	c7 46 58 00 00
	00 00		 mov	 DWORD PTR [esi+88], 0
  0003f	ff 76 50	 push	 DWORD PTR [esi+80]
  00042	e8 00 00 00 00	 call	 _gz_skip
  00047	83 c4 08	 add	 esp, 8
  0004a	83 f8 ff	 cmp	 eax, -1
  0004d	0f 84 a0 00 00
	00		 je	 $LN6@gzungetc
$LN8@gzungetc:

; 503  :             return -1;
; 504  :     }
; 505  : 
; 506  :     /* can't push EOF */
; 507  :     if (c < 0)

  00053	8b 5d 08	 mov	 ebx, DWORD PTR _c$[ebp]
  00056	85 db		 test	 ebx, ebx
  00058	0f 88 95 00 00
	00		 js	 $LN6@gzungetc

; 508  :         return -1;
; 509  : 
; 510  :     /* if output buffer empty, put byte at end (allows more pushing) */
; 511  :     if (state->x.have == 0) {

  0005e	57		 push	 edi
  0005f	8b 3e		 mov	 edi, DWORD PTR [esi]
  00061	85 ff		 test	 edi, edi
  00063	75 17		 jne	 SHORT $LN10@gzungetc

; 512  :         state->x.have = 1;
; 513  :         state->x.next = state->out + (state->size << 1) - 1;

  00065	8b 56 1c	 mov	 edx, DWORD PTR [esi+28]
  00068	8b 4e 28	 mov	 ecx, DWORD PTR [esi+40]
  0006b	c7 06 01 00 00
	00		 mov	 DWORD PTR [esi], 1
  00071	8d 0c 51	 lea	 ecx, DWORD PTR [ecx+edx*2]
  00074	49		 dec	 ecx
  00075	89 4e 04	 mov	 DWORD PTR [esi+4], ecx

; 514  :         state->x.next[0] = (unsigned char)c;

  00078	88 19		 mov	 BYTE PTR [ecx], bl

; 515  :         state->x.pos--;
; 516  :         state->past = 0;
; 517  :         return c;

  0007a	eb 5f		 jmp	 SHORT $LN19@gzungetc
$LN10@gzungetc:

; 518  :     }
; 519  : 
; 520  :     /* if no room, give up (must have already done a gzungetc()) */
; 521  :     if (state->x.have == (state->size << 1)) {

  0007c	8b 46 1c	 mov	 eax, DWORD PTR [esi+28]
  0007f	03 c0		 add	 eax, eax
  00081	3b f8		 cmp	 edi, eax
  00083	75 1e		 jne	 SHORT $LN11@gzungetc

; 522  :         gz_error(state, Z_DATA_ERROR, "out of room to push characters");

  00085	68 00 00 00 00	 push	 OFFSET ??_C@_0BP@IIKIGMCC@out?5of?5room?5to?5push?5characters@
  0008a	ba fd ff ff ff	 mov	 edx, -3			; fffffffdH
  0008f	8b ce		 mov	 ecx, esi
  00091	e8 00 00 00 00	 call	 _gz_error
  00096	83 c4 04	 add	 esp, 4

; 523  :         return -1;

  00099	83 c8 ff	 or	 eax, -1
  0009c	5f		 pop	 edi
  0009d	5e		 pop	 esi

; 540  : }

  0009e	5b		 pop	 ebx
  0009f	5d		 pop	 ebp
  000a0	c2 08 00	 ret	 8
$LN11@gzungetc:

; 524  :     }
; 525  : 
; 526  :     /* slide output data if needed and insert byte before existing data */
; 527  :     if (state->x.next == state->out) {

  000a3	8b 46 28	 mov	 eax, DWORD PTR [esi+40]
  000a6	8b 56 04	 mov	 edx, DWORD PTR [esi+4]
  000a9	3b d0		 cmp	 edx, eax
  000ab	75 21		 jne	 SHORT $LN3@gzungetc

; 528  :         unsigned char *src = state->out + state->x.have;
; 529  :         unsigned char *dest = state->out + (state->size << 1);

  000ad	8b 56 1c	 mov	 edx, DWORD PTR [esi+28]
  000b0	8d 0c 38	 lea	 ecx, DWORD PTR [eax+edi]
  000b3	8d 14 50	 lea	 edx, DWORD PTR [eax+edx*2]

; 530  :         while (src > state->out)

  000b6	3b c8		 cmp	 ecx, eax
  000b8	76 14		 jbe	 SHORT $LN3@gzungetc
  000ba	66 0f 1f 44 00
	00		 npad	 6
$LL2@gzungetc:

; 531  :             *--dest = *--src;

  000c0	8a 41 ff	 mov	 al, BYTE PTR [ecx-1]
  000c3	49		 dec	 ecx
  000c4	4a		 dec	 edx
  000c5	88 02		 mov	 BYTE PTR [edx], al
  000c7	3b 4e 28	 cmp	 ecx, DWORD PTR [esi+40]
  000ca	77 f4		 ja	 SHORT $LL2@gzungetc
  000cc	8b 3e		 mov	 edi, DWORD PTR [esi]
$LN3@gzungetc:

; 532  :         state->x.next = dest;
; 533  :     }
; 534  :     state->x.have++;

  000ce	8d 47 01	 lea	 eax, DWORD PTR [edi+1]
  000d1	89 06		 mov	 DWORD PTR [esi], eax

; 535  :     state->x.next--;

  000d3	8d 42 ff	 lea	 eax, DWORD PTR [edx-1]
  000d6	89 46 04	 mov	 DWORD PTR [esi+4], eax

; 536  :     state->x.next[0] = (unsigned char)c;

  000d9	88 18		 mov	 BYTE PTR [eax], bl
$LN19@gzungetc:

; 537  :     state->x.pos--;

  000db	83 46 08 ff	 add	 DWORD PTR [esi+8], -1

; 538  :     state->past = 0;
; 539  :     return c;

  000df	8b c3		 mov	 eax, ebx
  000e1	5f		 pop	 edi
  000e2	83 56 0c ff	 adc	 DWORD PTR [esi+12], -1
  000e6	c7 46 44 00 00
	00 00		 mov	 DWORD PTR [esi+68], 0
  000ed	5e		 pop	 esi

; 540  : }

  000ee	5b		 pop	 ebx
  000ef	5d		 pop	 ebp
  000f0	c2 08 00	 ret	 8
$LN6@gzungetc:
  000f3	5e		 pop	 esi

; 496  :         (state->err != Z_OK && state->err != Z_BUF_ERROR))
; 497  :         return -1;

  000f4	83 c8 ff	 or	 eax, -1

; 540  : }

  000f7	5b		 pop	 ebx
  000f8	5d		 pop	 ebp
  000f9	c2 08 00	 ret	 8
_gzungetc@8 ENDP
_TEXT	ENDS
; Function compile flags: /Ogtp
; File C:\CPython\externals\zlib-1.2.11\gzread.c
;	COMDAT _gzgets@12
_TEXT	SEGMENT
_left$1$ = -12						; size = 4
_eol$1$ = -8						; size = 4
_str$1$ = -4						; size = 4
_file$ = 8						; size = 4
_buf$ = 12						; size = 4
_len$ = 16						; size = 4
_gzgets@12 PROC						; COMDAT

; 547  : {

  00000	55		 push	 ebp
  00001	8b ec		 mov	 ebp, esp
  00003	83 e4 f8	 and	 esp, -8			; fffffff8H
  00006	83 ec 0c	 sub	 esp, 12			; 0000000cH
  00009	53		 push	 ebx
  0000a	56		 push	 esi

; 548  :     unsigned left, n;
; 549  :     char *str;
; 550  :     unsigned char *eol;
; 551  :     gz_statep state;
; 552  : 
; 553  :     /* check parameters and get internal structure */
; 554  :     if (file == NULL || buf == NULL || len < 1)

  0000b	8b 75 08	 mov	 esi, DWORD PTR _file$[ebp]
  0000e	57		 push	 edi
  0000f	85 f6		 test	 esi, esi
  00011	0f 84 06 01 00
	00		 je	 $LN6@gzgets
  00017	8b 5d 0c	 mov	 ebx, DWORD PTR _buf$[ebp]
  0001a	85 db		 test	 ebx, ebx
  0001c	0f 84 fb 00 00
	00		 je	 $LN6@gzgets
  00022	8b 7d 10	 mov	 edi, DWORD PTR _len$[ebp]
  00025	83 ff 01	 cmp	 edi, 1
  00028	0f 8c ef 00 00
	00		 jl	 $LN6@gzgets

; 555  :         return NULL;
; 556  :     state = (gz_statep)file;
; 557  : 
; 558  :     /* check that we're reading and that there's no (serious) error */
; 559  :     if (state->mode != GZ_READ ||

  0002e	81 7e 10 4f 1c
	00 00		 cmp	 DWORD PTR [esi+16], 7247 ; 00001c4fH
  00035	0f 85 e2 00 00
	00		 jne	 $LN6@gzgets
  0003b	8b 46 5c	 mov	 eax, DWORD PTR [esi+92]
  0003e	85 c0		 test	 eax, eax
  00040	74 09		 je	 SHORT $LN7@gzgets
  00042	83 f8 fb	 cmp	 eax, -5			; fffffffbH
  00045	0f 85 d2 00 00
	00		 jne	 $LN6@gzgets
$LN7@gzgets:

; 560  :         (state->err != Z_OK && state->err != Z_BUF_ERROR))
; 561  :         return NULL;
; 562  : 
; 563  :     /* process a skip request */
; 564  :     if (state->seek) {

  0004b	83 7e 58 00	 cmp	 DWORD PTR [esi+88], 0
  0004f	74 20		 je	 SHORT $LN10@gzgets

; 565  :         state->seek = 0;
; 566  :         if (gz_skip(state, state->skip) == -1)

  00051	ff 76 54	 push	 DWORD PTR [esi+84]
  00054	8b ce		 mov	 ecx, esi
  00056	c7 46 58 00 00
	00 00		 mov	 DWORD PTR [esi+88], 0
  0005d	ff 76 50	 push	 DWORD PTR [esi+80]
  00060	e8 00 00 00 00	 call	 _gz_skip
  00065	83 c4 08	 add	 esp, 8
  00068	83 f8 ff	 cmp	 eax, -1
  0006b	0f 84 ac 00 00
	00		 je	 $LN6@gzgets
$LN10@gzgets:

; 567  :             return NULL;
; 568  :     }
; 569  : 
; 570  :     /* copy output bytes up to new line or len - 1, whichever comes first --
; 571  :        append a terminating zero to the string (we don't check for a zero in
; 572  :        the contents, let the user worry about that) */
; 573  :     str = buf;
; 574  :     left = (unsigned)len - 1;

  00071	8d 4f ff	 lea	 ecx, DWORD PTR [edi-1]
  00074	89 5c 24 14	 mov	 DWORD PTR _str$1$[esp+24], ebx
  00078	89 4c 24 0c	 mov	 DWORD PTR _left$1$[esp+24], ecx

; 575  :     if (left) do {

  0007c	85 c9		 test	 ecx, ecx
  0007e	0f 84 99 00 00
	00		 je	 $LN6@gzgets
  00084	8b 06		 mov	 eax, DWORD PTR [esi]
$LL4@gzgets:

; 576  :         /* assure that something is in the output buffer */
; 577  :         if (state->x.have == 0 && gz_fetch(state) == -1)

  00086	85 c0		 test	 eax, eax
  00088	75 14		 jne	 SHORT $LN12@gzgets
  0008a	8b ce		 mov	 ecx, esi
  0008c	e8 00 00 00 00	 call	 _gz_fetch
  00091	83 f8 ff	 cmp	 eax, -1
  00094	0f 84 83 00 00
	00		 je	 $LN6@gzgets
  0009a	8b 4c 24 0c	 mov	 ecx, DWORD PTR _left$1$[esp+24]
$LN12@gzgets:

; 578  :             return NULL;                /* error */
; 579  :         if (state->x.have == 0) {       /* end of file */

  0009e	8b 06		 mov	 eax, DWORD PTR [esi]
  000a0	85 c0		 test	 eax, eax
  000a2	74 5e		 je	 SHORT $LN22@gzgets

; 581  :             break;                      /* return what we have */
; 582  :         }
; 583  : 
; 584  :         /* look for end-of-line in current output buffer */
; 585  :         n = state->x.have > left ? left : state->x.have;
; 586  :         eol = (unsigned char *)memchr(state->x.next, '\n', n);

  000a4	3b c1		 cmp	 eax, ecx
  000a6	8b f9		 mov	 edi, ecx
  000a8	0f 46 f8	 cmovbe	 edi, eax
  000ab	57		 push	 edi
  000ac	6a 0a		 push	 10			; 0000000aH
  000ae	ff 76 04	 push	 DWORD PTR [esi+4]
  000b1	e8 00 00 00 00	 call	 _memchr
  000b6	83 c4 0c	 add	 esp, 12			; 0000000cH
  000b9	89 44 24 10	 mov	 DWORD PTR _eol$1$[esp+24], eax

; 587  :         if (eol != NULL)

  000bd	85 c0		 test	 eax, eax
  000bf	74 0a		 je	 SHORT $LN26@gzgets

; 588  :             n = (unsigned)(eol - state->x.next) + 1;

  000c1	8b f8		 mov	 edi, eax
  000c3	8b 46 04	 mov	 eax, DWORD PTR [esi+4]
  000c6	2b f8		 sub	 edi, eax
  000c8	47		 inc	 edi
  000c9	eb 03		 jmp	 SHORT $LN14@gzgets
$LN26@gzgets:

; 587  :         if (eol != NULL)

  000cb	8b 46 04	 mov	 eax, DWORD PTR [esi+4]
$LN14@gzgets:

; 589  : 
; 590  :         /* copy through end-of-line, or remainder if not found */
; 591  :         memcpy(buf, state->x.next, n);

  000ce	57		 push	 edi
  000cf	50		 push	 eax
  000d0	53		 push	 ebx
  000d1	e8 00 00 00 00	 call	 _memcpy

; 592  :         state->x.have -= n;

  000d6	8b 06		 mov	 eax, DWORD PTR [esi]
  000d8	83 c4 0c	 add	 esp, 12			; 0000000cH

; 593  :         state->x.next += n;

  000db	01 7e 04	 add	 DWORD PTR [esi+4], edi
  000de	2b c7		 sub	 eax, edi

; 594  :         state->x.pos += n;

  000e0	01 7e 08	 add	 DWORD PTR [esi+8], edi

; 595  :         left -= n;

  000e3	8b 4c 24 0c	 mov	 ecx, DWORD PTR _left$1$[esp+24]
  000e7	83 56 0c 00	 adc	 DWORD PTR [esi+12], 0
  000eb	2b cf		 sub	 ecx, edi

; 596  :         buf += n;

  000ed	03 df		 add	 ebx, edi
  000ef	89 06		 mov	 DWORD PTR [esi], eax
  000f1	89 4c 24 0c	 mov	 DWORD PTR _left$1$[esp+24], ecx

; 597  :     } while (left && eol == NULL);

  000f5	85 c9		 test	 ecx, ecx
  000f7	74 10		 je	 SHORT $LN3@gzgets
  000f9	83 7c 24 10 00	 cmp	 DWORD PTR _eol$1$[esp+24], 0
  000fe	74 86		 je	 SHORT $LL4@gzgets
  00100	eb 07		 jmp	 SHORT $LN3@gzgets
$LN22@gzgets:

; 580  :             state->past = 1;            /* read past end */

  00102	c7 46 44 01 00
	00 00		 mov	 DWORD PTR [esi+68], 1
$LN3@gzgets:

; 598  : 
; 599  :     /* return terminated string, or if nothing, end of file */
; 600  :     if (buf == str)

  00109	8b 44 24 14	 mov	 eax, DWORD PTR _str$1$[esp+24]
  0010d	3b d8		 cmp	 ebx, eax
  0010f	74 0c		 je	 SHORT $LN6@gzgets

; 601  :         return NULL;
; 602  :     buf[0] = 0;

  00111	c6 03 00	 mov	 BYTE PTR [ebx], 0

; 603  :     return str;
; 604  : }

  00114	5f		 pop	 edi
  00115	5e		 pop	 esi
  00116	5b		 pop	 ebx
  00117	8b e5		 mov	 esp, ebp
  00119	5d		 pop	 ebp
  0011a	c2 0c 00	 ret	 12			; 0000000cH
$LN6@gzgets:
  0011d	5f		 pop	 edi
  0011e	5e		 pop	 esi
  0011f	33 c0		 xor	 eax, eax
  00121	5b		 pop	 ebx
  00122	8b e5		 mov	 esp, ebp
  00124	5d		 pop	 ebp
  00125	c2 0c 00	 ret	 12			; 0000000cH
_gzgets@12 ENDP
_TEXT	ENDS
; Function compile flags: /Ogtp
; File C:\CPython\externals\zlib-1.2.11\gzread.c
;	COMDAT _gzdirect@4
_TEXT	SEGMENT
_file$ = 8						; size = 4
_gzdirect@4 PROC					; COMDAT

; 609  : {

  00000	55		 push	 ebp
  00001	8b ec		 mov	 ebp, esp
  00003	56		 push	 esi

; 610  :     gz_statep state;
; 611  : 
; 612  :     /* get internal structure */
; 613  :     if (file == NULL)

  00004	8b 75 08	 mov	 esi, DWORD PTR _file$[ebp]
  00007	85 f6		 test	 esi, esi
  00009	75 07		 jne	 SHORT $LN2@gzdirect

; 614  :         return 0;

  0000b	33 c0		 xor	 eax, eax
  0000d	5e		 pop	 esi

; 624  : }

  0000e	5d		 pop	 ebp
  0000f	c2 04 00	 ret	 4
$LN2@gzdirect:

; 615  :     state = (gz_statep)file;
; 616  : 
; 617  :     /* if the state is not known, but we can find out, then do so (this is
; 618  :        mainly for right after a gzopen() or gzdopen()) */
; 619  :     if (state->mode == GZ_READ && state->how == LOOK && state->x.have == 0)

  00012	81 7e 10 4f 1c
	00 00		 cmp	 DWORD PTR [esi+16], 7247 ; 00001c4fH
  00019	75 12		 jne	 SHORT $LN3@gzdirect
  0001b	83 7e 30 00	 cmp	 DWORD PTR [esi+48], 0
  0001f	75 0c		 jne	 SHORT $LN3@gzdirect
  00021	83 3e 00	 cmp	 DWORD PTR [esi], 0
  00024	75 07		 jne	 SHORT $LN3@gzdirect

; 620  :         (void)gz_look(state);

  00026	8b ce		 mov	 ecx, esi
  00028	e8 00 00 00 00	 call	 _gz_look
$LN3@gzdirect:

; 621  : 
; 622  :     /* return 1 if transparent, 0 if processing a gzip stream */
; 623  :     return state->direct;

  0002d	8b 46 2c	 mov	 eax, DWORD PTR [esi+44]
  00030	5e		 pop	 esi

; 624  : }

  00031	5d		 pop	 ebp
  00032	c2 04 00	 ret	 4
_gzdirect@4 ENDP
_TEXT	ENDS
END
