-----BEGIN PRIVATE KEY-----
MIIG/AIBADANBgkqhkiG9w0BAQEFAASCBuYwggbiAgEAAoIBgQD1AFDzH6SdBpbH
VIQY4ZwVz8JNBFaIfXc33XwMPR5hJCx4TZfELcLitRC/t0FQVYQodaI0oj/198bA
8hQSIKOdfl2D6EV/8Z02goZp0r8XifHRa6MIQCk1XnqkOKy0YUu9EVNSLTkcJbdy
SUVqopkSJGortqUdRf7r24e5XxJnGmNWT00e9Z20d6y2+VSd71oGPGgv2o6mFoWn
M40zij44BHR6Zvd94hz7qd9+SZf6FZtFeZFUOvdTM73MV4JgoS6AXvDAby5AcwsY
DX1CJtIHqfL2VeJuY2IoiqDpViZa0L8IoSmgmRghmedc6fHYEdF2S4bbkdpGY3K3
Uva/ZK5s7fa0gyTRbKPASAPRNkzrIOWPdThkpAiQlvJ6qQwvhIkv2NdSrD130OaX
SjG8wm4EMFgI0z6RgeblWfe4PeIy/+rLN6a4/AAqyGS869TGjj9lCgNKPIUfkKg7
Q9Ih7oHcRUbGBi3F7ayeaIOlIZr+GlJ63OmHcnM4FnQGP1prkOMCAwEAAQKCAYBv
YnRrA/DP3uX/u2HO+gr/M5QvdZBtvzTLNiumWMcN/Ocmzof4DaHzdcQmlQbhoe9S
gaB782PGzJ4UrDoJv8MC4Cddx+SI9Wy3EoJPbBuqdPF2d0wIfTr+43Q4YvfJjg5j
55OM4bh8Hn2XPM6NW1ziDaIjO4c3ltH9orHCygFQ1INjAuyZ7aqEGIByM0qP/vhb
q2zmjKObyNN8n4hLbUc6KnRWDafpGDp7A9Dy1jx82wPbgxhaRfCZaAWa+BHzInNg
+gtllYEfq3KcHIZZGa/uSVisB+MbBj8A7OjmkHoBb8b7uI8l+y7L9v3/VEGOBnbJ
EycfTi6j3iyWsLSWRsWcA7g4sT8Yo6pLCBPxoRUTwKGkPbH8Ksx5ygyrZU+8WfTr
m+u52wi4sUiaT6zIXpooYtvJKcp5meLcY2ym5+1ITNnALU1J/WA+TUBpdINuNseT
ZLTkYE8aiDM5/TmtRdvvAYF5XpxT5gUi8cZXDx9+xvtdyQi87DCDtYayN9eom5kC
gcEA/C8Z3fwttOHLw/pI0uhZO2TCP8BGPyVMTmxBADEiYpvehDEwkNjAmDXM+85P
sIZpdmmxLSR7Q8h1tf3yY1LSo63JeBbw+A9mK1AXmdquL6ht+NCCCeObNbIoPWce
zEUQ9qotLHNRUEZIybuK7sUjz581/v8MXlEO0YRxgucCyWKDIkpKVJlYAIeq+2LR
56yRf4+eKp7JnZ+1bW30XNKDLHsARrezUExLGcKRh4d3xdbeVDP9MUk7tBMHPzqx
8b3fAoHBAPi1ZBSyRJNUZWdPu1meF6x1y7x7ewLr9lxXJwKXSxzI5a1HgWdwXEls
0NHvvwnb31Rv4G9F6Ii2L9HZlNFftkif/A02xTo7pW/C/vVAHpMkWzFdttzUGPEW
NR7ZtpcsHAI4Z7ewEDwcXFosGZpDEebaCyhXxx0qkWE4XeZ1mtZlycWvL1MIRnEf
1nS5E3s84IcgXXefa8Qj6yWbnXZ6m9PoRlFj0tdsDL/UvFBMvofLw+m4vJUUx/3m
WJAB3eOFfQKBwD4yz8p0fEF0v3Eitftu2zNO8qoOnkTMyjk9cfq+I6D2mLc5+qR/
EWF5Q4mHpRgAztopz003Bj/9nSq566KbtuAv6NT5s407HxPnuSp1SSjv/c+0fZ46
yPlBa7NZT7tJ/ZkY9/NSreeCrkkzPF0Punlm50ZxWXeZvnHmnKiQmZtZ9MXsVNDw
0UewLne6M9NUOL6hiX0xlMCPt4u55t9N/JRn8fV/MXbImm1ME+C9hMkC6esSt4wE
Z/lOCCeMLn9VOQKBwEdfDnxd+A3rfzoZiGMcWiDUoQXSzac1/bncDMbSkeyNvlNu
nLUJaoJrprVIPqNepIU/ocFs52EsHybycKFw/Qd0WcmU+R5P9ZbP94h7wQpquXy+
LvbKKuosfEwBIEPblaIRe7ob3VzSqrH5y9MYAjAkTGVkYzB8gcHLgi7bevahuThw
oH0Md+KIx2sxnWSVQL2mTQxCBJQB1r4xHQvd/Y/fLSa4Jc5KJJJ8QxosG9UuZWdR
61RA5W94Rdv1nS5opQKBwA4EF5UojtiDCfzTSguDvw88uCrHEilegPvUIG0Y+tZS
0apgVY+aorLE7/joJZCOpjLw6ec3auvtoXq6s+wPIhj+vLF64a2qVl3OmBbYkFTH
tNg4S4iwE2xmnc6f6Frs8o7GX2rXiYDcvRH4yRv2E/2eq/Px5fNWr4YrhYzs3xhT
usSLByIrcLSSyIGAQSJ0stmngzKdW68zIYyhNXmMNgdCJw7Wesf5UqzXdEgEEFtP
1IfM7JOzd14O0CPmnxUM3A==
-----END PRIVATE KEY-----
Certificate:
    Data:
        Version: 3 (0x2)
        Serial Number:
            cb:2d:80:99:5a:69:52:5f
        Signature Algorithm: sha256WithRSAEncryption
        Issuer: C=XY, O=Python Software Foundation CA, CN=our-ca-server
        Validity
            Not Before: Aug 29 14:23:16 2018 GMT
            Not After : Oct 28 14:23:16 2525 GMT
        Subject: C=XY, L=Castle Anthrax, O=Python Software Foundation, CN=allsans
        Subject Public Key Info:
            Public Key Algorithm: rsaEncryption
                RSA Public-Key: (3072 bit)
                Modulus:
                    00:f5:00:50:f3:1f:a4:9d:06:96:c7:54:84:18:e1:
                    9c:15:cf:c2:4d:04:56:88:7d:77:37:dd:7c:0c:3d:
                    1e:61:24:2c:78:4d:97:c4:2d:c2:e2:b5:10:bf:b7:
                    41:50:55:84:28:75:a2:34:a2:3f:f5:f7:c6:c0:f2:
                    14:12:20:a3:9d:7e:5d:83:e8:45:7f:f1:9d:36:82:
                    86:69:d2:bf:17:89:f1:d1:6b:a3:08:40:29:35:5e:
                    7a:a4:38:ac:b4:61:4b:bd:11:53:52:2d:39:1c:25:
                    b7:72:49:45:6a:a2:99:12:24:6a:2b:b6:a5:1d:45:
                    fe:eb:db:87:b9:5f:12:67:1a:63:56:4f:4d:1e:f5:
                    9d:b4:77:ac:b6:f9:54:9d:ef:5a:06:3c:68:2f:da:
                    8e:a6:16:85:a7:33:8d:33:8a:3e:38:04:74:7a:66:
                    f7:7d:e2:1c:fb:a9:df:7e:49:97:fa:15:9b:45:79:
                    91:54:3a:f7:53:33:bd:cc:57:82:60:a1:2e:80:5e:
                    f0:c0:6f:2e:40:73:0b:18:0d:7d:42:26:d2:07:a9:
                    f2:f6:55:e2:6e:63:62:28:8a:a0:e9:56:26:5a:d0:
                    bf:08:a1:29:a0:99:18:21:99:e7:5c:e9:f1:d8:11:
                    d1:76:4b:86:db:91:da:46:63:72:b7:52:f6:bf:64:
                    ae:6c:ed:f6:b4:83:24:d1:6c:a3:c0:48:03:d1:36:
                    4c:eb:20:e5:8f:75:38:64:a4:08:90:96:f2:7a:a9:
                    0c:2f:84:89:2f:d8:d7:52:ac:3d:77:d0:e6:97:4a:
                    31:bc:c2:6e:04:30:58:08:d3:3e:91:81:e6:e5:59:
                    f7:b8:3d:e2:32:ff:ea:cb:37:a6:b8:fc:00:2a:c8:
                    64:bc:eb:d4:c6:8e:3f:65:0a:03:4a:3c:85:1f:90:
                    a8:3b:43:d2:21:ee:81:dc:45:46:c6:06:2d:c5:ed:
                    ac:9e:68:83:a5:21:9a:fe:1a:52:7a:dc:e9:87:72:
                    73:38:16:74:06:3f:5a:6b:90:e3
                Exponent: 65537 (0x10001)
        X509v3 extensions:
            X509v3 Subject Alternative Name: 
                DNS:allsans, othername:<unsupported>, othername:<unsupported>, email:user@example.org, DNS:www.example.org, DirName:/C=XY/L=Castle Anthrax/O=Python Software Foundation/CN=dirname example, URI:https://www.python.org/, IP Address:127.0.0.1, IP Address:0:0:0:0:0:0:0:1, Registered ID:1.2.3.4.5
            X509v3 Key Usage: critical
                Digital Signature, Key Encipherment
            X509v3 Extended Key Usage: 
                TLS Web Server Authentication, TLS Web Client Authentication
            X509v3 Basic Constraints: critical
                CA:FALSE
            X509v3 Subject Key Identifier: 
                C9:94:32:84:F0:46:1D:32:A0:1A:AB:A6:67:A7:98:72:B7:60:32:EF
            X509v3 Authority Key Identifier: 
                keyid:1F:D2:DD:83:47:7D:60:07:C3:9C:D5:BA:76:A6:F4:D4:86:9B:76:4B
                DirName:/C=XY/O=Python Software Foundation CA/CN=our-ca-server
                serial:CB:2D:80:99:5A:69:52:5B

            Authority Information Access: 
                CA Issuers - URI:http://testca.pythontest.net/testca/pycacert.cer
                OCSP - URI:http://testca.pythontest.net/testca/ocsp/

            X509v3 CRL Distribution Points: 

                Full Name:
                  URI:http://testca.pythontest.net/testca/revocation.crl

    Signature Algorithm: sha256WithRSAEncryption
         6c:f6:9f:0e:d3:38:8e:f7:9b:da:16:6a:0a:31:2d:c2:af:7a:
         90:e1:ce:01:45:95:c2:a6:4a:c8:73:13:db:c6:4f:33:91:36:
         1e:4a:3c:f7:5c:bd:41:e5:af:0c:9a:ec:d0:b0:f7:ac:0f:0e:
         26:e5:fd:99:30:73:54:55:82:43:0a:a4:8c:b1:35:2a:bc:9e:
         91:c2:99:83:4f:73:4c:70:e7:16:89:53:22:b7:cd:08:ae:04:
         71:94:a8:70:ac:69:e6:42:88:05:20:34:17:8d:a9:f6:e5:7e:
         fe:51:51:f3:72:ba:25:50:7c:cd:c4:ed:70:d0:02:cc:b0:4f:
         67:d3:35:27:81:0c:8c:ea:68:34:ce:fd:da:60:8e:9d:71:54:
         54:2e:ad:2e:8a:b7:58:e6:be:90:2a:43:70:08:25:f9:67:ce:
         fe:e8:ab:2e:db:6a:bd:72:8a:fb:16:ad:51:05:8e:7c:a4:8b:
         b1:b4:5b:4d:ce:20:75:fb:0e:ee:d8:96:98:e9:18:79:27:99:
         bb:4d:8a:a8:e9:69:11:c8:40:6c:9b:df:9f:0c:e2:4f:a5:d0:
         1a:07:73:fa:fe:db:70:4d:0e:67:8e:27:3d:eb:68:0b:b1:8f:
         c6:e0:2a:ce:2c:a0:94:2d:e7:5e:14:2b:c1:ca:82:a8:f3:4f:
         7d:c7:e4:23:79:d7:9b:81:7e:5f:6a:4c:27:e5:d6:fe:de:06:
         a5:85:3b:c8:07:3c:15:9d:5d:2b:48:10:dd:f2:ab:a3:2d:6e:
         84:06:00:b9:3e:73:61:c6:40:bb:5c:cd:27:bd:9b:03:de:48:
         85:69:80:bb:b5:b6:af:b4:2e:0f:f8:b9:d0:d7:9d:de:9b:cd:
         5f:6b:ab:86:62:7f:f1:9c:a1:34:6b:36:af:8a:d9:b1:23:cb:
         63:bf:27:c0:2b:97:49:06:ff:0f:bb:bd:3d:3b:56:90:1c:7d:
         80:47:99:94:c0:dd:c4:4d:3e:8c:08:6f:15:79:9d:63:91:ab:
         49:52:ce:dd:be:e0
-----BEGIN CERTIFICATE-----
MIIHDzCCBXegAwIBAgIJAMstgJlaaVJfMA0GCSqGSIb3DQEBCwUAME0xCzAJBgNV
BAYTAlhZMSYwJAYDVQQKDB1QeXRob24gU29mdHdhcmUgRm91bmRhdGlvbiBDQTEW
MBQGA1UEAwwNb3VyLWNhLXNlcnZlcjAgFw0xODA4MjkxNDIzMTZaGA8yNTI1MTAy
ODE0MjMxNlowXTELMAkGA1UEBhMCWFkxFzAVBgNVBAcMDkNhc3RsZSBBbnRocmF4
MSMwIQYDVQQKDBpQeXRob24gU29mdHdhcmUgRm91bmRhdGlvbjEQMA4GA1UEAwwH
YWxsc2FuczCCAaIwDQYJKoZIhvcNAQEBBQADggGPADCCAYoCggGBAPUAUPMfpJ0G
lsdUhBjhnBXPwk0EVoh9dzfdfAw9HmEkLHhNl8QtwuK1EL+3QVBVhCh1ojSiP/X3
xsDyFBIgo51+XYPoRX/xnTaChmnSvxeJ8dFrowhAKTVeeqQ4rLRhS70RU1ItORwl
t3JJRWqimRIkaiu2pR1F/uvbh7lfEmcaY1ZPTR71nbR3rLb5VJ3vWgY8aC/ajqYW
haczjTOKPjgEdHpm933iHPup335Jl/oVm0V5kVQ691MzvcxXgmChLoBe8MBvLkBz
CxgNfUIm0gep8vZV4m5jYiiKoOlWJlrQvwihKaCZGCGZ51zp8dgR0XZLhtuR2kZj
crdS9r9krmzt9rSDJNFso8BIA9E2TOsg5Y91OGSkCJCW8nqpDC+EiS/Y11KsPXfQ
5pdKMbzCbgQwWAjTPpGB5uVZ97g94jL/6ss3prj8ACrIZLzr1MaOP2UKA0o8hR+Q
qDtD0iHugdxFRsYGLcXtrJ5og6Uhmv4aUnrc6YdyczgWdAY/WmuQ4wIDAQABo4IC
3jCCAtowggEwBgNVHREEggEnMIIBI4IHYWxsc2Fuc6AeBgMqAwSgFwwVc29tZSBv
dGhlciBpZGVudGlmaWVyoDUGBisGAQUCAqArMCmgEBsOS0VSQkVST1MuUkVBTE2h
FTAToAMCAQGhDDAKGwh1c2VybmFtZYEQdXNlckBleGFtcGxlLm9yZ4IPd3d3LmV4
YW1wbGUub3JnpGcwZTELMAkGA1UEBhMCWFkxFzAVBgNVBAcMDkNhc3RsZSBBbnRo
cmF4MSMwIQYDVQQKDBpQeXRob24gU29mdHdhcmUgRm91bmRhdGlvbjEYMBYGA1UE
AwwPZGlybmFtZSBleGFtcGxlhhdodHRwczovL3d3dy5weXRob24ub3JnL4cEfwAA
AYcQAAAAAAAAAAAAAAAAAAAAAYgEKgMEBTAOBgNVHQ8BAf8EBAMCBaAwHQYDVR0l
BBYwFAYIKwYBBQUHAwEGCCsGAQUFBwMCMAwGA1UdEwEB/wQCMAAwHQYDVR0OBBYE
FMmUMoTwRh0yoBqrpmenmHK3YDLvMH0GA1UdIwR2MHSAFB/S3YNHfWAHw5zVunam
9NSGm3ZLoVGkTzBNMQswCQYDVQQGEwJYWTEmMCQGA1UECgwdUHl0aG9uIFNvZnR3
YXJlIEZvdW5kYXRpb24gQ0ExFjAUBgNVBAMMDW91ci1jYS1zZXJ2ZXKCCQDLLYCZ
WmlSWzCBgwYIKwYBBQUHAQEEdzB1MDwGCCsGAQUFBzAChjBodHRwOi8vdGVzdGNh
LnB5dGhvbnRlc3QubmV0L3Rlc3RjYS9weWNhY2VydC5jZXIwNQYIKwYBBQUHMAGG
KWh0dHA6Ly90ZXN0Y2EucHl0aG9udGVzdC5uZXQvdGVzdGNhL29jc3AvMEMGA1Ud
HwQ8MDowOKA2oDSGMmh0dHA6Ly90ZXN0Y2EucHl0aG9udGVzdC5uZXQvdGVzdGNh
L3Jldm9jYXRpb24uY3JsMA0GCSqGSIb3DQEBCwUAA4IBgQBs9p8O0ziO95vaFmoK
MS3Cr3qQ4c4BRZXCpkrIcxPbxk8zkTYeSjz3XL1B5a8MmuzQsPesDw4m5f2ZMHNU
VYJDCqSMsTUqvJ6RwpmDT3NMcOcWiVMit80IrgRxlKhwrGnmQogFIDQXjan25X7+
UVHzcrolUHzNxO1w0ALMsE9n0zUngQyM6mg0zv3aYI6dcVRULq0uirdY5r6QKkNw
CCX5Z87+6Ksu22q9cor7Fq1RBY58pIuxtFtNziB1+w7u2JaY6Rh5J5m7TYqo6WkR
yEBsm9+fDOJPpdAaB3P6/ttwTQ5njic962gLsY/G4CrOLKCULedeFCvByoKo8099
x+QjedebgX5fakwn5db+3galhTvIBzwVnV0rSBDd8qujLW6EBgC5PnNhxkC7XM0n
vZsD3kiFaYC7tbavtC4P+LnQ153em81fa6uGYn/xnKE0azavitmxI8tjvyfAK5dJ
Bv8Pu709O1aQHH2AR5mUwN3ETT6MCG8VeZ1jkatJUs7dvuA=
-----END CERTIFICATE-----
