-----BEGIN PRIVATE KEY-----
MIIG/QIBADANBgkqhkiG9w0BAQEFAASCBucwggbjAgEAAoIBgQCwvJ2FV3qO6Tk7
EVUGHs87k3L5owSw09X4iYien5Q7gxgDhE2RDMGse/rd9SuJRBK8XItbBmb9medA
ADsMcUcyKGRz3BmAn8XrSDJbiMdzkb5sx5nmDeTKRhDuIk9ZFjxEmy87UbEuKDPX
5T97zIw5pbu+tSKoWKtWQAAZeuYY7hR6Wv30Evk/4WnbSEijJ4f1l0SxggF3j9JX
0cDblq22QBR31MumkyycI7IzL8d/enW2x/YJRzJG79C96mveTlTBXu94mf3kcdaM
tNA2/9robhuyLCCGzwdB2T4ssFcdxa6hQHRnnsUKLdyEIEEnYML8FlmiGyayclo1
hXfPOdDBbqMxI8l+asQbQqTYbQvnFWpF3Set81MDnSbgflZYKw9APpFbsn7lu5XJ
k+bb+V44qSGSW5iA2n7ekWY3ifZqjYWpRKg3/+xraCOtLSU4YtfRzwNimdacevPR
EDmNJt+ikrctO3lk/D0WkBIUzdLM7JE2Gh8gx6JZBE468kP+BisCAwEAAQKCAYAW
ui/uKBaxmVpBDJ8zafOE72wsoAMIE5BYz/mKnxjPzQbh2jn4pNGkXaPKtoQXuHJJ
rgOZpqlzLpRnTYr1CagkfL9A4D/t+MiEfhnuXW4l9XWtxWk2r/izmO5aa9JqXAqk
rpQUpmezeNCvOw1pMnT3K3yI2gA6nSnDWKLqo+btCR4HB1ElpD77MQCM21nD6V8k
J4SvkvlJ/RZehrGsoKQhY1IpKsCENjmEBq8cF/vT79UtYRTJkqdA1LFc4Bq+UVzW
S77PJf3sbzQ1RBt+1vEGJIFOVE5eBmYRAReu7fl4D7hZOKAdUND0SwN7thLBVPSu
9A5e8K0Vsw02HllNST3VoTTY3OT6lg1uf8PpJqTwctuZ+erHdMGfPnbIBtrhCcHA
9XNZlzaSdOEqWWW7b1MM7wfaAkssmt3ZgekIi8a43U+ItbarHR07O+0HDZ/tJNW1
/WfJNJGnghVL5SeqcoEW+6zRgAUnzzA/9q3SbF2t3UQidSNVfVzKhCnRTt4Q2WEC
gcEA81oef7T0EZZl+qranX1ARC13UYOfGJ7kae7F4JE+ubitCIMS6HRGSs8+GCag
aaaUOvHbshYpOwlAJmBWkwhD538TvmoiFjVsTL4D3rZdeyUkHp4ck6PJrJl9O7Y2
IH22BKDg4GY/93m8Kf1QojrwPLWyKutzU7K9Gch6eYKZeBGbWd2C3ZPaqJlV5EPn
FufsRlntzbH6tux/ROfAeD9U0nKrGzecYvm8kUKSPimy/CTIQ0Kuz4JSb+HNPHft
u2tbAoHBALnsKGXj7CIay4MyFVglzyEIIPxMD1kLEHa3sMQTviRoNAXXbvHt3cLD
OKZZ7SUi7eJH3DR5y7WD95ZSdWDFKho14HL3SCScQb87n1uhIbydF67PMhrCm+uC
sea1ghUhWet/bOS5+Dmd6VInCHR/7mBU26Sm1kMi4gbj//1EffJUx1i7InPVVR1S
7p8+36hrEXMKogMj2ypTbiOHaWjWtSmryya3Xcw5MpInbKCjAeNXhl9ba1ZC/CMQ
P3AqQ6NZcQKBwHkx9aSGe1NTAuDvPEdY/Ku3tQfstExvvbQgTX5E9+dI2Sw3EzCf
z+4r/nHKsvNLGeGtWEv+C3Sya7dxHUzGvgLJ4AxiES3cV15097pwOmg9HBr/hZ3l
4WfLXXpiidxunzr44GYBpnPateJ3nTPehIzHtL75WgtiJhl0JcLkTwhkRGliD23I
2ApFq2guhSV8RcjXur5JmGKHr+6iONHqQJU6tIqujH0igU4ayHibDd/TdcVBrYv9
DI9Z9nvaApTnpwKBwQCyczgHK+++gEdrwkt4Urnu83Vtk7d7eMIxoHfaizSKjzW3
kaKcNPoP8P7TtCaI6XC4Ks7x0yEyNNsT/ktJOZUCmUm4Lx6gfRYh7aEz+oF+Hq3X
jGmEA9xR/Ryx2u9jRqKfBaxIETNuYeHLh0l3QD9VWL2E2Nl4kOevQ3G17uKQEM1R
njQgR9etEKeWU2uqpDGYYNFGAElg47koAtWq2cICoDCaFY/C7/dZDtwVhr/OLHj9
16o7nomRQgwRpY9MHxECgcA0DQN4QdlBRi5VDRlYfrCGG1jsUkUDojJBEm7PWx7G
IjwQWB4XpO7nXthH8fLOyXk1pIUilOjoh33MCtijZhNfMTfr227aPSWivRtxTz+m
+5oqGwyMRLeMfVsChLyP5QyTZS1AYFvG/YC88sR0aFWchMcbaoX+moMN70HuW/to
ffAAohjKZ4llxLg1nUbA2MEkz2FRgsahg92V13foXh1kx3QG/jXBgoTLmsU6cMWs
bjn2Hm5oLKhmbhn5yGLXzWw=
-----END PRIVATE KEY-----
Certificate:
    Data:
        Version: 3 (0x2)
        Serial Number:
            cb:2d:80:99:5a:69:52:5f
        Signature Algorithm: sha256WithRSAEncryption
        Issuer: C=XY, O=Python Software Foundation CA, CN=our-ca-server
        Validity
            Not Before: Aug 29 14:23:16 2018 GMT
            Not After : Oct 28 14:23:16 2525 GMT
        Subject: C=XY, L=Castle Anthrax, O=Python Software Foundation, CN=allsans
        Subject Public Key Info:
            Public Key Algorithm: rsaEncryption
                Public-Key: (3072 bit)
                Modulus:
                    00:b0:bc:9d:85:57:7a:8e:e9:39:3b:11:55:06:1e:
                    cf:3b:93:72:f9:a3:04:b0:d3:d5:f8:89:88:9e:9f:
                    94:3b:83:18:03:84:4d:91:0c:c1:ac:7b:fa:dd:f5:
                    2b:89:44:12:bc:5c:8b:5b:06:66:fd:99:e7:40:00:
                    3b:0c:71:47:32:28:64:73:dc:19:80:9f:c5:eb:48:
                    32:5b:88:c7:73:91:be:6c:c7:99:e6:0d:e4:ca:46:
                    10:ee:22:4f:59:16:3c:44:9b:2f:3b:51:b1:2e:28:
                    33:d7:e5:3f:7b:cc:8c:39:a5:bb:be:b5:22:a8:58:
                    ab:56:40:00:19:7a:e6:18:ee:14:7a:5a:fd:f4:12:
                    f9:3f:e1:69:db:48:48:a3:27:87:f5:97:44:b1:82:
                    01:77:8f:d2:57:d1:c0:db:96:ad:b6:40:14:77:d4:
                    cb:a6:93:2c:9c:23:b2:33:2f:c7:7f:7a:75:b6:c7:
                    f6:09:47:32:46:ef:d0:bd:ea:6b:de:4e:54:c1:5e:
                    ef:78:99:fd:e4:71:d6:8c:b4:d0:36:ff:da:e8:6e:
                    1b:b2:2c:20:86:cf:07:41:d9:3e:2c:b0:57:1d:c5:
                    ae:a1:40:74:67:9e:c5:0a:2d:dc:84:20:41:27:60:
                    c2:fc:16:59:a2:1b:26:b2:72:5a:35:85:77:cf:39:
                    d0:c1:6e:a3:31:23:c9:7e:6a:c4:1b:42:a4:d8:6d:
                    0b:e7:15:6a:45:dd:27:ad:f3:53:03:9d:26:e0:7e:
                    56:58:2b:0f:40:3e:91:5b:b2:7e:e5:bb:95:c9:93:
                    e6:db:f9:5e:38:a9:21:92:5b:98:80:da:7e:de:91:
                    66:37:89:f6:6a:8d:85:a9:44:a8:37:ff:ec:6b:68:
                    23:ad:2d:25:38:62:d7:d1:cf:03:62:99:d6:9c:7a:
                    f3:d1:10:39:8d:26:df:a2:92:b7:2d:3b:79:64:fc:
                    3d:16:90:12:14:cd:d2:cc:ec:91:36:1a:1f:20:c7:
                    a2:59:04:4e:3a:f2:43:fe:06:2b
                Exponent: 65537 (0x10001)
        X509v3 extensions:
            X509v3 Subject Alternative Name: 
                DNS:allsans, othername: 1.2.3.4::some other identifier, othername: 1.3.6.1.5.2.2::<unsupported>, email:user@example.org, DNS:www.example.org, DirName:/C=XY/L=Castle Anthrax/O=Python Software Foundation/CN=dirname example, URI:https://www.python.org/, IP Address:127.0.0.1, IP Address:0:0:0:0:0:0:0:1, Registered ID:1.2.3.4.5
            X509v3 Key Usage: critical
                Digital Signature, Key Encipherment
            X509v3 Extended Key Usage: 
                TLS Web Server Authentication, TLS Web Client Authentication
            X509v3 Basic Constraints: critical
                CA:FALSE
            X509v3 Subject Key Identifier: 
                17:99:D9:0F:48:CD:2B:7C:F5:E5:A7:47:95:6A:5B:EC:60:49:B5:DA
            X509v3 Authority Key Identifier: 
                keyid:B6:58:71:40:A1:55:C5:4E:2E:65:84:44:A4:C6:5B:B6:44:9B:D9:E0
                DirName:/C=XY/O=Python Software Foundation CA/CN=our-ca-server
                serial:CB:2D:80:99:5A:69:52:5B
            Authority Information Access: 
                CA Issuers - URI:http://testca.pythontest.net/testca/pycacert.cer
                OCSP - URI:http://testca.pythontest.net/testca/ocsp/
            X509v3 CRL Distribution Points: 
                Full Name:
                  URI:http://testca.pythontest.net/testca/revocation.crl
    Signature Algorithm: sha256WithRSAEncryption
    Signature Value:
        2a:79:d6:b4:f1:b6:25:68:10:4b:79:97:b6:84:3b:a2:ca:ea:
        e5:a5:bb:ad:b2:ae:99:d9:8b:35:b2:70:11:25:59:55:fb:42:
        b3:fe:cb:0a:6a:03:b0:d9:8b:8d:82:09:bf:42:75:f4:76:b3:
        de:b8:e6:b4:89:7e:2b:9f:ce:c3:09:0b:1d:58:21:7b:51:e3:
        c8:db:bd:bb:a3:d4:8b:24:ce:99:c4:5c:fe:8e:91:4d:e4:40:
        dd:54:9f:9c:5e:ca:ed:2d:cf:47:55:db:8b:26:50:25:c7:02:
        29:ac:c0:6c:42:06:7b:4f:c7:2c:34:6f:8b:00:95:ad:d3:10:
        ee:fb:c0:f6:3f:c8:df:74:b1:e7:d3:17:e8:bf:65:3a:c1:4e:
        e5:1c:b0:2a:2b:8f:d6:73:e6:27:34:86:3a:98:05:a5:c0:a7:
        a7:94:62:5c:97:53:13:d3:57:bf:e0:ad:70:6f:47:ce:64:a8:
        06:5d:59:c1:99:c3:16:06:21:f4:84:3d:b0:90:e7:89:24:30:
        ed:e0:b2:e6:f8:15:92:45:07:32:32:7e:3f:8c:44:90:c5:c2:
        e3:f5:1c:c6:af:9b:82:38:c1:41:06:5a:83:7a:c6:62:a4:f2:
        af:b2:5f:10:d2:eb:3c:36:b7:69:59:65:e5:a6:ea:16:07:a2:
        5b:07:ce:8a:e4:87:4b:37:2a:ba:2a:60:b2:6b:c1:f1:f3:82:
        b8:58:dd:51:33:37:ec:b0:9b:a3:4c:0e:84:82:f8:ee:c1:c7:
        20:36:39:5a:b6:b6:bf:95:c9:dc:6a:21:44:90:c5:78:1e:97:
        ad:cc:91:a4:71:75:c1:45:a9:e1:84:58:4a:76:47:5e:ac:3a:
        89:db:bd:f4:3e:ef:f5:c5:f2:9d:f4:c7:25:d3:01:b0:dd:13:
        08:bb:ba:f3:8f:55:61:ce:b7:73:cd:9b:a8:67:7c:4f:28:d7:
        73:f3:ab:53:03:4e:e0:69:80:6e:2b:81:e0:d0:0b:53:5b:a5:
        c9:59:c8:b1:a6:96
-----BEGIN CERTIFICATE-----
MIIHDzCCBXegAwIBAgIJAMstgJlaaVJfMA0GCSqGSIb3DQEBCwUAME0xCzAJBgNV
BAYTAlhZMSYwJAYDVQQKDB1QeXRob24gU29mdHdhcmUgRm91bmRhdGlvbiBDQTEW
MBQGA1UEAwwNb3VyLWNhLXNlcnZlcjAgFw0xODA4MjkxNDIzMTZaGA8yNTI1MTAy
ODE0MjMxNlowXTELMAkGA1UEBhMCWFkxFzAVBgNVBAcMDkNhc3RsZSBBbnRocmF4
MSMwIQYDVQQKDBpQeXRob24gU29mdHdhcmUgRm91bmRhdGlvbjEQMA4GA1UEAwwH
YWxsc2FuczCCAaIwDQYJKoZIhvcNAQEBBQADggGPADCCAYoCggGBALC8nYVXeo7p
OTsRVQYezzuTcvmjBLDT1fiJiJ6flDuDGAOETZEMwax7+t31K4lEErxci1sGZv2Z
50AAOwxxRzIoZHPcGYCfxetIMluIx3ORvmzHmeYN5MpGEO4iT1kWPESbLztRsS4o
M9flP3vMjDmlu761IqhYq1ZAABl65hjuFHpa/fQS+T/hadtISKMnh/WXRLGCAXeP
0lfRwNuWrbZAFHfUy6aTLJwjsjMvx396dbbH9glHMkbv0L3qa95OVMFe73iZ/eRx
1oy00Db/2uhuG7IsIIbPB0HZPiywVx3FrqFAdGeexQot3IQgQSdgwvwWWaIbJrJy
WjWFd8850MFuozEjyX5qxBtCpNhtC+cVakXdJ63zUwOdJuB+VlgrD0A+kVuyfuW7
lcmT5tv5XjipIZJbmIDaft6RZjeJ9mqNhalEqDf/7GtoI60tJThi19HPA2KZ1px6
89EQOY0m36KSty07eWT8PRaQEhTN0szskTYaHyDHolkETjryQ/4GKwIDAQABo4IC
3jCCAtowggEwBgNVHREEggEnMIIBI4IHYWxsc2Fuc6AeBgMqAwSgFwwVc29tZSBv
dGhlciBpZGVudGlmaWVyoDUGBisGAQUCAqArMCmgEBsOS0VSQkVST1MuUkVBTE2h
FTAToAMCAQGhDDAKGwh1c2VybmFtZYEQdXNlckBleGFtcGxlLm9yZ4IPd3d3LmV4
YW1wbGUub3JnpGcwZTELMAkGA1UEBhMCWFkxFzAVBgNVBAcMDkNhc3RsZSBBbnRo
cmF4MSMwIQYDVQQKDBpQeXRob24gU29mdHdhcmUgRm91bmRhdGlvbjEYMBYGA1UE
AwwPZGlybmFtZSBleGFtcGxlhhdodHRwczovL3d3dy5weXRob24ub3JnL4cEfwAA
AYcQAAAAAAAAAAAAAAAAAAAAAYgEKgMEBTAOBgNVHQ8BAf8EBAMCBaAwHQYDVR0l
BBYwFAYIKwYBBQUHAwEGCCsGAQUFBwMCMAwGA1UdEwEB/wQCMAAwHQYDVR0OBBYE
FBeZ2Q9IzSt89eWnR5VqW+xgSbXaMH0GA1UdIwR2MHSAFLZYcUChVcVOLmWERKTG
W7ZEm9ngoVGkTzBNMQswCQYDVQQGEwJYWTEmMCQGA1UECgwdUHl0aG9uIFNvZnR3
YXJlIEZvdW5kYXRpb24gQ0ExFjAUBgNVBAMMDW91ci1jYS1zZXJ2ZXKCCQDLLYCZ
WmlSWzCBgwYIKwYBBQUHAQEEdzB1MDwGCCsGAQUFBzAChjBodHRwOi8vdGVzdGNh
LnB5dGhvbnRlc3QubmV0L3Rlc3RjYS9weWNhY2VydC5jZXIwNQYIKwYBBQUHMAGG
KWh0dHA6Ly90ZXN0Y2EucHl0aG9udGVzdC5uZXQvdGVzdGNhL29jc3AvMEMGA1Ud
HwQ8MDowOKA2oDSGMmh0dHA6Ly90ZXN0Y2EucHl0aG9udGVzdC5uZXQvdGVzdGNh
L3Jldm9jYXRpb24uY3JsMA0GCSqGSIb3DQEBCwUAA4IBgQAqeda08bYlaBBLeZe2
hDuiyurlpbutsq6Z2Ys1snARJVlV+0Kz/ssKagOw2YuNggm/QnX0drPeuOa0iX4r
n87DCQsdWCF7UePI2727o9SLJM6ZxFz+jpFN5EDdVJ+cXsrtLc9HVduLJlAlxwIp
rMBsQgZ7T8csNG+LAJWt0xDu+8D2P8jfdLHn0xfov2U6wU7lHLAqK4/Wc+YnNIY6
mAWlwKenlGJcl1MT01e/4K1wb0fOZKgGXVnBmcMWBiH0hD2wkOeJJDDt4LLm+BWS
RQcyMn4/jESQxcLj9RzGr5uCOMFBBlqDesZipPKvsl8Q0us8NrdpWWXlpuoWB6Jb
B86K5IdLNyq6KmCya8Hx84K4WN1RMzfssJujTA6EgvjuwccgNjlatra/lcncaiFE
kMV4HpetzJGkcXXBRanhhFhKdkderDqJ2730Pu/1xfKd9Mcl0wGw3RMIu7rzj1Vh
zrdzzZuoZ3xPKNdz86tTA07gaYBuK4Hg0AtTW6XJWcixppY=
-----END CERTIFICATE-----
