-----BEGIN PRIVATE KEY-----
MIIG/AIBADANBgkqhkiG9w0BAQEFAASCBuYwggbiAgEAAoIBgQCuGrs56rAJksIF
swLbMVpJcKzR28QfYbBa+XXOBIgNWL3ALwstayDDoCnL9iouRP3ETrTShqWT+W8/
w2fe2PzAlJr0gTa+EvNlN92U7g4WaJaPZzC6h9xC+BbELHd/Kmp3Nai1qA+28AhZ
R8uczDtSZq0bijRAiTj7kTBbkAqdLwqyE+Wl2r5pOatc5mOkAv7Z4cOsbqef+euz
BuBtRTNyg8oO4m672oYeH3vHyPjCuoeDq5a1TXbZVYcqU3Dx5aK9wTTV8uYZAbez
uYvuyadO4IRLqNMxjcWfAVRCjyiz6M4BdtTYTRgRgUEDcduk6lcnSVwm0h+eVrp8
vzOrswgyOxXTG7lBC3VijcrXfFZYZlkSrGGo3Nf+79RhPfapMbZSZjJCuXx6023H
z9t/CYjjuN3svevPzCQNVlwjlmrzlgvU/VncAyes2KUHwv5veNLCjPPlrJiNPRad
uCtvQME44g5A3P7y6UFXcvkUgf+pXo4F2Hc1zxXLf+GxsfYDDD8CAwEAAQKCAYAM
z7XAPMdIZQ626aXHqFmK9uoYpTHI12DpSNsE1muGg+WumyeY532pN4Nr2UjgT75W
sC35IeRUP7ISgJgHm3L53tWKMWnsUausYpCBEYVi275cfgzlZPLt0KCoPddrOZ1M
+VtZRq0lWoNawoA2oQaqeRi64pAWwaI6TMRAsJg/WcNROEqZSj/hsVctRlzFqFzF
fqnt6dSW3oacDWD9WW7AOfdn4fyhASMGW2251U2M0rn/E+TKoZEhy/vevvYcLrgM
Zn+ClZRJjPXEQufr+mBxjSP1LOh6t3sd2I4TsbA2HXdg9ZK/LKxMTY7HoT9Y9Fam
XjqYTUOD/rm6Evtdauw7Gj4s1+YWJeAPXDlXENEfC9ObykyQLuF0Qo1CQ/91TUSr
nlprP1Q8dVyRZpEouGaQU8M5wVpVQ8mMWcAwub3z8toSOGde9aoOCrBx0LegkvPa
16GfcLZfTuAI3Tt7OYOCwCTqgrFvgH3m1BZ2FoDVYLoijmvjBSIbWzdikl790ikC
gcEA2P/wnNYZzl2ao9WNnkryHZAH2By+SOcBDkPaYLKh6nWCUwTwc3/AQp8I6lxm
b+cjKxf3wMod17VEvD2S05MVQdpcpPZcM2tC90+V/Qg+waL94hFa8bU+D9q8DIbN
8CFf0Rh+PSKkM7wiSS7h+T6YfGIIFXeM4DyFogsX8E0FF2KWiVNFJp49xejLh2ZQ
vn3O+gBuomFTSgDPIz7Pn/iUEq30c3BQmEKbqznorhvbd7YNhuYreKZE8KYVaaP4
6Z1XAoHBAM1lMjkblXmUyCREEQ82MtIn7dmAywIv66UP+TgA5Pgg9j7xhd0YieUH
Di2FGILFfJ7MFRa0OQXr0c+moaVVjnLcZT/EHczxwA/5xRhXeDyMfDPE3VZHSRQp
X1CI4lEjjlRW9uconaFvhRqcRgdXn9zFdeqRIrtRyQnlBgNa4TfqM1WQ4zAfqgfP
Tz4anizZViDbD5jmyqLoOm73k0I8l2kOIvOIjaTJjip1WkjHm9OCd1mtm4cr41Qv
TeYFQL7PWQKBwCuC3mdEUvZbNIfHaVclJfkhiUEfOlR55W9L0bzz9J2DpHcrFV/D
bPSu2OXNU0j66sVYT/hbTrKTCU5JdmhwJKIIu+zj7UbuKgZW8fdDsPm4yfmLi1XO
Bry9GlnUqfSNbJ4LsDxn9s7c2W8dNHh6wa6nJYHQb/ICkLUWTl2DxBKVVSQCC2qb
7j0B2dWzgVtA9MCSV5y9sSq0kNQ7Yvxrpp08Pjjre22cZYRm3y4SLeaKHZpACtVt
WYN7ee2t0FpfjwKBwE5oRSXby9Hf5A9EFKcT746eQ4P2UIkDNheK435niQDXxGj+
1jUyuuE9MkJaPqMdNJeCHMLQBbym6y8z0x1Ebd6XF+ehvCaSWtk+ZekG6xViI7+3
dS8Mg2844/PgbVTAGANGN3bC4HnSEqO36FvBLXufvYXP5cxQSkiGryb0uGkZ9ILD
jpa+X7AfiYaRrrQ8O07LkUazQ8Owly3pQMPWUY5/IQSKqlevwZ+fsNl7qZayhVEs
nuSY8m0eqcQXWUH98QKBwEWeKj+sGHholQ4IeAxwlxfLzsK7wEIQm6gDG0CCzgJv
W3xYlwiUT/bPSG/fht1kLbC8zmbeSddkjP50QRMXqgH1q/XPCZRZVdAue6nZxUpu
ofxcEAx8uqgtajIkuX6J5CvphuCOezjP+crIERVb8MnmPr2AHbvp3MqSLBFehdHh
2E3aU7MuZIzlMVd13QgcMnHDTcZgV7Jww/l7d9ZUPv1wFwhGl7EZWlGp+5uS8o8/
A8AvfrCIumoEzZ+jfj8HKA==
-----END PRIVATE KEY-----
Certificate:
    Data:
        Version: 3 (0x2)
        Serial Number:
            cb:2d:80:99:5a:69:52:5f
        Signature Algorithm: sha256WithRSAEncryption
        Issuer: C=XY, O=Python Software Foundation CA, CN=our-ca-server
        Validity
            Not Before: Aug 29 14:23:16 2018 GMT
            Not After : Oct 28 14:23:16 2037 GMT
        Subject: C=XY, L=Castle Anthrax, O=Python Software Foundation, CN=allsans
        Subject Public Key Info:
            Public Key Algorithm: rsaEncryption
                Public-Key: (3072 bit)
                Modulus:
                    00:ae:1a:bb:39:ea:b0:09:92:c2:05:b3:02:db:31:
                    5a:49:70:ac:d1:db:c4:1f:61:b0:5a:f9:75:ce:04:
                    88:0d:58:bd:c0:2f:0b:2d:6b:20:c3:a0:29:cb:f6:
                    2a:2e:44:fd:c4:4e:b4:d2:86:a5:93:f9:6f:3f:c3:
                    67:de:d8:fc:c0:94:9a:f4:81:36:be:12:f3:65:37:
                    dd:94:ee:0e:16:68:96:8f:67:30:ba:87:dc:42:f8:
                    16:c4:2c:77:7f:2a:6a:77:35:a8:b5:a8:0f:b6:f0:
                    08:59:47:cb:9c:cc:3b:52:66:ad:1b:8a:34:40:89:
                    38:fb:91:30:5b:90:0a:9d:2f:0a:b2:13:e5:a5:da:
                    be:69:39:ab:5c:e6:63:a4:02:fe:d9:e1:c3:ac:6e:
                    a7:9f:f9:eb:b3:06:e0:6d:45:33:72:83:ca:0e:e2:
                    6e:bb:da:86:1e:1f:7b:c7:c8:f8:c2:ba:87:83:ab:
                    96:b5:4d:76:d9:55:87:2a:53:70:f1:e5:a2:bd:c1:
                    34:d5:f2:e6:19:01:b7:b3:b9:8b:ee:c9:a7:4e:e0:
                    84:4b:a8:d3:31:8d:c5:9f:01:54:42:8f:28:b3:e8:
                    ce:01:76:d4:d8:4d:18:11:81:41:03:71:db:a4:ea:
                    57:27:49:5c:26:d2:1f:9e:56:ba:7c:bf:33:ab:b3:
                    08:32:3b:15:d3:1b:b9:41:0b:75:62:8d:ca:d7:7c:
                    56:58:66:59:12:ac:61:a8:dc:d7:fe:ef:d4:61:3d:
                    f6:a9:31:b6:52:66:32:42:b9:7c:7a:d3:6d:c7:cf:
                    db:7f:09:88:e3:b8:dd:ec:bd:eb:cf:cc:24:0d:56:
                    5c:23:96:6a:f3:96:0b:d4:fd:59:dc:03:27:ac:d8:
                    a5:07:c2:fe:6f:78:d2:c2:8c:f3:e5:ac:98:8d:3d:
                    16:9d:b8:2b:6f:40:c1:38:e2:0e:40:dc:fe:f2:e9:
                    41:57:72:f9:14:81:ff:a9:5e:8e:05:d8:77:35:cf:
                    15:cb:7f:e1:b1:b1:f6:03:0c:3f
                Exponent: 65537 (0x10001)
        X509v3 extensions:
            X509v3 Subject Alternative Name: 
                DNS:allsans, othername: 1.2.3.4::some other identifier, othername: 1.3.6.1.5.2.2::<unsupported>, email:user@example.org, DNS:www.example.org, DirName:/C=XY/L=Castle Anthrax/O=Python Software Foundation/CN=dirname example, URI:https://www.python.org/, IP Address:127.0.0.1, IP Address:0:0:0:0:0:0:0:1, Registered ID:1.2.3.4.5
            X509v3 Key Usage: critical
                Digital Signature, Key Encipherment
            X509v3 Extended Key Usage: 
                TLS Web Server Authentication, TLS Web Client Authentication
            X509v3 Basic Constraints: critical
                CA:FALSE
            X509v3 Subject Key Identifier: 
                19:7F:ED:AF:F9:62:80:E8:41:47:F6:62:27:33:EF:83:3F:27:A0:BB
            X509v3 Authority Key Identifier: 
                keyid:B4:91:DA:7B:B6:9A:66:F5:39:93:E1:9F:AD:46:4C:51:8E:60:F8:E8
                DirName:/C=XY/O=Python Software Foundation CA/CN=our-ca-server
                serial:CB:2D:80:99:5A:69:52:5B
            Authority Information Access: 
                CA Issuers - URI:http://testca.pythontest.net/testca/pycacert.cer
                OCSP - URI:http://testca.pythontest.net/testca/ocsp/
            X509v3 CRL Distribution Points: 
                Full Name:
                  URI:http://testca.pythontest.net/testca/revocation.crl
    Signature Algorithm: sha256WithRSAEncryption
    Signature Value:
        17:43:a3:ec:3e:c7:8d:8e:e3:03:ea:8a:4b:0c:8e:24:9c:60:
        9b:84:a1:ce:78:da:33:e9:2e:bc:d0:93:b0:ea:49:c2:ae:6e:
        6a:18:4a:43:dc:09:d8:ec:f7:48:22:8f:f8:c4:f7:c3:22:e9:
        08:41:07:6f:b5:84:11:c1:47:8d:3b:08:18:d2:a8:d6:57:ba:
        22:33:98:b2:73:c0:54:75:38:d6:c0:74:ae:e2:6d:5a:b8:e2:
        72:b9:01:f3:68:d7:a9:fc:fe:1d:fa:cb:24:dc:f4:60:88:63:
        f4:fb:b5:06:ad:5b:74:15:d7:c7:39:5e:24:04:13:b3:13:61:
        ac:6c:f1:aa:2e:c2:d4:95:1c:72:99:e0:6d:d2:a3:3c:28:16:
        e0:fd:a6:fe:2a:a1:ad:6b:86:0e:f4:22:e8:db:cd:9e:ba:b7:
        2c:18:f7:c7:18:4a:6d:55:02:78:d1:47:ba:79:6e:3b:7e:5b:
        68:cc:f0:ae:4e:6d:76:ea:9e:a0:8c:e6:8e:04:91:94:e4:97:
        f1:1f:45:21:95:c4:dc:c5:9b:5b:e5:62:a9:d4:25:45:48:f4:
        37:90:3c:0e:72:5a:c9:33:fd:d1:cc:db:9c:c3:ea:a7:e0:cc:
        37:07:1f:d1:ed:f0:a2:f7:86:b7:bd:8a:ee:9c:1a:46:cf:a6:
        d4:ba:2f:34:d1:4c:e6:11:e1:b2:a9:32:82:8c:49:da:f5:c1:
        6d:99:42:59:67:d8:60:43:a5:c8:62:92:87:25:4a:fe:fa:d7:
        1c:2d:5d:79:df:b2:de:13:7e:e9:64:75:da:12:70:05:06:58:
        ef:d5:e5:70:38:d3:94:22:d4:09:bb:dd:b7:f5:ef:f6:e7:ee:
        e2:38:af:5f:42:43:95:34:7f:38:e1:6a:21:5e:b5:5d:02:b1:
        57:94:fb:0b:05:f1:4d:2d:93:72:9d:8d:ca:48:4e:0b:11:a2:
        3d:f4:bc:5b:fb:3c:86:01:fa:19:a9:44:9b:0a:f2:9f:2c:05:
        77:1a:e7:dc:f0:c6
-----BEGIN CERTIFICATE-----
MIIHDTCCBXWgAwIBAgIJAMstgJlaaVJfMA0GCSqGSIb3DQEBCwUAME0xCzAJBgNV
BAYTAlhZMSYwJAYDVQQKDB1QeXRob24gU29mdHdhcmUgRm91bmRhdGlvbiBDQTEW
MBQGA1UEAwwNb3VyLWNhLXNlcnZlcjAeFw0xODA4MjkxNDIzMTZaFw0zNzEwMjgx
NDIzMTZaMF0xCzAJBgNVBAYTAlhZMRcwFQYDVQQHDA5DYXN0bGUgQW50aHJheDEj
MCEGA1UECgwaUHl0aG9uIFNvZnR3YXJlIEZvdW5kYXRpb24xEDAOBgNVBAMMB2Fs
bHNhbnMwggGiMA0GCSqGSIb3DQEBAQUAA4IBjwAwggGKAoIBgQCuGrs56rAJksIF
swLbMVpJcKzR28QfYbBa+XXOBIgNWL3ALwstayDDoCnL9iouRP3ETrTShqWT+W8/
w2fe2PzAlJr0gTa+EvNlN92U7g4WaJaPZzC6h9xC+BbELHd/Kmp3Nai1qA+28AhZ
R8uczDtSZq0bijRAiTj7kTBbkAqdLwqyE+Wl2r5pOatc5mOkAv7Z4cOsbqef+euz
BuBtRTNyg8oO4m672oYeH3vHyPjCuoeDq5a1TXbZVYcqU3Dx5aK9wTTV8uYZAbez
uYvuyadO4IRLqNMxjcWfAVRCjyiz6M4BdtTYTRgRgUEDcduk6lcnSVwm0h+eVrp8
vzOrswgyOxXTG7lBC3VijcrXfFZYZlkSrGGo3Nf+79RhPfapMbZSZjJCuXx6023H
z9t/CYjjuN3svevPzCQNVlwjlmrzlgvU/VncAyes2KUHwv5veNLCjPPlrJiNPRad
uCtvQME44g5A3P7y6UFXcvkUgf+pXo4F2Hc1zxXLf+GxsfYDDD8CAwEAAaOCAt4w
ggLaMIIBMAYDVR0RBIIBJzCCASOCB2FsbHNhbnOgHgYDKgMEoBcMFXNvbWUgb3Ro
ZXIgaWRlbnRpZmllcqA1BgYrBgEFAgKgKzApoBAbDktFUkJFUk9TLlJFQUxNoRUw
E6ADAgEBoQwwChsIdXNlcm5hbWWBEHVzZXJAZXhhbXBsZS5vcmeCD3d3dy5leGFt
cGxlLm9yZ6RnMGUxCzAJBgNVBAYTAlhZMRcwFQYDVQQHDA5DYXN0bGUgQW50aHJh
eDEjMCEGA1UECgwaUHl0aG9uIFNvZnR3YXJlIEZvdW5kYXRpb24xGDAWBgNVBAMM
D2Rpcm5hbWUgZXhhbXBsZYYXaHR0cHM6Ly93d3cucHl0aG9uLm9yZy+HBH8AAAGH
EAAAAAAAAAAAAAAAAAAAAAGIBCoDBAUwDgYDVR0PAQH/BAQDAgWgMB0GA1UdJQQW
MBQGCCsGAQUFBwMBBggrBgEFBQcDAjAMBgNVHRMBAf8EAjAAMB0GA1UdDgQWBBQZ
f+2v+WKA6EFH9mInM++DPyeguzB9BgNVHSMEdjB0gBS0kdp7tppm9TmT4Z+tRkxR
jmD46KFRpE8wTTELMAkGA1UEBhMCWFkxJjAkBgNVBAoMHVB5dGhvbiBTb2Z0d2Fy
ZSBGb3VuZGF0aW9uIENBMRYwFAYDVQQDDA1vdXItY2Etc2VydmVyggkAyy2AmVpp
UlswgYMGCCsGAQUFBwEBBHcwdTA8BggrBgEFBQcwAoYwaHR0cDovL3Rlc3RjYS5w
eXRob250ZXN0Lm5ldC90ZXN0Y2EvcHljYWNlcnQuY2VyMDUGCCsGAQUFBzABhilo
dHRwOi8vdGVzdGNhLnB5dGhvbnRlc3QubmV0L3Rlc3RjYS9vY3NwLzBDBgNVHR8E
PDA6MDigNqA0hjJodHRwOi8vdGVzdGNhLnB5dGhvbnRlc3QubmV0L3Rlc3RjYS9y
ZXZvY2F0aW9uLmNybDANBgkqhkiG9w0BAQsFAAOCAYEAF0Oj7D7HjY7jA+qKSwyO
JJxgm4ShznjaM+kuvNCTsOpJwq5uahhKQ9wJ2Oz3SCKP+MT3wyLpCEEHb7WEEcFH
jTsIGNKo1le6IjOYsnPAVHU41sB0ruJtWrjicrkB82jXqfz+HfrLJNz0YIhj9Pu1
Bq1bdBXXxzleJAQTsxNhrGzxqi7C1JUccpngbdKjPCgW4P2m/iqhrWuGDvQi6NvN
nrq3LBj3xxhKbVUCeNFHunluO35baMzwrk5tduqeoIzmjgSRlOSX8R9FIZXE3MWb
W+ViqdQlRUj0N5A8DnJayTP90czbnMPqp+DMNwcf0e3woveGt72K7pwaRs+m1Lov
NNFM5hHhsqkygoxJ2vXBbZlCWWfYYEOlyGKShyVK/vrXHC1ded+y3hN+6WR12hJw
BQZY79XlcDjTlCLUCbvdt/Xv9ufu4jivX0JDlTR/OOFqIV61XQKxV5T7CwXxTS2T
cp2NykhOCxGiPfS8W/s8hgH6GalEmwrynywFdxrn3PDG
-----END CERTIFICATE-----
