-----BEGIN PRIVATE KEY-----
MIIG/QIBADANBgkqhkiG9w0BAQEFAASCBucwggbjAgEAAoIBgQCczEVv5D2UDtn6
DMmZ/uCWCLyL+K5xTZp/5j3cyISoaTuU1Ku3kD97eLgpHj4Fgk5ZJi21zsQqepCj
jAhBk6tj6RYUcnMbb8MuxUkQMEDW+5LfSyp+HCaetlHosWdhEDqX4kpJ5ajBwNRt
07mxQExtC4kcno0ut9rG5XzLN29XpCpRHlFFrntOgQAEoiz9/fc8qaTgb37RgGYP
Qsxh7PcRDRe4ZGx1l06Irr8Y+2W50zWCfkwCS3DaLDOKIjSOfPHNqmfcfsTpzrj8
330cdPklrMIuiBv+iGklCjkPZJiEhxvY2k6ERM4HAxxuPCivrH5MCeMNYvBVUcLr
GROm7JRXRllI/XubwwoAaAb+y+dZtCZ9AnzHIb+nyKiJxWAjzjR+QPL6jHrVWBVA
WTc83YP5FvxUXMfY3sVv9tNSCV3cpYOW5+iXcQzLuczXnOLRYk7p9wkb0/hk9KuK
4BMA90eBhvFMCFgHJ1/xJg2nFmBHPo/xbcwPG/ma5T/McA8mAlECAwEAAQKCAYAB
m29nxPNjod5Wm4xydWQYbZj/J0qkcyru/i1qpqyDbGa1sRNcg5A/A/8BPuPcWxhR
/hvwVeD5XX2/i2cnQuv6D3DQP1cSNCxQPanwzknP2k7IVqUmG0RDErPWuoDIhCnR
ljp0NPQsnj0fLhEkcbgG0xwx7KceUDigGsiTbatIvvBHGhQzrmTpqlVVdtMWvGRt
HQEJYuMuIw6IwALHyy3CITv5wh/Bec5OhNoFF8iUZceR4ZkGWf8bYWIa25xlzH6K
4rhOOh1G2ObHHTjhZq4mGXTHY1MEkAxXKWlR3DJc0Lh5E1UETSI6WBHWRb08iwQ5
AkLOPyMpt08xHFWbJqywvlxenpri+gjY3xbXqGNhyDYWHZqlQmJVnzxoUOuuHi2R
dO86IckUc4Thjbm7a6AilL9t8juNZvyeQUVgtVi25uPkm/cK6r5vo8y4UOUU41EN
NOathlF69gh93il4t6zJW9jPV2WENv1H/vhKUWKW6cabX3vy4rANwy3q4V//GDEC
gcEAuniGCHaEdSjV2sUHyt/yrCLbU6+eLTfNk6AQyXJk6Wrvj6g3gx90ewEq5i/C
ukmSKDslr9pupq8Z/UNfYHZfJfpwEsYvIZ8DdFSd62/h66DhIoEn1v3Lwt+aexgX
yGJHF0BG9JA2CU5Z5NGjlnQYqQBobO9uZMq62l15Ig1MAMHGL0ZYVvOqGZD7XvtC
4UnclK5kjp51Vd5rydEQxyi5qkyLl9Q6T0FQXOphGIOd8ifYeUGe7YC72cFPevdx
wDXZAoHBANdDVvCMrjmzdrS6td39/2nHTeerFPbsOe2LIQYzqjeEe6GWqd2NL9NZ
bk3/cAuVgbWtdvSQQhhmSqOC7JZic4hbZb3lK6v/sr4F/Zu0CfAu80swWFMeS7vq
eQeYzN4w4dKpJArvU3ll7N9AlZhdlYkbPf0WdeOIjZawdAOxNtNe0O+j+5MsXR59
qkULatumhcKUnqxFCiVHzy21CVJtRzrtu6oGoSdFbmG82eSJ1rPXiuuDnCyzjyMW
iClYRM4NOQKBwERnO/vUxihYT4LOLlqcpl/A9aYQUT0TMGWMHTxYq2343WJceeiu
3ELXHc6NDKjbnjMF54BH57lbmHQQh+dR5PuAkCZC7z0tIM5G0Bty0nRmcs/+gwfZ
2Cpnbjrjjq3iZ2O/H4hNcpUdWdqXkKP7eKReUvBLMLrmp369NVdpe0z3yGTFMFjN
T8PLLHsePt14A+PCyX6L4E0cp3vEJpx4cwtmwvpyTuWN9xXuoKmmdoVDWqS4jr1f
MQnjYO2h4ed5mQKBwGVttWli4DUP+r7tuwP+ynptDqg6VIaEiEcFZ2okre+63QYm
l6NtAzvyx6a41XKf355bPdG+p2YXzNN+vTue6BE3/5iagxloQjCHYhgbnRMvDDRB
c1y2ybihoqWRufZ30fARAoqkehCZliMbq2E/t1YDIBJAowuzLAP04LVcqxitdIV2
HvQZ00aqr7AY0SDuNdiZbqp9XWpzi4td4iaUlxuNKP/UX9rBPGGROpoU2LWkujB+
svfdI3TFCSNyE/mDAQKBwQCP++WZKxExrSFRk3W+TcHKHZb2pusfoPWE7WH6EnDW
dkTZpa3PZaf0xgeglmNBv4Paxw2eMPsIhyNv62XY/6GbY6VJWRyx/s+NsazeP4ji
xUOufnwTePjYw6x0pcl6BknZrHn8LCJU741h0yTum8cDdNfRKdc0AMy0gVXk4ZTG
2cAtbEcWb3J+a5kYf6mp5yx3BNwtewkGZhc2VuQ9mQNbMmOOS/pHQQTRWcxsQwyt
GPAhMKawjrL1KFmu7vIqDSw=
-----END PRIVATE KEY-----
Certificate:
    Data:
        Version: 3 (0x2)
        Serial Number:
            cb:2d:80:99:5a:69:52:5f
        Signature Algorithm: sha256WithRSAEncryption
        Issuer: C=XY, O=Python Software Foundation CA, CN=our-ca-server
        Validity
            Not Before: Aug 29 14:23:16 2018 GMT
            Not After : Oct 28 14:23:16 2037 GMT
        Subject: C=XY, L=Castle Anthrax, O=Python Software Foundation, CN=allsans
        Subject Public Key Info:
            Public Key Algorithm: rsaEncryption
                Public-Key: (3072 bit)
                Modulus:
                    00:9c:cc:45:6f:e4:3d:94:0e:d9:fa:0c:c9:99:fe:
                    e0:96:08:bc:8b:f8:ae:71:4d:9a:7f:e6:3d:dc:c8:
                    84:a8:69:3b:94:d4:ab:b7:90:3f:7b:78:b8:29:1e:
                    3e:05:82:4e:59:26:2d:b5:ce:c4:2a:7a:90:a3:8c:
                    08:41:93:ab:63:e9:16:14:72:73:1b:6f:c3:2e:c5:
                    49:10:30:40:d6:fb:92:df:4b:2a:7e:1c:26:9e:b6:
                    51:e8:b1:67:61:10:3a:97:e2:4a:49:e5:a8:c1:c0:
                    d4:6d:d3:b9:b1:40:4c:6d:0b:89:1c:9e:8d:2e:b7:
                    da:c6:e5:7c:cb:37:6f:57:a4:2a:51:1e:51:45:ae:
                    7b:4e:81:00:04:a2:2c:fd:fd:f7:3c:a9:a4:e0:6f:
                    7e:d1:80:66:0f:42:cc:61:ec:f7:11:0d:17:b8:64:
                    6c:75:97:4e:88:ae:bf:18:fb:65:b9:d3:35:82:7e:
                    4c:02:4b:70:da:2c:33:8a:22:34:8e:7c:f1:cd:aa:
                    67:dc:7e:c4:e9:ce:b8:fc:df:7d:1c:74:f9:25:ac:
                    c2:2e:88:1b:fe:88:69:25:0a:39:0f:64:98:84:87:
                    1b:d8:da:4e:84:44:ce:07:03:1c:6e:3c:28:af:ac:
                    7e:4c:09:e3:0d:62:f0:55:51:c2:eb:19:13:a6:ec:
                    94:57:46:59:48:fd:7b:9b:c3:0a:00:68:06:fe:cb:
                    e7:59:b4:26:7d:02:7c:c7:21:bf:a7:c8:a8:89:c5:
                    60:23:ce:34:7e:40:f2:fa:8c:7a:d5:58:15:40:59:
                    37:3c:dd:83:f9:16:fc:54:5c:c7:d8:de:c5:6f:f6:
                    d3:52:09:5d:dc:a5:83:96:e7:e8:97:71:0c:cb:b9:
                    cc:d7:9c:e2:d1:62:4e:e9:f7:09:1b:d3:f8:64:f4:
                    ab:8a:e0:13:00:f7:47:81:86:f1:4c:08:58:07:27:
                    5f:f1:26:0d:a7:16:60:47:3e:8f:f1:6d:cc:0f:1b:
                    f9:9a:e5:3f:cc:70:0f:26:02:51
                Exponent: 65537 (0x10001)
        X509v3 extensions:
            X509v3 Subject Alternative Name: 
                DNS:allsans, othername: 1.2.3.4::some other identifier, othername: 1.3.6.1.5.2.2::<unsupported>, email:user@example.org, DNS:www.example.org, DirName:/C=XY/L=Castle Anthrax/O=Python Software Foundation/CN=dirname example, URI:https://www.python.org/, IP Address:127.0.0.1, IP Address:0:0:0:0:0:0:0:1, Registered ID:1.2.3.4.5
            X509v3 Key Usage: critical
                Digital Signature, Key Encipherment
            X509v3 Extended Key Usage: 
                TLS Web Server Authentication, TLS Web Client Authentication
            X509v3 Basic Constraints: critical
                CA:FALSE
            X509v3 Subject Key Identifier: 
                31:5E:C0:5E:2F:47:FF:8B:92:F9:EE:3D:B1:87:D0:53:75:3B:B1:48
            X509v3 Authority Key Identifier: 
                keyid:F3:EC:94:8E:F2:8E:30:C4:8E:68:C2:BF:8E:6A:19:C0:C1:9F:76:65
                DirName:/C=XY/O=Python Software Foundation CA/CN=our-ca-server
                serial:CB:2D:80:99:5A:69:52:5B
            Authority Information Access: 
                CA Issuers - URI:http://testca.pythontest.net/testca/pycacert.cer
                OCSP - URI:http://testca.pythontest.net/testca/ocsp/
            X509v3 CRL Distribution Points: 
                Full Name:
                  URI:http://testca.pythontest.net/testca/revocation.crl
    Signature Algorithm: sha256WithRSAEncryption
    Signature Value:
        72:42:a6:fc:ee:3c:21:47:05:33:e8:8c:6b:27:07:4a:ed:e2:
        81:47:96:79:43:ff:0f:ef:5a:06:aa:4c:01:70:5b:21:c4:b7:
        5d:17:29:c8:10:02:c3:08:7b:8c:86:56:9e:e9:7c:6e:a8:b6:
        26:13:9e:1e:1f:93:66:85:67:63:9e:08:fb:55:39:56:82:f5:
        be:0c:38:1e:eb:c4:54:b2:a7:7b:18:55:bb:00:87:43:50:50:
        bb:e1:29:10:cf:3d:c9:07:c7:d2:5d:b6:45:68:1f:d6:de:00:
        96:3e:29:73:f6:22:70:21:a2:ba:68:28:94:ec:37:bc:a7:00:
        70:58:4e:d1:48:ae:ef:8d:11:a4:6e:10:2f:92:83:07:e2:76:
        ac:bf:4f:bb:d6:9f:47:9e:a4:02:03:16:f8:a8:0a:3d:67:17:
        31:44:0e:68:d0:d3:24:d5:e7:bf:67:30:8f:88:97:92:0a:1e:
        d7:74:df:7e:7b:4c:c6:d9:c3:84:92:2b:a0:89:11:08:4c:dd:
        32:49:df:36:23:d4:63:56:e4:f1:68:5a:6f:a0:c3:3c:e2:36:
        ee:f3:46:60:78:4d:76:a5:5a:4a:61:c6:f8:ae:18:68:c2:8d:
        0e:2f:76:50:bb:be:b9:56:f1:04:5c:ac:ad:d7:d6:a4:1e:45:
        45:52:f4:10:a2:0f:9b:e3:d9:73:17:b6:52:42:a6:5b:c9:e9:
        8d:60:74:68:d0:1f:7a:ce:01:8e:9e:55:cb:cf:64:c1:cc:9a:
        72:aa:b4:5f:b5:55:13:41:10:51:a0:2c:a5:5b:43:12:ca:cc:
        b7:c4:ac:f2:6f:72:fd:0d:50:6a:d6:81:c1:91:93:21:fe:de:
        9a:be:e5:3c:2a:98:95:a1:42:f8:f2:5c:75:c6:f1:fd:11:b1:
        22:26:33:5b:43:63:21:06:61:d2:cd:04:f3:30:c6:a8:3f:17:
        d3:05:a3:87:45:2e:52:1e:51:88:e3:59:4c:78:51:b0:7b:b4:
        58:d9:27:22:6e:8c
-----BEGIN CERTIFICATE-----
MIIHDTCCBXWgAwIBAgIJAMstgJlaaVJfMA0GCSqGSIb3DQEBCwUAME0xCzAJBgNV
BAYTAlhZMSYwJAYDVQQKDB1QeXRob24gU29mdHdhcmUgRm91bmRhdGlvbiBDQTEW
MBQGA1UEAwwNb3VyLWNhLXNlcnZlcjAeFw0xODA4MjkxNDIzMTZaFw0zNzEwMjgx
NDIzMTZaMF0xCzAJBgNVBAYTAlhZMRcwFQYDVQQHDA5DYXN0bGUgQW50aHJheDEj
MCEGA1UECgwaUHl0aG9uIFNvZnR3YXJlIEZvdW5kYXRpb24xEDAOBgNVBAMMB2Fs
bHNhbnMwggGiMA0GCSqGSIb3DQEBAQUAA4IBjwAwggGKAoIBgQCczEVv5D2UDtn6
DMmZ/uCWCLyL+K5xTZp/5j3cyISoaTuU1Ku3kD97eLgpHj4Fgk5ZJi21zsQqepCj
jAhBk6tj6RYUcnMbb8MuxUkQMEDW+5LfSyp+HCaetlHosWdhEDqX4kpJ5ajBwNRt
07mxQExtC4kcno0ut9rG5XzLN29XpCpRHlFFrntOgQAEoiz9/fc8qaTgb37RgGYP
Qsxh7PcRDRe4ZGx1l06Irr8Y+2W50zWCfkwCS3DaLDOKIjSOfPHNqmfcfsTpzrj8
330cdPklrMIuiBv+iGklCjkPZJiEhxvY2k6ERM4HAxxuPCivrH5MCeMNYvBVUcLr
GROm7JRXRllI/XubwwoAaAb+y+dZtCZ9AnzHIb+nyKiJxWAjzjR+QPL6jHrVWBVA
WTc83YP5FvxUXMfY3sVv9tNSCV3cpYOW5+iXcQzLuczXnOLRYk7p9wkb0/hk9KuK
4BMA90eBhvFMCFgHJ1/xJg2nFmBHPo/xbcwPG/ma5T/McA8mAlECAwEAAaOCAt4w
ggLaMIIBMAYDVR0RBIIBJzCCASOCB2FsbHNhbnOgHgYDKgMEoBcMFXNvbWUgb3Ro
ZXIgaWRlbnRpZmllcqA1BgYrBgEFAgKgKzApoBAbDktFUkJFUk9TLlJFQUxNoRUw
E6ADAgEBoQwwChsIdXNlcm5hbWWBEHVzZXJAZXhhbXBsZS5vcmeCD3d3dy5leGFt
cGxlLm9yZ6RnMGUxCzAJBgNVBAYTAlhZMRcwFQYDVQQHDA5DYXN0bGUgQW50aHJh
eDEjMCEGA1UECgwaUHl0aG9uIFNvZnR3YXJlIEZvdW5kYXRpb24xGDAWBgNVBAMM
D2Rpcm5hbWUgZXhhbXBsZYYXaHR0cHM6Ly93d3cucHl0aG9uLm9yZy+HBH8AAAGH
EAAAAAAAAAAAAAAAAAAAAAGIBCoDBAUwDgYDVR0PAQH/BAQDAgWgMB0GA1UdJQQW
MBQGCCsGAQUFBwMBBggrBgEFBQcDAjAMBgNVHRMBAf8EAjAAMB0GA1UdDgQWBBQx
XsBeL0f/i5L57j2xh9BTdTuxSDB9BgNVHSMEdjB0gBTz7JSO8o4wxI5owr+OahnA
wZ92ZaFRpE8wTTELMAkGA1UEBhMCWFkxJjAkBgNVBAoMHVB5dGhvbiBTb2Z0d2Fy
ZSBGb3VuZGF0aW9uIENBMRYwFAYDVQQDDA1vdXItY2Etc2VydmVyggkAyy2AmVpp
UlswgYMGCCsGAQUFBwEBBHcwdTA8BggrBgEFBQcwAoYwaHR0cDovL3Rlc3RjYS5w
eXRob250ZXN0Lm5ldC90ZXN0Y2EvcHljYWNlcnQuY2VyMDUGCCsGAQUFBzABhilo
dHRwOi8vdGVzdGNhLnB5dGhvbnRlc3QubmV0L3Rlc3RjYS9vY3NwLzBDBgNVHR8E
PDA6MDigNqA0hjJodHRwOi8vdGVzdGNhLnB5dGhvbnRlc3QubmV0L3Rlc3RjYS9y
ZXZvY2F0aW9uLmNybDANBgkqhkiG9w0BAQsFAAOCAYEAckKm/O48IUcFM+iMaycH
Su3igUeWeUP/D+9aBqpMAXBbIcS3XRcpyBACwwh7jIZWnul8bqi2JhOeHh+TZoVn
Y54I+1U5VoL1vgw4HuvEVLKnexhVuwCHQ1BQu+EpEM89yQfH0l22RWgf1t4Alj4p
c/YicCGiumgolOw3vKcAcFhO0Uiu740RpG4QL5KDB+J2rL9Pu9afR56kAgMW+KgK
PWcXMUQOaNDTJNXnv2cwj4iXkgoe13TffntMxtnDhJIroIkRCEzdMknfNiPUY1bk
8Whab6DDPOI27vNGYHhNdqVaSmHG+K4YaMKNDi92ULu+uVbxBFysrdfWpB5FRVL0
EKIPm+PZcxe2UkKmW8npjWB0aNAfes4Bjp5Vy89kwcyacqq0X7VVE0EQUaAspVtD
EsrMt8Ss8m9y/Q1QataBwZGTIf7emr7lPCqYlaFC+PJcdcbx/RGxIiYzW0NjIQZh
0s0E8zDGqD8X0wWjh0UuUh5RiONZTHhRsHu0WNknIm6M
-----END CERTIFICATE-----
