-----BEGIN PRIVATE KEY-----
MIIG/QIBADANBgkqhkiG9w0BAQEFAASCBucwggbjAgEAAoIBgQCYEY+lIwS/w+gA
U5PfxSeL4qMF5TtFkrifL0oQaCjWFb8jeX2Rb1tKaObyrYmTURVWbMkI1LJOQWYt
GlANo2mvf4VD1wZZ/x/Tmylxe3A7itSTZgZuGXLHtFP9wk7yS46BlVcNq3ZoOi7k
k8NxTiUqgsmLg3Nj+Ifk8OI7c1BcP2pa1wZO/l3PTWqtFSLsFEvOK5N6ZPqILAUi
5vEkOiFefxVHHvD4N3IWSFgSwiDi9KhntdRwa+axsZxjq/o70FjQO5q5Quym9aDq
qo47PMykEb1gdTBQK1mPliMKsLi5zycI/ypm1PEcH53+9/F+U2B1bmvA/9PBx8T7
hUyclBbQHCmdcXIYCgFr5AbGS3jFeVPiF7hCPj1k/jcpayXZAtWmqJTlkXKGbM68
AgM/DHO0fGCYGRUw2vhV3ZIRCm0BqwforeFh+2oMyZjDjvo/uZjZNazdpcwvOy0c
lFkORwVI0zTIixXYSV4xN1BX821JCuhYubro89m+MSjxO14qgs0CAwEAAQKCAYAZ
txqF7+qNLSlN6NRASnw6BQzRYebIiJus25fYN2z0awAEFTbdQan75sprLlpt7Y/A
qivC0QkH/7oyFVmFPOWR1mwoQTPjQyfUJlB3Tsr3Xq488MtUkfwddkqfxlyIT6ud
ES6D8sNWs8QbRjuOLQtO6YgAji2UscH1PqDbMdBckSLAks0Pzab6d9p6w3DA4FvD
VQ4e6/WL0nnZ4ZjUqfnbm3zzJnHUX7fsubYfEfHyvzG9O/vdOPntgZ3zIvFxbPVc
/Dp8MRNgfQoRgAsc7VBQQifFNvva9SjvRsXwE7zQLQh9JszFpHWqIMevGwjdH8dO
1hHESqkRHL0sYwsqoGqbaHFrJVEA2Ljuxs/UsH6G2U6NuDVaYkqM8UwH0+EqGFtF
9qP8oh6Yvp+szI5yET4brW0Rlk8r2UqvQ5iSSl8SSWsNKR2wRs0PM0aNm13TDJmt
NOuxd/0ranG+NvBMdtLCwsoEplYDaaczYv9gbKHT64OlFAdGBkOytbS7eqOojmcC
gcEA0uQb9bPKbiMYSEJMAalOlruzvMiHBRW420IEuGyHJtocn/RK804Jj6gzu+WD
GT81rB9NXAt/3s6WDMSdrGrrBh/CQZJs50ok9hej0f6gsq1JNsWJ/c10rU/mqrTn
s++pdaRqbd+bgM/N6h79tJi3j4SgB9rJqjC+7qWlDJFWZOoDR59elc10xDA0AE0a
K6UvsJJGk4/v715K1Uh2qU5HYupuijNc0m3z2OMZ6zxTNNUdbSL4XF5X9e2+BwMQ
YrRzAoHBALiYeYWsmHGRdg++/p/9SE86YwyEYr+zrUiWenIPC1W5WQlkdFQqALmg
kjcXAXFFouC/DnKG65YOfGq772ekFuw06Lm4DEotQP02pESfAP9ulVufK2yJtbxi
m0PeN3JRrs/H72VW9hUSxCafNRyBeZ6nsfzEfEkPOdc+lRGeMHT9C7r7Y1asNk8A
Zl7wKZgv+Yvn8xhHWQj5z/T6K2z5CXFn6FERc0qV8+DggE9m3CjaaNxft6IodfHD
h1iakNtbvwKBwQCpWr/NRy131r0IQh0xdFoFGAUVxF8RSUli4hhSVe0O2TcFiLOr
wW5SK/wnlv75hlY+vABuu1lbfsDmzfnk3RORnm1sJP9JmbQm4AMRfw5jjl7uGiJf
a9+X0kNlsNMlH4ARVhCV3WzOO5KbwXlxzvYRzaqJxDwQbQbXNLRfbFNZxMcPfD8D
w7NSXXdVCpXKmOO8QytkEsHWkv07W+7WtWMEX0iXuPmAjwW0lWNaEd6r3by8yMlz
u9udRedFUEOXUFsCgcAX0g00c75EQXoTtBjVenC/UJCBh//aLwx4Znqsh0Z2LHHR
5XWher4XNiJIG57jCBJpoB30J3b1KS9i8peFL0aJ+pXhiV+EnuxZAJkYBdCyJYn+
hb6rxeV+xta0XlOXW/UL+QfqcttUgtRvC3JmGEsibw9nx88l+mIDZZ8E4/3qytCd
s1zxTU3AyhNrwuALNH2mUSssgeB6aQot2a6K5GQUj00KUQ8om8sZxL6qAGL+npiT
f4KJ2WDG7u1jQKbat68CgcBONTGp3M3pdwc3OV/PMFq1+h1/BuyW/5qUtbsvXkrD
DZyXGY2SxJFMipakzOppusaQOYmO+VXKVDRJm8UG6fa2cdXjwm2kDxHB5E+v59VI
+uM8ErX6L52I0+rdoOU6AwpXyiVW5AXzMInOGHF4B7zJ1SA25RwVG44LbDw1cehW
MALXUdVCaegmvCCFq5TQlrlaEktxWk6Th92mXWbNbwUHlIGpcjEkASFvt90aBXWZ
w0YCQFVxx/K95nzKyRTjHTQ=
-----END PRIVATE KEY-----
Certificate:
    Data:
        Version: 3 (0x2)
        Serial Number:
            cb:2d:80:99:5a:69:52:5f
        Signature Algorithm: sha256WithRSAEncryption
        Issuer: C=XY, O=Python Software Foundation CA, CN=our-ca-server
        Validity
            Not Before: Aug 29 14:23:16 2018 GMT
            Not After : Oct 28 14:23:16 2525 GMT
        Subject: C=XY, L=Castle Anthrax, O=Python Software Foundation, CN=allsans
        Subject Public Key Info:
            Public Key Algorithm: rsaEncryption
                Public-Key: (3072 bit)
                Modulus:
                    00:98:11:8f:a5:23:04:bf:c3:e8:00:53:93:df:c5:
                    27:8b:e2:a3:05:e5:3b:45:92:b8:9f:2f:4a:10:68:
                    28:d6:15:bf:23:79:7d:91:6f:5b:4a:68:e6:f2:ad:
                    89:93:51:15:56:6c:c9:08:d4:b2:4e:41:66:2d:1a:
                    50:0d:a3:69:af:7f:85:43:d7:06:59:ff:1f:d3:9b:
                    29:71:7b:70:3b:8a:d4:93:66:06:6e:19:72:c7:b4:
                    53:fd:c2:4e:f2:4b:8e:81:95:57:0d:ab:76:68:3a:
                    2e:e4:93:c3:71:4e:25:2a:82:c9:8b:83:73:63:f8:
                    87:e4:f0:e2:3b:73:50:5c:3f:6a:5a:d7:06:4e:fe:
                    5d:cf:4d:6a:ad:15:22:ec:14:4b:ce:2b:93:7a:64:
                    fa:88:2c:05:22:e6:f1:24:3a:21:5e:7f:15:47:1e:
                    f0:f8:37:72:16:48:58:12:c2:20:e2:f4:a8:67:b5:
                    d4:70:6b:e6:b1:b1:9c:63:ab:fa:3b:d0:58:d0:3b:
                    9a:b9:42:ec:a6:f5:a0:ea:aa:8e:3b:3c:cc:a4:11:
                    bd:60:75:30:50:2b:59:8f:96:23:0a:b0:b8:b9:cf:
                    27:08:ff:2a:66:d4:f1:1c:1f:9d:fe:f7:f1:7e:53:
                    60:75:6e:6b:c0:ff:d3:c1:c7:c4:fb:85:4c:9c:94:
                    16:d0:1c:29:9d:71:72:18:0a:01:6b:e4:06:c6:4b:
                    78:c5:79:53:e2:17:b8:42:3e:3d:64:fe:37:29:6b:
                    25:d9:02:d5:a6:a8:94:e5:91:72:86:6c:ce:bc:02:
                    03:3f:0c:73:b4:7c:60:98:19:15:30:da:f8:55:dd:
                    92:11:0a:6d:01:ab:07:e8:ad:e1:61:fb:6a:0c:c9:
                    98:c3:8e:fa:3f:b9:98:d9:35:ac:dd:a5:cc:2f:3b:
                    2d:1c:94:59:0e:47:05:48:d3:34:c8:8b:15:d8:49:
                    5e:31:37:50:57:f3:6d:49:0a:e8:58:b9:ba:e8:f3:
                    d9:be:31:28:f1:3b:5e:2a:82:cd
                Exponent: 65537 (0x10001)
        X509v3 extensions:
            X509v3 Subject Alternative Name: 
                DNS:allsans, othername: 1.2.3.4::some other identifier, othername: 1.3.6.1.5.2.2::<unsupported>, email:user@example.org, DNS:www.example.org, DirName:/C=XY/L=Castle Anthrax/O=Python Software Foundation/CN=dirname example, URI:https://www.python.org/, IP Address:127.0.0.1, IP Address:0:0:0:0:0:0:0:1, Registered ID:1.2.3.4.5
            X509v3 Key Usage: critical
                Digital Signature, Key Encipherment
            X509v3 Extended Key Usage: 
                TLS Web Server Authentication, TLS Web Client Authentication
            X509v3 Basic Constraints: critical
                CA:FALSE
            X509v3 Subject Key Identifier: 
                73:0D:4E:1F:4A:EC:F2:53:0F:53:FC:85:6F:CF:82:CD:A3:E8:11:8D
            X509v3 Authority Key Identifier: 
                keyid:C0:0A:2B:28:43:DE:5F:C9:7D:47:E5:47:9B:36:F2:65:8C:67:3B:E2
                DirName:/C=XY/O=Python Software Foundation CA/CN=our-ca-server
                serial:CB:2D:80:99:5A:69:52:5B
            Authority Information Access: 
                CA Issuers - URI:http://testca.pythontest.net/testca/pycacert.cer
                OCSP - URI:http://testca.pythontest.net/testca/ocsp/
            X509v3 CRL Distribution Points: 
                Full Name:
                  URI:http://testca.pythontest.net/testca/revocation.crl
    Signature Algorithm: sha256WithRSAEncryption
    Signature Value:
        a5:3d:12:87:b9:3b:3e:9c:1c:59:fb:d5:38:22:49:61:f3:c3:
        11:53:4b:4e:63:af:f2:3d:ef:24:67:45:bc:74:5c:4a:65:c5:
        b4:bb:fe:84:b8:b6:ca:7d:fc:aa:ff:80:ae:67:1f:cb:c3:cd:
        8f:f9:75:8c:f9:d3:3f:db:f6:81:d8:06:42:c3:5d:a9:1e:a3:
        81:7d:57:ac:97:d9:bd:c8:ce:1e:ec:74:d7:94:d5:df:b1:ad:
        ce:84:14:5c:8c:45:a4:a8:eb:67:ab:16:57:61:15:86:ae:11:
        1e:b5:10:42:de:84:76:88:9b:37:12:aa:a6:77:42:75:b4:c0:
        04:b3:75:45:e0:d7:aa:34:e3:07:c5:ed:f8:4e:f0:39:99:1f:
        5b:d8:4e:0c:ad:64:6d:09:07:3f:e3:e1:9f:1b:65:07:96:59:
        9a:b5:f1:4d:c3:ec:f7:32:a1:05:94:d1:0b:18:54:3c:67:cf:
        38:f5:2b:ec:cb:bd:79:be:f7:1b:b7:71:3f:c6:44:80:7f:00:
        dc:3d:a0:07:c0:b5:1c:fb:52:f6:a0:f8:92:c6:c6:73:07:c5:
        ca:0b:04:7c:55:51:e3:ba:93:32:17:bd:61:ae:cf:13:e4:5e:
        03:b2:51:11:c7:68:f5:08:b6:0e:57:49:11:3c:e3:f4:0e:e1:
        96:20:44:28:31:94:11:44:50:cf:17:70:8d:9c:14:c5:ed:94:
        4d:ba:94:9b:db:8b:9f:55:a1:5e:0a:90:bb:a0:0e:0d:3b:a0:
        dd:4d:47:d1:cf:d0:47:6b:ff:6f:af:e4:83:40:73:e6:3a:59:
        40:bd:4f:3a:21:22:63:27:5d:02:26:67:89:1d:2f:19:c5:77:
        e6:b5:67:4a:dd:b5:0e:de:46:34:57:c7:03:84:5d:cd:34:08:
        8f:47:c9:4d:7f:04:c0:4f:ff:68:52:bb:ae:84:0e:54:ce:5c:
        27:71:0f:a2:3f:9f:7a:49:a8:fa:0a:45:cf:96:42:a7:65:23:
        b9:3e:40:eb:46:7b
-----BEGIN CERTIFICATE-----
MIIHDzCCBXegAwIBAgIJAMstgJlaaVJfMA0GCSqGSIb3DQEBCwUAME0xCzAJBgNV
BAYTAlhZMSYwJAYDVQQKDB1QeXRob24gU29mdHdhcmUgRm91bmRhdGlvbiBDQTEW
MBQGA1UEAwwNb3VyLWNhLXNlcnZlcjAgFw0xODA4MjkxNDIzMTZaGA8yNTI1MTAy
ODE0MjMxNlowXTELMAkGA1UEBhMCWFkxFzAVBgNVBAcMDkNhc3RsZSBBbnRocmF4
MSMwIQYDVQQKDBpQeXRob24gU29mdHdhcmUgRm91bmRhdGlvbjEQMA4GA1UEAwwH
YWxsc2FuczCCAaIwDQYJKoZIhvcNAQEBBQADggGPADCCAYoCggGBAJgRj6UjBL/D
6ABTk9/FJ4viowXlO0WSuJ8vShBoKNYVvyN5fZFvW0po5vKtiZNRFVZsyQjUsk5B
Zi0aUA2jaa9/hUPXBln/H9ObKXF7cDuK1JNmBm4Zcse0U/3CTvJLjoGVVw2rdmg6
LuSTw3FOJSqCyYuDc2P4h+Tw4jtzUFw/alrXBk7+Xc9Naq0VIuwUS84rk3pk+ogs
BSLm8SQ6IV5/FUce8Pg3chZIWBLCIOL0qGe11HBr5rGxnGOr+jvQWNA7mrlC7Kb1
oOqqjjs8zKQRvWB1MFArWY+WIwqwuLnPJwj/KmbU8Rwfnf738X5TYHVua8D/08HH
xPuFTJyUFtAcKZ1xchgKAWvkBsZLeMV5U+IXuEI+PWT+NylrJdkC1aaolOWRcoZs
zrwCAz8Mc7R8YJgZFTDa+FXdkhEKbQGrB+it4WH7agzJmMOO+j+5mNk1rN2lzC87
LRyUWQ5HBUjTNMiLFdhJXjE3UFfzbUkK6Fi5uujz2b4xKPE7XiqCzQIDAQABo4IC
3jCCAtowggEwBgNVHREEggEnMIIBI4IHYWxsc2Fuc6AeBgMqAwSgFwwVc29tZSBv
dGhlciBpZGVudGlmaWVyoDUGBisGAQUCAqArMCmgEBsOS0VSQkVST1MuUkVBTE2h
FTAToAMCAQGhDDAKGwh1c2VybmFtZYEQdXNlckBleGFtcGxlLm9yZ4IPd3d3LmV4
YW1wbGUub3JnpGcwZTELMAkGA1UEBhMCWFkxFzAVBgNVBAcMDkNhc3RsZSBBbnRo
cmF4MSMwIQYDVQQKDBpQeXRob24gU29mdHdhcmUgRm91bmRhdGlvbjEYMBYGA1UE
AwwPZGlybmFtZSBleGFtcGxlhhdodHRwczovL3d3dy5weXRob24ub3JnL4cEfwAA
AYcQAAAAAAAAAAAAAAAAAAAAAYgEKgMEBTAOBgNVHQ8BAf8EBAMCBaAwHQYDVR0l
BBYwFAYIKwYBBQUHAwEGCCsGAQUFBwMCMAwGA1UdEwEB/wQCMAAwHQYDVR0OBBYE
FHMNTh9K7PJTD1P8hW/Pgs2j6BGNMH0GA1UdIwR2MHSAFMAKKyhD3l/JfUflR5s2
8mWMZzvioVGkTzBNMQswCQYDVQQGEwJYWTEmMCQGA1UECgwdUHl0aG9uIFNvZnR3
YXJlIEZvdW5kYXRpb24gQ0ExFjAUBgNVBAMMDW91ci1jYS1zZXJ2ZXKCCQDLLYCZ
WmlSWzCBgwYIKwYBBQUHAQEEdzB1MDwGCCsGAQUFBzAChjBodHRwOi8vdGVzdGNh
LnB5dGhvbnRlc3QubmV0L3Rlc3RjYS9weWNhY2VydC5jZXIwNQYIKwYBBQUHMAGG
KWh0dHA6Ly90ZXN0Y2EucHl0aG9udGVzdC5uZXQvdGVzdGNhL29jc3AvMEMGA1Ud
HwQ8MDowOKA2oDSGMmh0dHA6Ly90ZXN0Y2EucHl0aG9udGVzdC5uZXQvdGVzdGNh
L3Jldm9jYXRpb24uY3JsMA0GCSqGSIb3DQEBCwUAA4IBgQClPRKHuTs+nBxZ+9U4
Iklh88MRU0tOY6/yPe8kZ0W8dFxKZcW0u/6EuLbKffyq/4CuZx/Lw82P+XWM+dM/
2/aB2AZCw12pHqOBfVesl9m9yM4e7HTXlNXfsa3OhBRcjEWkqOtnqxZXYRWGrhEe
tRBC3oR2iJs3Eqqmd0J1tMAEs3VF4NeqNOMHxe34TvA5mR9b2E4MrWRtCQc/4+Gf
G2UHllmatfFNw+z3MqEFlNELGFQ8Z8849Svsy715vvcbt3E/xkSAfwDcPaAHwLUc
+1L2oPiSxsZzB8XKCwR8VVHjupMyF71hrs8T5F4DslERx2j1CLYOV0kRPOP0DuGW
IEQoMZQRRFDPF3CNnBTF7ZRNupSb24ufVaFeCpC7oA4NO6DdTUfRz9BHa/9vr+SD
QHPmOllAvU86ISJjJ10CJmeJHS8ZxXfmtWdK3bUO3kY0V8cDhF3NNAiPR8lNfwTA
T/9oUruuhA5UzlwncQ+iP596Saj6CkXPlkKnZSO5PkDrRns=
-----END CERTIFICATE-----
