-----BEGIN PRIVATE KEY-----
MIIG/AIBADANBgkqhkiG9w0BAQEFAASCBuYwggbiAgEAAoIBgQCp6zt40WB3K7yj
BGugnRuqI3ApftThZWDIpvW0cVmN0nqQxsO6CCnS4dS7SYhGFiIqWjNVc2WG0gv7
nC5DFguqbndNZk9/SjX8EOxKz4ANjd61WnTkDO5Tbiiyd+TuEBxhmbEF69bF9dtd
1Sgo8jmM7j+aa6ClYh/49bx+blJDF76EGSrmB1q+obMeZURhPXNBeoiqKR83x5Hc
LTJYMocvb6m8uABwuSka13Gb3QGu06p5ldK6TDK38HsoOy6MFO5F1PrkakG/eBHO
jcBOGPfNmTwWOqvwlcQWykr4QspWS+yTzdkgZ+mxar/yQuq7wuYSNaEfGH5yoYtV
WIgKwwZRDPqpSQuVe+J+MWLPQ6RTM+rXIHVzHtPk1f8DrgN+hSepJy/sVBBEQCzj
nyB+scn76ETWch3iyVoMj3oVOGs0b4XTDMmUw/DmEt5TDah7TqE3G+fpBIbgMSjx
MzUQZl27izmM9nQCJRAosNoNwXqlM754K9WcY6gT8kkcj1CfTmMCAwEAAQKCAYAz
9ZdHkDsf5fN2pAznXfOOOOz8+2hMjmwkn42GAp1gdWr+Z5GFiyaC8oTTSp6N1AnZ
iqCk8jcrHYMFi1JIOG8TzFjWBcGsinxsmp4vGDmvq2Ddcw5IiD2+rHJsdKZAOBP9
snpD9cTE3zQYAu0XbE617krrxRqoSBO/1SExRjoIgzPCgFGyarBQl/DGjC/3Tku2
y6oL4qxFqdTMD9QTzUuycUJlz5xu2+gaaaQ3hcMUe2xnZq28Qz3FKpf2ivZmZqWf
4+AIe0lRosmFoLAFjIyyuGCkWZ2t9KDIZV0OOS4+DvVOC/Um9r4VojeikripCGKY
2FzkkuQP3jz6pJ1UxCDg7YXZdR2IbcS18F1OYmLViU8oLDR6T01s0Npmp39dDazf
A4U+WyV3o1ydiSpwAiN8pJadmr5BHrCSmawV8ztW5yholufrO+FR5ze2+QG99txm
6l7lUI8Nz01lYG6D10MjaQ9INk2WSjBPVNbfsTl73/hR76/319ctfOINRMHilJ0C
gcEAvFgTdc5Qf9E7xEZE5UtpSTPvZ24DxQ7hmGW3pTs6+Nw4ccknnW0lLkWvY4Sf
gXl4TyTTUhe6PAN3UHzbjN2vdsTmAVUlnkNH40ymF8FgRGFNDuvuCZvf5ZWNddSl
6Vu/e5TFPDAqS8rGnl23DgXhlT+3Y0/mrftWoigdOxgximLAsmmqp/tANGi9jqE1
3L0BN+xKqMMKSXkMtuzJHuini8MaWQgQcW/4czh4ArdesMzuVrstOD8947XHreY9
pesVAoHBAOb0y/AFEdR+mhk/cfqjTzsNU2sS9yHlzMVgecF8BA26xcfAwg4d47VS
+LK8fV6KC4hHk4uQWjQzCG2PYXBbFT52xeJ3EC8DwWxJP09b4HV/1mWxXl5htjnr
dfyTmXKvEe5ZBpKGWc8i7s7jBi7R5EpgIfc586iNRyjYAk60dyG0iP13SurRvXBg
ID25VR4wABl3HQ3Hhv61dqC9FPrdHZQJdysfUqNrAFniWsSR2eyG5i4S1uHa3G+i
MzBTOuBRlwKBwBNXUBhG6YlWqTaMqMKLLfKwfKM4bvargost1uAG5xVrN/inWYQX
EzxfN5WWpvKa0Ln/5BuICD3ldTk0uS8MDNq7eYslfUl1S0qSMnQ6DXK4MzuXCsi9
0w42f2JcRfVi0JUWP/LgV1eVKTRWF1g/Tl0PP/vY1q2DI/BfAjFxWJUHcxZfN4Es
kflP0Dd3YpqaZieiAkC2VrYY0i9uvXCJH7uAe5Is+9NKVk8uu1Q8FGM/iDIr4obm
J6rcnfbDsAz7yQKBwGtIbW9qO3UU9ioiQaTmtYg90XEclzXk1HEfNo+9NvjVuMfo
b3w1QDBbgXEtg6MlxuOgNBaRkIVM625ROzcA6GZir9tZ6Wede/z8LW+Ew0hxgLsu
YCLBiu9uxBj2y0HttwubySTJSfChToNGC/o1v7EY5M492kSCk/qSFMhQpkI+5Z+w
CVn44eHQlUl2zOY/79vka9eZxsiMrLVP/+3kRrgciYG7hByrOLeIIRfMlIl9xHDE
iZLSorEsjFC3aNMIswKBwFELC2fvlziW9rECQcGXnvc1DPmZcxm1ATFZ93FpKleF
TjLIWSdst0PmO8CSIuEZ2ZXPoK9CMJyQG+kt3k7IgZ1xKXg9y6ThwbznurXp1jaW
NjEnYtFMBK9Ur3oaAsrG2XwZ2PMvnI/Yp8tciGvjJlzSM8gHJ9BL8Yf+3gIJi/0D
KtaF9ha9J/SDDZdEiLIQ4LvSqYmlUgsCgiUvY3SVwCh8xDfBWD1hKw9vUiZu5cnJ
81hAHFgeD4f+C8fLols/sA==
-----END PRIVATE KEY-----
Certificate:
    Data:
        Version: 3 (0x2)
        Serial Number:
            cb:2d:80:99:5a:69:52:60
        Signature Algorithm: sha256WithRSAEncryption
        Issuer: C=XY, O=Python Software Foundation CA, CN=our-ca-server
        Validity
            Not Before: Aug 29 14:23:16 2018 GMT
            Not After : Oct 28 14:23:16 2037 GMT
        Subject: C=XY, L=Castle Anthrax, O=Python Software Foundation, CN=idnsans
        Subject Public Key Info:
            Public Key Algorithm: rsaEncryption
                Public-Key: (3072 bit)
                Modulus:
                    00:a9:eb:3b:78:d1:60:77:2b:bc:a3:04:6b:a0:9d:
                    1b:aa:23:70:29:7e:d4:e1:65:60:c8:a6:f5:b4:71:
                    59:8d:d2:7a:90:c6:c3:ba:08:29:d2:e1:d4:bb:49:
                    88:46:16:22:2a:5a:33:55:73:65:86:d2:0b:fb:9c:
                    2e:43:16:0b:aa:6e:77:4d:66:4f:7f:4a:35:fc:10:
                    ec:4a:cf:80:0d:8d:de:b5:5a:74:e4:0c:ee:53:6e:
                    28:b2:77:e4:ee:10:1c:61:99:b1:05:eb:d6:c5:f5:
                    db:5d:d5:28:28:f2:39:8c:ee:3f:9a:6b:a0:a5:62:
                    1f:f8:f5:bc:7e:6e:52:43:17:be:84:19:2a:e6:07:
                    5a:be:a1:b3:1e:65:44:61:3d:73:41:7a:88:aa:29:
                    1f:37:c7:91:dc:2d:32:58:32:87:2f:6f:a9:bc:b8:
                    00:70:b9:29:1a:d7:71:9b:dd:01:ae:d3:aa:79:95:
                    d2:ba:4c:32:b7:f0:7b:28:3b:2e:8c:14:ee:45:d4:
                    fa:e4:6a:41:bf:78:11:ce:8d:c0:4e:18:f7:cd:99:
                    3c:16:3a:ab:f0:95:c4:16:ca:4a:f8:42:ca:56:4b:
                    ec:93:cd:d9:20:67:e9:b1:6a:bf:f2:42:ea:bb:c2:
                    e6:12:35:a1:1f:18:7e:72:a1:8b:55:58:88:0a:c3:
                    06:51:0c:fa:a9:49:0b:95:7b:e2:7e:31:62:cf:43:
                    a4:53:33:ea:d7:20:75:73:1e:d3:e4:d5:ff:03:ae:
                    03:7e:85:27:a9:27:2f:ec:54:10:44:40:2c:e3:9f:
                    20:7e:b1:c9:fb:e8:44:d6:72:1d:e2:c9:5a:0c:8f:
                    7a:15:38:6b:34:6f:85:d3:0c:c9:94:c3:f0:e6:12:
                    de:53:0d:a8:7b:4e:a1:37:1b:e7:e9:04:86:e0:31:
                    28:f1:33:35:10:66:5d:bb:8b:39:8c:f6:74:02:25:
                    10:28:b0:da:0d:c1:7a:a5:33:be:78:2b:d5:9c:63:
                    a8:13:f2:49:1c:8f:50:9f:4e:63
                Exponent: 65537 (0x10001)
        X509v3 extensions:
            X509v3 Subject Alternative Name: 
                DNS:idnsans, DNS:xn--knig-5qa.idn.pythontest.net, DNS:xn--knigsgsschen-lcb0w.idna2003.pythontest.net, DNS:xn--knigsgchen-b4a3dun.idna2008.pythontest.net, DNS:xn--nxasmq6b.idna2003.pythontest.net, DNS:xn--nxasmm1c.idna2008.pythontest.net
            X509v3 Key Usage: critical
                Digital Signature, Key Encipherment
            X509v3 Extended Key Usage: 
                TLS Web Server Authentication, TLS Web Client Authentication
            X509v3 Basic Constraints: critical
                CA:FALSE
            X509v3 Subject Key Identifier: 
                5B:93:42:58:B0:B4:18:CC:41:4C:15:EB:42:33:66:77:4C:71:2F:42
            X509v3 Authority Key Identifier: 
                keyid:F3:EC:94:8E:F2:8E:30:C4:8E:68:C2:BF:8E:6A:19:C0:C1:9F:76:65
                DirName:/C=XY/O=Python Software Foundation CA/CN=our-ca-server
                serial:CB:2D:80:99:5A:69:52:5B
            Authority Information Access: 
                CA Issuers - URI:http://testca.pythontest.net/testca/pycacert.cer
                OCSP - URI:http://testca.pythontest.net/testca/ocsp/
            X509v3 CRL Distribution Points: 
                Full Name:
                  URI:http://testca.pythontest.net/testca/revocation.crl
    Signature Algorithm: sha256WithRSAEncryption
    Signature Value:
        5f:d8:9b:dc:22:55:80:47:e1:9b:04:3e:46:53:9b:e5:a7:4a:
        8f:eb:53:01:39:d5:04:f6:cf:dc:48:84:8a:a9:c3:a5:35:22:
        2f:ab:74:77:ec:a6:fd:b1:e6:e6:74:82:38:54:0b:27:36:e6:
        ec:3d:fe:92:1a:b2:7a:35:0d:a3:e5:7c:ff:e5:5b:1a:28:4b:
        29:1f:99:1b:3e:11:e9:e2:e0:d7:da:06:4f:e3:7b:8c:ad:30:
        f4:39:24:e8:ad:2a:0e:71:74:ab:ed:62:e9:9f:85:7e:6a:b0:
        bb:53:b4:d7:6b:b8:da:54:15:5c:9a:41:cf:61:f1:ab:67:d6:
        27:5c:0c:a3:d7:41:e7:27:3e:58:89:d6:1f:3f:2a:52:cc:13:
        0b:4b:e6:d6:ba:a0:c7:fd:e3:17:a4:b8:da:cc:cb:88:70:21:
        3b:70:df:09:40:6c:e7:02:81:08:80:b0:36:77:fb:44:c5:cf:
        bf:19:54:7c:d1:4e:1f:a2:44:9e:d8:56:0e:bf:4b:0b:e0:84:
        6f:bc:f6:c6:7f:35:7a:17:ca:83:b3:82:c6:4e:d3:f3:d8:30:
        05:fd:6d:3c:8a:ab:63:55:6f:c5:18:ba:66:fe:e2:35:04:2b:
        ae:76:34:f0:56:18:e8:54:db:83:b2:1b:93:0a:25:81:81:f0:
        25:ca:0a:95:be:8e:2f:05:3f:6c:e7:de:d1:7c:b8:a3:71:7c:
        6f:8a:05:c3:69:eb:6f:e6:76:8c:11:e1:59:0b:12:53:07:42:
        84:e8:89:ee:ab:7d:28:81:48:e8:79:d5:cf:a2:05:a4:fd:72:
        2c:7d:b4:1c:08:90:4e:0d:10:05:d1:9a:c0:69:4c:0a:14:39:
        17:fb:4d:5b:f6:42:bb:46:27:23:0f:5e:57:5b:b8:ae:9b:a3:
        0e:23:59:41:63:41:a4:f1:69:df:b3:a3:5c:10:d5:63:30:74:
        a8:3c:0c:8e:1c:6b:10:e1:13:27:02:26:9b:fd:88:93:7e:91:
        9c:f9:c2:07:27:a4
-----BEGIN CERTIFICATE-----
MIIGvTCCBSWgAwIBAgIJAMstgJlaaVJgMA0GCSqGSIb3DQEBCwUAME0xCzAJBgNV
BAYTAlhZMSYwJAYDVQQKDB1QeXRob24gU29mdHdhcmUgRm91bmRhdGlvbiBDQTEW
MBQGA1UEAwwNb3VyLWNhLXNlcnZlcjAeFw0xODA4MjkxNDIzMTZaFw0zNzEwMjgx
NDIzMTZaMF0xCzAJBgNVBAYTAlhZMRcwFQYDVQQHDA5DYXN0bGUgQW50aHJheDEj
MCEGA1UECgwaUHl0aG9uIFNvZnR3YXJlIEZvdW5kYXRpb24xEDAOBgNVBAMMB2lk
bnNhbnMwggGiMA0GCSqGSIb3DQEBAQUAA4IBjwAwggGKAoIBgQCp6zt40WB3K7yj
BGugnRuqI3ApftThZWDIpvW0cVmN0nqQxsO6CCnS4dS7SYhGFiIqWjNVc2WG0gv7
nC5DFguqbndNZk9/SjX8EOxKz4ANjd61WnTkDO5Tbiiyd+TuEBxhmbEF69bF9dtd
1Sgo8jmM7j+aa6ClYh/49bx+blJDF76EGSrmB1q+obMeZURhPXNBeoiqKR83x5Hc
LTJYMocvb6m8uABwuSka13Gb3QGu06p5ldK6TDK38HsoOy6MFO5F1PrkakG/eBHO
jcBOGPfNmTwWOqvwlcQWykr4QspWS+yTzdkgZ+mxar/yQuq7wuYSNaEfGH5yoYtV
WIgKwwZRDPqpSQuVe+J+MWLPQ6RTM+rXIHVzHtPk1f8DrgN+hSepJy/sVBBEQCzj
nyB+scn76ETWch3iyVoMj3oVOGs0b4XTDMmUw/DmEt5TDah7TqE3G+fpBIbgMSjx
MzUQZl27izmM9nQCJRAosNoNwXqlM754K9WcY6gT8kkcj1CfTmMCAwEAAaOCAo4w
ggKKMIHhBgNVHREEgdkwgdaCB2lkbnNhbnOCH3huLS1rbmlnLTVxYS5pZG4ucHl0
aG9udGVzdC5uZXSCLnhuLS1rbmlnc2dzc2NoZW4tbGNiMHcuaWRuYTIwMDMucHl0
aG9udGVzdC5uZXSCLnhuLS1rbmlnc2djaGVuLWI0YTNkdW4uaWRuYTIwMDgucHl0
aG9udGVzdC5uZXSCJHhuLS1ueGFzbXE2Yi5pZG5hMjAwMy5weXRob250ZXN0Lm5l
dIIkeG4tLW54YXNtbTFjLmlkbmEyMDA4LnB5dGhvbnRlc3QubmV0MA4GA1UdDwEB
/wQEAwIFoDAdBgNVHSUEFjAUBggrBgEFBQcDAQYIKwYBBQUHAwIwDAYDVR0TAQH/
BAIwADAdBgNVHQ4EFgQUW5NCWLC0GMxBTBXrQjNmd0xxL0IwfQYDVR0jBHYwdIAU
8+yUjvKOMMSOaMK/jmoZwMGfdmWhUaRPME0xCzAJBgNVBAYTAlhZMSYwJAYDVQQK
DB1QeXRob24gU29mdHdhcmUgRm91bmRhdGlvbiBDQTEWMBQGA1UEAwwNb3VyLWNh
LXNlcnZlcoIJAMstgJlaaVJbMIGDBggrBgEFBQcBAQR3MHUwPAYIKwYBBQUHMAKG
MGh0dHA6Ly90ZXN0Y2EucHl0aG9udGVzdC5uZXQvdGVzdGNhL3B5Y2FjZXJ0LmNl
cjA1BggrBgEFBQcwAYYpaHR0cDovL3Rlc3RjYS5weXRob250ZXN0Lm5ldC90ZXN0
Y2Evb2NzcC8wQwYDVR0fBDwwOjA4oDagNIYyaHR0cDovL3Rlc3RjYS5weXRob250
ZXN0Lm5ldC90ZXN0Y2EvcmV2b2NhdGlvbi5jcmwwDQYJKoZIhvcNAQELBQADggGB
AF/Ym9wiVYBH4ZsEPkZTm+WnSo/rUwE51QT2z9xIhIqpw6U1Ii+rdHfspv2x5uZ0
gjhUCyc25uw9/pIasno1DaPlfP/lWxooSykfmRs+Eeni4NfaBk/je4ytMPQ5JOit
Kg5xdKvtYumfhX5qsLtTtNdruNpUFVyaQc9h8atn1idcDKPXQecnPliJ1h8/KlLM
EwtL5ta6oMf94xekuNrMy4hwITtw3wlAbOcCgQiAsDZ3+0TFz78ZVHzRTh+iRJ7Y
Vg6/SwvghG+89sZ/NXoXyoOzgsZO0/PYMAX9bTyKq2NVb8UYumb+4jUEK652NPBW
GOhU24OyG5MKJYGB8CXKCpW+ji8FP2zn3tF8uKNxfG+KBcNp62/mdowR4VkLElMH
QoToie6rfSiBSOh51c+iBaT9cix9tBwIkE4NEAXRmsBpTAoUORf7TVv2QrtGJyMP
XldbuK6bow4jWUFjQaTxad+zo1wQ1WMwdKg8DI4caxDhEycCJpv9iJN+kZz5wgcn
pA==
-----END CERTIFICATE-----
