-----BEGIN PRIVATE KEY-----
MIIG/AIBADANBgkqhkiG9w0BAQEFAASCBuYwggbiAgEAAoIBgQCc6vin7LAoYfB4
MN7prO0G3pPOc6P0YAn4JTaFQT6Qip0h9f1RxDTHXopVf9G7iknuiYO24W2igG4s
OCBRKNB3jLWQ/9nZUwOK02yBsEEObUAjLpbohQq8AThWrHZR3wc+/xBWM8DFV/nq
7GhYYMzYD2xZTsSzUKCruW6kmTrfDsdBTrLrrYbKqtpp4H8yvdN3E1mHn21b9Zi4
bBbe2/EZ671Rivtxvnoz6YOcm2O+VSGTUiVTMuvuuTLIVq/APQqAkkrUqVv+RejD
X/RkmzfnlU8FdhdDxN+P6LUgj5G5InWU4TNbzCJvj/CBSiib5xr0FdLvIV2SNOmb
zYsUdqjiGL/KifTNLtoMbtcUkksCDujTPrqDhOehPt285fQTY3+ce+3TiAeB50tU
Ph+dBytfNDebzwbiex6ev3bmA0ooP3AlK0zsVgPBl9+X8JO9ds2xCAQ65QocweTk
u+NXfmgyHNUzmEjyZBV1wgarT6ERlV+3SXPHXCH4tj1aOsKJTe8CAwEAAQKCAYA+
BeIi/brjO1MBLs/tLRzDClcB01OK1Cscmhjistc36pIRSlnGZ/c0lnm3Mb6EkjSG
xHP7ZT8gbAMgF08uxSMhHczmczp4XAeaZ9cLq88LFMO1JEUhwvRrO1A5chGSasVC
cS7T48DeP9fYs3jK9fgBrpb09d1pwwS+25yQEsDiScUYWzL9VKlikgWis8mTFNTw
zAUnRizDnF+xBYhErkquJC/Ae17HprJGspYC4KicIqoSwPVf3VDEGw+ngBwXsAhI
I4MT0U9QlPUpIOHQvyTbAWFvdCx9fQCRVY1GAp7UI6qardSeicUNyA8E3lTtFZ9m
qJU8i4p5u0jJ8y9Oghpjp/YySfL7TCFlUahVLBBOB4ZVC2vzUBN/VoJrcU/lJbov
FWk/uqjEI2shYg53MAUezWKXeBYdii4TJGQ8FKHNXIVz08ytczrd21+tUvBfHHXo
/zjFXlu2zOEn4E0i5U/ZGUO/xRK6yE76SA0FBTiq9eyNsCr4hZGL5mf8rPba9gEC
gcEAzuu5PVzdriQiNShTapb/nCH6zzKubMJq5SlJFloA5V6pntOZaQeGcRmUTmK8
yfwhQg5SsASvORfuy2mJbGWNlsiu5sxgAPwNoe+EsAGLeYGhX4L/kK+Iyt2Hbjtv
wnKDFBWBz183JPyj2oK6qG0DHaP0WjV4GF0L/4WXDsSunT3adFioQ0nh1m+h3KrO
+zZSI/7kDGJb/jdUBfBiwfDFLsr0eKV7xSQ1XcZCW79x+lMZu6RJHr9IAaNnwQ3R
ipFxAoHBAMIjDujYt4jbCcbD7uox3KRA7FE/Lij7M4l7SPsH0hCeBJXU16binfmW
zo03zwIKefgoHV6SGLZZMw3IKh58irankX/2xPkdKx3vnKSPvs0ZfZBWDDxmTSIu
FpCQ8natURSol8PsU8ZDhrJeGovwr8dPazaVeHBNFBJQkjK1sdGLmQIBmbzQR7L2
TIJSmWm8FaqNxdk2S9/XBLoYnc4jCQR+qFl1OkhWY/EsjfIXPkTP4G7KZd5ec6U+
6X3FfpglXwKBwHdJU0e5wp5CfGnyrmwTUpYazLEoAX/3cJJdg6HcDwor0VMbnyP6
T5nh6ipqJ3W14SJoiWipuq4KSwJ++9c+kCpt1M5+4ZWPuPgy0WZ57YMFpRcfuN8b
Ipv4q7tzjlElnMU2RNhchrjO4FL27E5uUc6Dlzlt+6bn9SPASr4byqIhZ0+NUKtB
62yofEJvQdV2klHn/mXZSjk6gjjORNCTUclQ/TCUDc8vuYgu5FBqBHYP9BTFd9W+
5e7z2btkkPj2MQKBwFH6L9+PM+EsbTJrpkVqjLsnVyLvxPQ1LwwM7UJjiQbPUyxZ
1j54TzEHx2zGdjlsZxitB8nZc2n8vJxDO9XnzUNX+w7IC2EOOhjIB6NNt8ovy1/Z
lg0jPcsDHzAopNoMUcKhdoSbFL0R4p0LM7aIChHlrWY9M8BoK+OX9kRHiTDs+81n
E54xbTVa3+/gJTwK2jNM7pDMZrm8uBhFMM3M6Y/mU/yCjfvhzw4WPFJQElFIXoMq
IF4IEFlk+X/Ml6pzjQKBwALkJlovs5h+HS0U350O3McW2ja0vo6DCrICwIxlPjoT
r9XFTSmJG+kK6tT3wSlYk6Y8AR87/xOMrNqiPspaOarNYrty41Le/YBTwUl2Ba3X
hbczw0SRV9FsDS6zMIfzL5UiR7AerB9mm5W9BUKisn4mk0Kza1iNHMs8VYJCEN//
gVabMlxR0d1NeoJGTQP2aSD4K3f9iPjzbTisT95bgL6BWtx9e3y+3l+kFInKrVU8
Ua5T4gqHMMOz1SU891+ZCA==
-----END PRIVATE KEY-----
Certificate:
    Data:
        Version: 3 (0x2)
        Serial Number:
            cb:2d:80:99:5a:69:52:60
        Signature Algorithm: sha256WithRSAEncryption
        Issuer: C=XY, O=Python Software Foundation CA, CN=our-ca-server
        Validity
            Not Before: Aug 29 14:23:16 2018 GMT
            Not After : Oct 28 14:23:16 2525 GMT
        Subject: C=XY, L=Castle Anthrax, O=Python Software Foundation, CN=idnsans
        Subject Public Key Info:
            Public Key Algorithm: rsaEncryption
                Public-Key: (3072 bit)
                Modulus:
                    00:9c:ea:f8:a7:ec:b0:28:61:f0:78:30:de:e9:ac:
                    ed:06:de:93:ce:73:a3:f4:60:09:f8:25:36:85:41:
                    3e:90:8a:9d:21:f5:fd:51:c4:34:c7:5e:8a:55:7f:
                    d1:bb:8a:49:ee:89:83:b6:e1:6d:a2:80:6e:2c:38:
                    20:51:28:d0:77:8c:b5:90:ff:d9:d9:53:03:8a:d3:
                    6c:81:b0:41:0e:6d:40:23:2e:96:e8:85:0a:bc:01:
                    38:56:ac:76:51:df:07:3e:ff:10:56:33:c0:c5:57:
                    f9:ea:ec:68:58:60:cc:d8:0f:6c:59:4e:c4:b3:50:
                    a0:ab:b9:6e:a4:99:3a:df:0e:c7:41:4e:b2:eb:ad:
                    86:ca:aa:da:69:e0:7f:32:bd:d3:77:13:59:87:9f:
                    6d:5b:f5:98:b8:6c:16:de:db:f1:19:eb:bd:51:8a:
                    fb:71:be:7a:33:e9:83:9c:9b:63:be:55:21:93:52:
                    25:53:32:eb:ee:b9:32:c8:56:af:c0:3d:0a:80:92:
                    4a:d4:a9:5b:fe:45:e8:c3:5f:f4:64:9b:37:e7:95:
                    4f:05:76:17:43:c4:df:8f:e8:b5:20:8f:91:b9:22:
                    75:94:e1:33:5b:cc:22:6f:8f:f0:81:4a:28:9b:e7:
                    1a:f4:15:d2:ef:21:5d:92:34:e9:9b:cd:8b:14:76:
                    a8:e2:18:bf:ca:89:f4:cd:2e:da:0c:6e:d7:14:92:
                    4b:02:0e:e8:d3:3e:ba:83:84:e7:a1:3e:dd:bc:e5:
                    f4:13:63:7f:9c:7b:ed:d3:88:07:81:e7:4b:54:3e:
                    1f:9d:07:2b:5f:34:37:9b:cf:06:e2:7b:1e:9e:bf:
                    76:e6:03:4a:28:3f:70:25:2b:4c:ec:56:03:c1:97:
                    df:97:f0:93:bd:76:cd:b1:08:04:3a:e5:0a:1c:c1:
                    e4:e4:bb:e3:57:7e:68:32:1c:d5:33:98:48:f2:64:
                    15:75:c2:06:ab:4f:a1:11:95:5f:b7:49:73:c7:5c:
                    21:f8:b6:3d:5a:3a:c2:89:4d:ef
                Exponent: 65537 (0x10001)
        X509v3 extensions:
            X509v3 Subject Alternative Name: 
                DNS:idnsans, DNS:xn--knig-5qa.idn.pythontest.net, DNS:xn--knigsgsschen-lcb0w.idna2003.pythontest.net, DNS:xn--knigsgchen-b4a3dun.idna2008.pythontest.net, DNS:xn--nxasmq6b.idna2003.pythontest.net, DNS:xn--nxasmm1c.idna2008.pythontest.net
            X509v3 Key Usage: critical
                Digital Signature, Key Encipherment
            X509v3 Extended Key Usage: 
                TLS Web Server Authentication, TLS Web Client Authentication
            X509v3 Basic Constraints: critical
                CA:FALSE
            X509v3 Subject Key Identifier: 
                D1:D1:54:C4:39:0E:11:12:4D:C6:52:60:CF:34:4A:29:6C:B8:05:EF
            X509v3 Authority Key Identifier: 
                keyid:B6:58:71:40:A1:55:C5:4E:2E:65:84:44:A4:C6:5B:B6:44:9B:D9:E0
                DirName:/C=XY/O=Python Software Foundation CA/CN=our-ca-server
                serial:CB:2D:80:99:5A:69:52:5B
            Authority Information Access: 
                CA Issuers - URI:http://testca.pythontest.net/testca/pycacert.cer
                OCSP - URI:http://testca.pythontest.net/testca/ocsp/
            X509v3 CRL Distribution Points: 
                Full Name:
                  URI:http://testca.pythontest.net/testca/revocation.crl
    Signature Algorithm: sha256WithRSAEncryption
    Signature Value:
        83:fa:a7:45:b1:d8:ed:96:8c:0a:40:82:c9:91:45:13:a8:13:
        03:4f:57:f4:c4:e3:cf:67:dc:1d:b1:03:a7:a0:2e:80:93:3a:
        f8:7b:fa:24:5e:98:b6:de:5b:8b:0f:30:e9:0e:e5:7b:1d:78:
        9b:db:e6:17:6c:60:75:e6:4f:f7:df:52:2d:5e:07:28:36:e1:
        73:63:f8:f2:e7:10:b4:08:50:19:f3:47:a5:d7:c2:72:9d:2e:
        bb:5d:4c:4b:28:e5:2b:58:3d:c5:34:99:93:43:06:db:ec:b9:
        6c:0d:40:b6:f5:3e:48:1e:28:fb:96:7b:a5:a1:fe:35:a8:69:
        d3:bd:23:a4:c5:25:2d:92:f0:e3:38:6b:08:6b:51:cf:8e:df:
        75:27:06:56:e6:48:6d:fb:4e:61:91:f7:90:8f:72:34:3c:9c:
        6c:88:9c:ff:6d:96:c8:d3:87:ed:68:ae:73:10:0a:ac:25:98:
        09:6a:f0:dd:a2:d7:02:49:c9:06:7d:1b:97:0c:6d:60:b6:b2:
        a1:fe:e0:1c:95:19:41:05:f2:4e:d9:b5:6e:ce:37:06:c2:63:
        3f:e8:4a:29:af:5d:24:3c:0b:b2:43:74:d0:b5:fc:f9:4d:cf:
        bc:ec:5c:d7:c8:7e:3c:83:c6:1e:42:6c:09:14:4f:aa:75:3f:
        12:8d:d0:bf:ea:2d:86:f5:3a:29:5c:8e:f0:c9:85:71:c9:1c:
        5c:f4:81:d7:e3:af:34:cd:b4:b3:4a:25:e7:79:51:53:8e:e2:
        02:f0:5c:34:33:08:17:a1:4f:c6:a1:29:af:ae:0f:27:b9:08:
        93:32:59:e5:31:4c:23:e2:76:77:5c:d4:86:aa:83:5e:95:c9:
        83:5e:98:e3:a9:2f:e2:b3:c4:5a:04:a1:ec:70:85:1d:ce:9e:
        dd:a0:54:0f:8f:9d:09:7f:b0:cd:7a:f3:a8:87:18:86:6e:a4:
        d5:8c:90:de:c4:c2:b5:ab:77:e6:00:21:23:e5:32:80:17:ac:
        58:f9:d4:ed:b4:83
-----BEGIN CERTIFICATE-----
MIIGvzCCBSegAwIBAgIJAMstgJlaaVJgMA0GCSqGSIb3DQEBCwUAME0xCzAJBgNV
BAYTAlhZMSYwJAYDVQQKDB1QeXRob24gU29mdHdhcmUgRm91bmRhdGlvbiBDQTEW
MBQGA1UEAwwNb3VyLWNhLXNlcnZlcjAgFw0xODA4MjkxNDIzMTZaGA8yNTI1MTAy
ODE0MjMxNlowXTELMAkGA1UEBhMCWFkxFzAVBgNVBAcMDkNhc3RsZSBBbnRocmF4
MSMwIQYDVQQKDBpQeXRob24gU29mdHdhcmUgRm91bmRhdGlvbjEQMA4GA1UEAwwH
aWRuc2FuczCCAaIwDQYJKoZIhvcNAQEBBQADggGPADCCAYoCggGBAJzq+KfssChh
8Hgw3ums7Qbek85zo/RgCfglNoVBPpCKnSH1/VHENMdeilV/0buKSe6Jg7bhbaKA
biw4IFEo0HeMtZD/2dlTA4rTbIGwQQ5tQCMuluiFCrwBOFasdlHfBz7/EFYzwMVX
+ersaFhgzNgPbFlOxLNQoKu5bqSZOt8Ox0FOsuuthsqq2mngfzK903cTWYefbVv1
mLhsFt7b8RnrvVGK+3G+ejPpg5ybY75VIZNSJVMy6+65MshWr8A9CoCSStSpW/5F
6MNf9GSbN+eVTwV2F0PE34/otSCPkbkidZThM1vMIm+P8IFKKJvnGvQV0u8hXZI0
6ZvNixR2qOIYv8qJ9M0u2gxu1xSSSwIO6NM+uoOE56E+3bzl9BNjf5x77dOIB4Hn
S1Q+H50HK180N5vPBuJ7Hp6/duYDSig/cCUrTOxWA8GX35fwk712zbEIBDrlChzB
5OS741d+aDIc1TOYSPJkFXXCBqtPoRGVX7dJc8dcIfi2PVo6wolN7wIDAQABo4IC
jjCCAoowgeEGA1UdEQSB2TCB1oIHaWRuc2Fuc4IfeG4tLWtuaWctNXFhLmlkbi5w
eXRob250ZXN0Lm5ldIIueG4tLWtuaWdzZ3NzY2hlbi1sY2Iwdy5pZG5hMjAwMy5w
eXRob250ZXN0Lm5ldIIueG4tLWtuaWdzZ2NoZW4tYjRhM2R1bi5pZG5hMjAwOC5w
eXRob250ZXN0Lm5ldIIkeG4tLW54YXNtcTZiLmlkbmEyMDAzLnB5dGhvbnRlc3Qu
bmV0giR4bi0tbnhhc21tMWMuaWRuYTIwMDgucHl0aG9udGVzdC5uZXQwDgYDVR0P
AQH/BAQDAgWgMB0GA1UdJQQWMBQGCCsGAQUFBwMBBggrBgEFBQcDAjAMBgNVHRMB
Af8EAjAAMB0GA1UdDgQWBBTR0VTEOQ4REk3GUmDPNEopbLgF7zB9BgNVHSMEdjB0
gBS2WHFAoVXFTi5lhESkxlu2RJvZ4KFRpE8wTTELMAkGA1UEBhMCWFkxJjAkBgNV
BAoMHVB5dGhvbiBTb2Z0d2FyZSBGb3VuZGF0aW9uIENBMRYwFAYDVQQDDA1vdXIt
Y2Etc2VydmVyggkAyy2AmVppUlswgYMGCCsGAQUFBwEBBHcwdTA8BggrBgEFBQcw
AoYwaHR0cDovL3Rlc3RjYS5weXRob250ZXN0Lm5ldC90ZXN0Y2EvcHljYWNlcnQu
Y2VyMDUGCCsGAQUFBzABhilodHRwOi8vdGVzdGNhLnB5dGhvbnRlc3QubmV0L3Rl
c3RjYS9vY3NwLzBDBgNVHR8EPDA6MDigNqA0hjJodHRwOi8vdGVzdGNhLnB5dGhv
bnRlc3QubmV0L3Rlc3RjYS9yZXZvY2F0aW9uLmNybDANBgkqhkiG9w0BAQsFAAOC
AYEAg/qnRbHY7ZaMCkCCyZFFE6gTA09X9MTjz2fcHbEDp6AugJM6+Hv6JF6Ytt5b
iw8w6Q7lex14m9vmF2xgdeZP999SLV4HKDbhc2P48ucQtAhQGfNHpdfCcp0uu11M
SyjlK1g9xTSZk0MG2+y5bA1AtvU+SB4o+5Z7paH+Nahp070jpMUlLZLw4zhrCGtR
z47fdScGVuZIbftOYZH3kI9yNDycbIic/22WyNOH7WiucxAKrCWYCWrw3aLXAknJ
Bn0blwxtYLayof7gHJUZQQXyTtm1bs43BsJjP+hKKa9dJDwLskN00LX8+U3PvOxc
18h+PIPGHkJsCRRPqnU/Eo3Qv+othvU6KVyO8MmFcckcXPSB1+OvNM20s0ol53lR
U47iAvBcNDMIF6FPxqEpr64PJ7kIkzJZ5TFMI+J2d1zUhqqDXpXJg16Y46kv4rPE
WgSh7HCFHc6e3aBUD4+dCX+wzXrzqIcYhm6k1YyQ3sTCtat35gAhI+UygBesWPnU
7bSD
-----END CERTIFICATE-----
