-----BEGIN PRIVATE KEY-----
MIIG/gIBADANBgkqhkiG9w0BAQEFAASCBugwggbkAgEAAoIBgQDVNeDWfuh7hH2s
gjfcHcrEk/F7uhYGtBLjg4JFFU6EPIx6AyDOks6dkw5HaAoryCwkNZOVACTZ+/jV
+Uh5J8S0sV3F3X5HdsMkxaThI9xC9opdxxoQ0qghbc9gssKf2iWXPPZGbQnw86LH
z/kHeLZ7njnVA/pFiqmYzaxxQWJ3+E+WaoZQjFD5b8xJ23X2+Q55RqbBJ2DT7+ca
pOhT6I3Wl+MRbH0zQ0UgxEUHgkT4XnLuZscn+tBUF/EoCX7bTGNifLpDb8ZkhKQN
Vnemeb+IF8TFVBJFlZ+fyuTYGw41Mo7CzTlT6uxTZ3dJvesUVrGftE5C+8Lza1nS
XNMkPte6gJNlCj4T/tESR1IImwdS9dy7goQZGpWl6ctvJL6k3hRfpPmMbKtiee5v
X1sU+XZcj9Unlk/gOTcMJeQhO931OXb/tmbnvJu7G1sKXjmfdMLCucc4dClxKcNw
5Wm6nQ4Mz5W2dorm8uCyaxhhP1pSnWtzxg1b+thFPNyiLQMmrHcCAwEAAQKCAYBd
WlzarfBu/KDmIpIAv86jab+HFABG6RuIIHGue9jID5bWaX441JDA772FyGkDqH6j
UA4RZGG+TBQ05BQ2cBIxp6NOWl/LPJXPCPbbWQ89BqOo0d941DOnh2QQi9SplyN0
Z83RIjcDGDoC0O3Rtqn30Fy0ByzSvBbr/8nsQNuzebanPncW14kw3iGNiRjKjVwn
/6ZN1kcQJO+EfAX5j05jUleqrlzXUDH5WdZ7pi86rGgYOEolGC2VVHJTvGyd6oCg
1ZR2VnUD+CU3MPwshoORkHVq5MheStS4RK2OvmWWedaoLPZ/ruj/9pGztZZLMxyA
qYUa0Gj4MVbC0uhyeTse5U+1e99fZfP45z1ZYBBXU2tXlvvbQjV7J6EABjSLag//
lCy6/bq3+bfiA2i5FnvlxC6qKGqTfIXCCNb3nje4iq0RSCedEBJFjJxuRsaxfk+X
+6gOuvjAXpweZmFXZebNgKlh+Is6sRzxoESI7x+f4E8V9ivOWvjehEGsy4FYS7kC
gcEA8MCrfxG7emfPJBzKkz9IVTQl0Bn/WnZ06jaOhjDWvttGqHNoGtAL8oB7jaBw
t2FkfdEAEicbGwyVFTHwp98npPJL9h+pPNDRQoFG6axt9YqxTBX4/m5ZmUu6vxBW
jHc8JjrCTToB6qeDwjEztshPxhi4ZyzCWLwWpoAa/0k66zIf4ougGWOOWPNl0V1h
2ENkbFJ3DW/MpfMqQ6/HnMDQsOUrwM+nG5g+L6Nm6Qwkm+2uyi45YcTNe9Mf9bLz
Hp8VAoHBAOK2qp/6RXP5S8kvy/u23XAAJtrMwelMzL04tz9U/n3Cf37xdRzUUeC9
t0Ku5aLYTzH7YKMi3NnSVkEy0Dz2lpg3B/fYj7nljdeBr3BaphwyQQZl8AMcWjEG
VllslvjJqdhUnUMDHQnn/W1fKVXLi3yZ9JxzCedQFISHOIxOqIKZGhLw8KL5iWBq
3mKFjuD5x0TBOQpPlWNh87qXdXnR8UzllFt/21pDXLG2tt/FlBfggHMN3o2xZ8wN
epw2IjugWwKBwQCqd4H241NgBIkDBO/a+v/4dIghpYbNQvrdq+uW0JX9Zb3OIIki
ExWii57wVR36epdxDr+CGvZyXKJi8413D+c+P+HRT/HBAgppkKfpZRImviFzwksf
vHrstFZyWtstcm/AkfJqRBx/TkVZBwWa8pKprW9EfsjNk8Bl/GchQ3TYfBFfk4W0
9G0iRpVdfUV+n5lHqcxqUzMQffD7JEeukkgyONKWH3Ivc8j0ajq/4L07Ozx8I+a1
d2gXuRH0ItVKZVECgcAZZflrfrA1M+KHoXEqu+vG1l2D+ZhnuJDfSfFNiQoRsK5z
3D0Qg8DAesCDGfDj83O717uVyxwO0v+SwkyN59orJ08fNwWy/8KKOB8daSpe0kpy
mwzubEi2YU1fK0kmigEbGS+dCEZCi9jaXeTVlb4EsYKz3Ddp0JDb4AI3xcAfEWPY
Z2GuAGKhiJdtViURkyn9y9/GBfBod9rENp+UjC6KPNYIAiTi0dUam6uVGh9jJWV+
fjlGim9kbsYjpfTj1S0CgcEAusCL3vAOIIuIn+a0KH9sjsiKmylaWRR8m8Tvnfhf
akXRCPVYD9Nu7qkLKHKjybQy4epqwXJfFr3/lLnZt1Xe6AXE1Am1f7y6N29v/uAw
IwmQ67NiHgnpHQnvL8iEOilcYms/9p4u3F36tfKFPMm8WpPQNqn3eGSd1odeK6+D
aE/j5jK+dNChIF2EL9z6eXSDoWkWjXmWhJuxcvY/tsW/CIA8W40/IH12vsXcN+Q3
61koeV7a9sqKqhy8fGLP24ZO
-----END PRIVATE KEY-----
Certificate:
    Data:
        Version: 3 (0x2)
        Serial Number:
            cb:2d:80:99:5a:69:52:60
        Signature Algorithm: sha256WithRSAEncryption
        Issuer: C=XY, O=Python Software Foundation CA, CN=our-ca-server
        Validity
            Not Before: Aug 29 14:23:16 2018 GMT
            Not After : Oct 28 14:23:16 2525 GMT
        Subject: C=XY, L=Castle Anthrax, O=Python Software Foundation, CN=idnsans
        Subject Public Key Info:
            Public Key Algorithm: rsaEncryption
                RSA Public-Key: (3072 bit)
                Modulus:
                    00:d5:35:e0:d6:7e:e8:7b:84:7d:ac:82:37:dc:1d:
                    ca:c4:93:f1:7b:ba:16:06:b4:12:e3:83:82:45:15:
                    4e:84:3c:8c:7a:03:20:ce:92:ce:9d:93:0e:47:68:
                    0a:2b:c8:2c:24:35:93:95:00:24:d9:fb:f8:d5:f9:
                    48:79:27:c4:b4:b1:5d:c5:dd:7e:47:76:c3:24:c5:
                    a4:e1:23:dc:42:f6:8a:5d:c7:1a:10:d2:a8:21:6d:
                    cf:60:b2:c2:9f:da:25:97:3c:f6:46:6d:09:f0:f3:
                    a2:c7:cf:f9:07:78:b6:7b:9e:39:d5:03:fa:45:8a:
                    a9:98:cd:ac:71:41:62:77:f8:4f:96:6a:86:50:8c:
                    50:f9:6f:cc:49:db:75:f6:f9:0e:79:46:a6:c1:27:
                    60:d3:ef:e7:1a:a4:e8:53:e8:8d:d6:97:e3:11:6c:
                    7d:33:43:45:20:c4:45:07:82:44:f8:5e:72:ee:66:
                    c7:27:fa:d0:54:17:f1:28:09:7e:db:4c:63:62:7c:
                    ba:43:6f:c6:64:84:a4:0d:56:77:a6:79:bf:88:17:
                    c4:c5:54:12:45:95:9f:9f:ca:e4:d8:1b:0e:35:32:
                    8e:c2:cd:39:53:ea:ec:53:67:77:49:bd:eb:14:56:
                    b1:9f:b4:4e:42:fb:c2:f3:6b:59:d2:5c:d3:24:3e:
                    d7:ba:80:93:65:0a:3e:13:fe:d1:12:47:52:08:9b:
                    07:52:f5:dc:bb:82:84:19:1a:95:a5:e9:cb:6f:24:
                    be:a4:de:14:5f:a4:f9:8c:6c:ab:62:79:ee:6f:5f:
                    5b:14:f9:76:5c:8f:d5:27:96:4f:e0:39:37:0c:25:
                    e4:21:3b:dd:f5:39:76:ff:b6:66:e7:bc:9b:bb:1b:
                    5b:0a:5e:39:9f:74:c2:c2:b9:c7:38:74:29:71:29:
                    c3:70:e5:69:ba:9d:0e:0c:cf:95:b6:76:8a:e6:f2:
                    e0:b2:6b:18:61:3f:5a:52:9d:6b:73:c6:0d:5b:fa:
                    d8:45:3c:dc:a2:2d:03:26:ac:77
                Exponent: 65537 (0x10001)
        X509v3 extensions:
            X509v3 Subject Alternative Name: 
                DNS:idnsans, DNS:xn--knig-5qa.idn.pythontest.net, DNS:xn--knigsgsschen-lcb0w.idna2003.pythontest.net, DNS:xn--knigsgchen-b4a3dun.idna2008.pythontest.net, DNS:xn--nxasmq6b.idna2003.pythontest.net, DNS:xn--nxasmm1c.idna2008.pythontest.net
            X509v3 Key Usage: critical
                Digital Signature, Key Encipherment
            X509v3 Extended Key Usage: 
                TLS Web Server Authentication, TLS Web Client Authentication
            X509v3 Basic Constraints: critical
                CA:FALSE
            X509v3 Subject Key Identifier: 
                3A:F3:A6:16:55:26:A0:6D:21:75:8A:57:3F:6E:20:5D:17:6D:51:99
            X509v3 Authority Key Identifier: 
                keyid:1F:D2:DD:83:47:7D:60:07:C3:9C:D5:BA:76:A6:F4:D4:86:9B:76:4B
                DirName:/C=XY/O=Python Software Foundation CA/CN=our-ca-server
                serial:CB:2D:80:99:5A:69:52:5B

            Authority Information Access: 
                CA Issuers - URI:http://testca.pythontest.net/testca/pycacert.cer
                OCSP - URI:http://testca.pythontest.net/testca/ocsp/

            X509v3 CRL Distribution Points: 

                Full Name:
                  URI:http://testca.pythontest.net/testca/revocation.crl

    Signature Algorithm: sha256WithRSAEncryption
         85:48:4e:4c:25:30:90:2a:b5:cb:ac:c5:57:be:90:9b:86:f7:
         36:0a:f2:99:e7:0d:a5:09:e0:00:ef:73:63:f6:86:8d:1a:fc:
         7c:7b:55:d2:fb:24:f1:7a:9f:39:94:1f:cd:8d:22:fe:2e:68:
         45:82:55:f6:3c:05:e1:f6:3e:b2:0b:c4:62:6b:87:57:f3:ef:
         72:8d:ec:80:92:93:4f:eb:fb:40:55:50:89:bf:ea:77:58:8b:
         7d:cd:3c:b2:8d:cc:e2:04:19:03:33:8e:7a:ae:47:11:74:f5:
         8e:0d:6d:f9:d8:81:d0:e7:fc:15:bc:b8:e9:e0:c9:35:29:d3:
         45:15:65:f5:fd:52:dc:c3:41:cd:8f:35:27:8d:68:d8:75:dd:
         10:bc:ce:df:68:64:ae:42:6c:36:68:de:1c:1a:89:09:b1:ff:
         4b:02:db:c9:06:87:43:af:8a:4e:67:f4:c3:26:a7:b5:72:de:
         59:ce:6d:8e:5b:d4:a6:8b:a6:30:ad:32:2c:8f:75:2f:23:a6:
         d1:62:2d:04:b6:22:17:c3:04:f3:b8:af:94:9b:19:5a:be:80:
         36:10:42:a6:b7:3d:e0:4a:1b:97:96:e0:8c:3f:84:f7:49:13:
         f2:b1:1e:1c:6d:d5:dc:8a:68:83:67:30:53:eb:5b:4f:94:19:
         5b:71:79:cc:66:eb:35:13:f8:f8:99:c7:a8:ee:b8:d7:7c:cd:
         2b:7d:4d:d3:0a:10:88:b4:3c:ed:28:43:44:b9:4b:04:52:40:
         a6:8e:4e:37:19:7d:f6:0c:01:38:3d:44:1e:dd:49:ee:18:81:
         f7:41:27:78:2c:fe:7e:7f:fd:47:3d:cc:4a:9c:0e:30:c1:5e:
         94:66:be:d4:ad:83:70:f3:a8:4d:53:8c:5d:8e:07:ff:1a:e0:
         5c:19:29:9d:ef:4a:29:db:22:8c:2e:c2:2c:85:a0:99:56:ab:
         af:b3:d3:df:63:37:0d:26:28:2b:c0:c9:f9:9f:f1:ff:95:ef:
         3d:38:34:19:c8:27
-----BEGIN CERTIFICATE-----
MIIGvzCCBSegAwIBAgIJAMstgJlaaVJgMA0GCSqGSIb3DQEBCwUAME0xCzAJBgNV
BAYTAlhZMSYwJAYDVQQKDB1QeXRob24gU29mdHdhcmUgRm91bmRhdGlvbiBDQTEW
MBQGA1UEAwwNb3VyLWNhLXNlcnZlcjAgFw0xODA4MjkxNDIzMTZaGA8yNTI1MTAy
ODE0MjMxNlowXTELMAkGA1UEBhMCWFkxFzAVBgNVBAcMDkNhc3RsZSBBbnRocmF4
MSMwIQYDVQQKDBpQeXRob24gU29mdHdhcmUgRm91bmRhdGlvbjEQMA4GA1UEAwwH
aWRuc2FuczCCAaIwDQYJKoZIhvcNAQEBBQADggGPADCCAYoCggGBANU14NZ+6HuE
fayCN9wdysST8Xu6Fga0EuODgkUVToQ8jHoDIM6Szp2TDkdoCivILCQ1k5UAJNn7
+NX5SHknxLSxXcXdfkd2wyTFpOEj3EL2il3HGhDSqCFtz2Cywp/aJZc89kZtCfDz
osfP+Qd4tnueOdUD+kWKqZjNrHFBYnf4T5ZqhlCMUPlvzEnbdfb5DnlGpsEnYNPv
5xqk6FPojdaX4xFsfTNDRSDERQeCRPhecu5mxyf60FQX8SgJfttMY2J8ukNvxmSE
pA1Wd6Z5v4gXxMVUEkWVn5/K5NgbDjUyjsLNOVPq7FNnd0m96xRWsZ+0TkL7wvNr
WdJc0yQ+17qAk2UKPhP+0RJHUgibB1L13LuChBkalaXpy28kvqTeFF+k+Yxsq2J5
7m9fWxT5dlyP1SeWT+A5Nwwl5CE73fU5dv+2Zue8m7sbWwpeOZ90wsK5xzh0KXEp
w3DlabqdDgzPlbZ2iuby4LJrGGE/WlKda3PGDVv62EU83KItAyasdwIDAQABo4IC
jjCCAoowgeEGA1UdEQSB2TCB1oIHaWRuc2Fuc4IfeG4tLWtuaWctNXFhLmlkbi5w
eXRob250ZXN0Lm5ldIIueG4tLWtuaWdzZ3NzY2hlbi1sY2Iwdy5pZG5hMjAwMy5w
eXRob250ZXN0Lm5ldIIueG4tLWtuaWdzZ2NoZW4tYjRhM2R1bi5pZG5hMjAwOC5w
eXRob250ZXN0Lm5ldIIkeG4tLW54YXNtcTZiLmlkbmEyMDAzLnB5dGhvbnRlc3Qu
bmV0giR4bi0tbnhhc21tMWMuaWRuYTIwMDgucHl0aG9udGVzdC5uZXQwDgYDVR0P
AQH/BAQDAgWgMB0GA1UdJQQWMBQGCCsGAQUFBwMBBggrBgEFBQcDAjAMBgNVHRMB
Af8EAjAAMB0GA1UdDgQWBBQ686YWVSagbSF1ilc/biBdF21RmTB9BgNVHSMEdjB0
gBQf0t2DR31gB8Oc1bp2pvTUhpt2S6FRpE8wTTELMAkGA1UEBhMCWFkxJjAkBgNV
BAoMHVB5dGhvbiBTb2Z0d2FyZSBGb3VuZGF0aW9uIENBMRYwFAYDVQQDDA1vdXIt
Y2Etc2VydmVyggkAyy2AmVppUlswgYMGCCsGAQUFBwEBBHcwdTA8BggrBgEFBQcw
AoYwaHR0cDovL3Rlc3RjYS5weXRob250ZXN0Lm5ldC90ZXN0Y2EvcHljYWNlcnQu
Y2VyMDUGCCsGAQUFBzABhilodHRwOi8vdGVzdGNhLnB5dGhvbnRlc3QubmV0L3Rl
c3RjYS9vY3NwLzBDBgNVHR8EPDA6MDigNqA0hjJodHRwOi8vdGVzdGNhLnB5dGhv
bnRlc3QubmV0L3Rlc3RjYS9yZXZvY2F0aW9uLmNybDANBgkqhkiG9w0BAQsFAAOC
AYEAhUhOTCUwkCq1y6zFV76Qm4b3NgrymecNpQngAO9zY/aGjRr8fHtV0vsk8Xqf
OZQfzY0i/i5oRYJV9jwF4fY+sgvEYmuHV/Pvco3sgJKTT+v7QFVQib/qd1iLfc08
so3M4gQZAzOOeq5HEXT1jg1t+diB0Of8Fby46eDJNSnTRRVl9f1S3MNBzY81J41o
2HXdELzO32hkrkJsNmjeHBqJCbH/SwLbyQaHQ6+KTmf0wyantXLeWc5tjlvUpoum
MK0yLI91LyOm0WItBLYiF8ME87ivlJsZWr6ANhBCprc94Eobl5bgjD+E90kT8rEe
HG3V3Ipog2cwU+tbT5QZW3F5zGbrNRP4+JnHqO6413zNK31N0woQiLQ87ShDRLlL
BFJApo5ONxl99gwBOD1EHt1J7hiB90EneCz+fn/9Rz3MSpwOMMFelGa+1K2DcPOo
TVOMXY4H/xrgXBkpne9KKdsijC7CLIWgmVarr7PT32M3DSYoK8DJ+Z/x/5XvPTg0
Gcgn
-----END CERTIFICATE-----
