-----BEGIN PRIVATE KEY-----
MIIG/AIBADANBgkqhkiG9w0BAQEFAASCBuYwggbiAgEAAoIBgQDZIpgydF9xLChO
/QvL1W20ya0XpBsJpRpskFes+O8Y7fvcA50Gt5xvYzK3osmzqfGEl4rNn4atPxZX
3rc4TNuDtw0o47TkGB9A2R4qRJKt6jq0+xtNY92TwbOyxlcZghufUPl9US30G6Up
f8zzBhColL/5PvrCjiczDrTpOUr5RD3CESlRoI4xBHdOe7jvg0NvqIjQnmiAjoWq
sI0mHGFonYE0Qs3lE9y3OroCxkxDXEiR+zqUKBwsBefzGLaWsKClmtf4pIDoMXBm
plBSm7uCeQJqcHEVjCWz6DJw++GKLv4mSMOaIQsZwoTqSvRwI44xjPK5p6NmNiA+
Ndg17+mS0k/vV5iyWOT4f30a1rD+0gICrZXdJ1AHzrLg0NNyWo8dlC4greqc1nqT
iaABtAPf7WfJ+33dVR6fCen7fG5yI3nL0UiU4ENk0ltlaWMp3N9TJF49mSTRQu7R
rfKW97cX+KEWub/GjsVLkrkurSxhRgP1KVkjafZRhUHoNZsPlkECAwEAAQKCAYAQ
W2vNuTiLZQEwWh2uYEigauTwN/uVcWuZLBJ+xE32uc7UVy1YGTLerUFf1hKNx0qb
a3MYZGEX4f3D5tI0mo2a0YpbPzQcTrjkALcmBf5qvY9onNYEsXY6sEfiOtDK6iM8
kDQLPbdRgVei1a7Ry+4rVPFVTGpFh8HqNbxpKVi9iGeCnBpZvNeZV7XJIsbevCuz
WKXd2WET9iiZoC0x5sdrwxm9nx61mBZzcygaF2gdVvFclelmydK9ekBr7ruqhGmi
DZ+tIB6cUWagfwE/BCbz316fc8FabRs8J+6O/F/GVvn7q1XNAur9VD3DOgtco2Ti
haS8V6sMd4MWxcULMai997s9gzus7e5d3afmRC8sLLge57DDSVdaUp1aBkrgKcFI
mVGNEC1EhBG/lehmYgXYXQI0PJhUsqT1dc9ivGyjQoSe1PEeUOfU4sautPKIqKYN
wKBJGpXX0UJc7eij4dCqPe4zFa9+Qva40QPsNhBrMpR36XwYFrqNUwhQ8qVqBbEC
gcEA/0wQ4r6RPGE30OqcPvMyu1pOXZPejeXqsMuG1KiNMW1b4Cc58DUXdSbmoMii
OgBxhn3+X5ygk1OQO6TwQqSiBMZYDehTKd5gYw0p0ZlVEZvz9DY+XsbBAvt0CzW3
4tIt8CM/pzj1f32MN07aanlaEIJV5fAajfWmOuDltpr3W/RhOFZUmqv9g9VsGHYD
yIy/81yetRA5mQ+3NGTcXLYdL+CQREAyVJ4R+i5Jr7/Z4peFUnq+TrOWIs9mQFnP
CM4FAoHBANm7ocOeFMaEag7u/+/pJSqO1iCL2MghjivcLfln4DXErS54KQsBeIfD
9JlE//0PLFUO46fanI/chMuBTscG1h58Ut7eigXhYS2v1eih7oydLQhOL/uLuCfu
fD9ac6LKG0LGA969lj0q+a6kcyD7SWUTGODXCdkLfFOhiCfaSj/4Pcnlq3kWjaeb
UTn91aBOKsLWNppGf1f7GkFwaftIXZkkb461XH+N0SUfiTQNLey26YgVbf/3oDf2
OgeiOJKgDQKBwFCE7zZ0oF4I04/izxDTp4aLvveosaLThyfnqUjdOFsEgNu7w3xN
Ym6irE69uNzOUv/2MQp63fJZgr4tEVITlr4myJLqWYB1ELVs62meEMSTCWhWy2kd
CrckE7+NW8gAPljk5SiawGNLd7Ph/OVkDNH0KZ9yEQ4BEkKzt//V9HpeI2OfZuO5
pyWzZHp6jkrsiYX6ClxVF7V8zW2K+i2Lir0U+KtuC/HAQS9E9hymR9Q9seEHsYok
/g9QlpFpQfEm+QKBwB1mIVx5btKzNGLZ0IMDVvpdGPqCB35WUY0IiMihRvvbl4qr
vNb4lt62DcPYNjxkHRdLEGAsu3ENVHzp88oZ2TV6kfH32Gkc2nNBx79GhiBEZL03
WXE8l1wE7o/bVbvIUE/+zqz3ql6N+/Khz83HQEy+fGB3iKPe0iW0rN68scPbb/Rf
53xNGElmRlxvMrYXd9yg8fR4yl8Fz7DATf8Y8VJpQgrh4CB09KVvkaYOlYHd3MB8
LEMgm2iS/ZjkRYE+zQKBwGppxfpQ8Jx3kEFfTF8iYklbw+W1k2c6BMgw0KUMwbMm
1wC78ezLFEYZHQvlOdGW7mqiSGxtoWPV4BDzZ+wpoh7W0xbbTidKk5QxJg74d7QL
Q9oGNDlgECqUOmd4tL+mDsV4XHpdLUnLZX5WSqoXMNFdx69EeDqT+MRAz7jM005M
7lvniuY0D5+2gJ2n0OKtrbFfO5pR9qwhBSiXCIsYHWEmmqwGZcYJYImkAN+zbeBE
SkV467ot6Y1rLgUmrPgoHQ==
-----END PRIVATE KEY-----
Certificate:
    Data:
        Version: 3 (0x2)
        Serial Number:
            cb:2d:80:99:5a:69:52:60
        Signature Algorithm: sha256WithRSAEncryption
        Issuer: C=XY, O=Python Software Foundation CA, CN=our-ca-server
        Validity
            Not Before: Aug 29 14:23:16 2018 GMT
            Not After : Oct 28 14:23:16 2037 GMT
        Subject: C=XY, L=Castle Anthrax, O=Python Software Foundation, CN=idnsans
        Subject Public Key Info:
            Public Key Algorithm: rsaEncryption
                Public-Key: (3072 bit)
                Modulus:
                    00:d9:22:98:32:74:5f:71:2c:28:4e:fd:0b:cb:d5:
                    6d:b4:c9:ad:17:a4:1b:09:a5:1a:6c:90:57:ac:f8:
                    ef:18:ed:fb:dc:03:9d:06:b7:9c:6f:63:32:b7:a2:
                    c9:b3:a9:f1:84:97:8a:cd:9f:86:ad:3f:16:57:de:
                    b7:38:4c:db:83:b7:0d:28:e3:b4:e4:18:1f:40:d9:
                    1e:2a:44:92:ad:ea:3a:b4:fb:1b:4d:63:dd:93:c1:
                    b3:b2:c6:57:19:82:1b:9f:50:f9:7d:51:2d:f4:1b:
                    a5:29:7f:cc:f3:06:10:a8:94:bf:f9:3e:fa:c2:8e:
                    27:33:0e:b4:e9:39:4a:f9:44:3d:c2:11:29:51:a0:
                    8e:31:04:77:4e:7b:b8:ef:83:43:6f:a8:88:d0:9e:
                    68:80:8e:85:aa:b0:8d:26:1c:61:68:9d:81:34:42:
                    cd:e5:13:dc:b7:3a:ba:02:c6:4c:43:5c:48:91:fb:
                    3a:94:28:1c:2c:05:e7:f3:18:b6:96:b0:a0:a5:9a:
                    d7:f8:a4:80:e8:31:70:66:a6:50:52:9b:bb:82:79:
                    02:6a:70:71:15:8c:25:b3:e8:32:70:fb:e1:8a:2e:
                    fe:26:48:c3:9a:21:0b:19:c2:84:ea:4a:f4:70:23:
                    8e:31:8c:f2:b9:a7:a3:66:36:20:3e:35:d8:35:ef:
                    e9:92:d2:4f:ef:57:98:b2:58:e4:f8:7f:7d:1a:d6:
                    b0:fe:d2:02:02:ad:95:dd:27:50:07:ce:b2:e0:d0:
                    d3:72:5a:8f:1d:94:2e:20:ad:ea:9c:d6:7a:93:89:
                    a0:01:b4:03:df:ed:67:c9:fb:7d:dd:55:1e:9f:09:
                    e9:fb:7c:6e:72:23:79:cb:d1:48:94:e0:43:64:d2:
                    5b:65:69:63:29:dc:df:53:24:5e:3d:99:24:d1:42:
                    ee:d1:ad:f2:96:f7:b7:17:f8:a1:16:b9:bf:c6:8e:
                    c5:4b:92:b9:2e:ad:2c:61:46:03:f5:29:59:23:69:
                    f6:51:85:41:e8:35:9b:0f:96:41
                Exponent: 65537 (0x10001)
        X509v3 extensions:
            X509v3 Subject Alternative Name: 
                DNS:idnsans, DNS:xn--knig-5qa.idn.pythontest.net, DNS:xn--knigsgsschen-lcb0w.idna2003.pythontest.net, DNS:xn--knigsgchen-b4a3dun.idna2008.pythontest.net, DNS:xn--nxasmq6b.idna2003.pythontest.net, DNS:xn--nxasmm1c.idna2008.pythontest.net
            X509v3 Key Usage: critical
                Digital Signature, Key Encipherment
            X509v3 Extended Key Usage: 
                TLS Web Server Authentication, TLS Web Client Authentication
            X509v3 Basic Constraints: critical
                CA:FALSE
            X509v3 Subject Key Identifier: 
                12:F9:B8:06:A6:7C:3C:0B:17:83:BB:05:89:BA:CA:9A:59:59:FA:31
            X509v3 Authority Key Identifier: 
                keyid:B4:91:DA:7B:B6:9A:66:F5:39:93:E1:9F:AD:46:4C:51:8E:60:F8:E8
                DirName:/C=XY/O=Python Software Foundation CA/CN=our-ca-server
                serial:CB:2D:80:99:5A:69:52:5B
            Authority Information Access: 
                CA Issuers - URI:http://testca.pythontest.net/testca/pycacert.cer
                OCSP - URI:http://testca.pythontest.net/testca/ocsp/
            X509v3 CRL Distribution Points: 
                Full Name:
                  URI:http://testca.pythontest.net/testca/revocation.crl
    Signature Algorithm: sha256WithRSAEncryption
    Signature Value:
        64:f3:40:b8:16:6b:7f:3b:11:c2:41:83:e1:bc:91:08:fd:d3:
        d1:e7:e8:18:fe:d0:7a:ee:d0:4a:84:8e:cf:65:5c:34:3a:86:
        06:d3:1f:98:7d:17:8f:57:74:7a:4a:1f:78:e2:96:35:66:9d:
        8a:86:f6:ac:60:47:9e:0e:3d:d6:61:38:57:b7:49:49:b8:06:
        2c:69:3d:7a:8c:f3:2d:28:cb:78:ea:c0:f0:be:8a:26:ac:4f:
        2a:78:50:6e:54:53:c6:05:5f:df:00:45:de:e4:30:36:91:24:
        32:75:20:fb:85:bf:48:8e:02:31:01:9c:94:c7:1b:5b:f3:9f:
        2f:6c:0b:e6:76:e0:66:23:76:08:a7:b6:19:f9:c1:1d:d5:f8:
        44:d3:d6:21:2a:1d:b7:9d:5a:13:ad:0d:99:51:73:d4:31:13:
        bd:6f:55:ed:5a:74:54:4e:93:78:84:a9:a8:5b:b0:e1:0e:45:
        79:8a:8e:2c:8b:a9:5d:c1:2d:61:e5:c8:d2:4e:69:14:bf:34:
        ed:38:d2:3a:7b:17:41:71:8e:20:d7:e2:e6:ff:5c:47:c2:d1:
        03:6b:77:aa:c1:38:f8:93:c3:6d:85:ad:69:8d:50:fa:d3:1f:
        db:b4:b0:31:53:61:9d:bb:62:fb:ac:77:99:ae:54:73:26:8b:
        0b:1f:b1:2c:1f:de:ac:0c:43:88:ca:10:7e:c9:d0:06:be:ca:
        de:b6:58:90:ed:d0:de:fe:09:ba:8a:d8:25:75:3c:20:c9:44:
        e5:a9:01:6a:3b:6d:63:1f:5d:44:9c:5a:7b:2c:df:78:59:76:
        1c:48:2c:82:c9:9c:5e:86:6e:42:fa:4f:6d:48:68:dc:c1:62:
        a6:05:7d:59:67:5a:e4:e6:58:6e:ae:b5:21:a7:ac:be:cd:6f:
        d5:c9:21:81:ff:82:29:77:b4:c2:69:17:2c:55:bc:3d:92:94:
        ae:a4:67:57:fd:26:e8:f3:60:01:bb:3e:12:e2:0e:14:c9:ac:
        4e:56:d2:87:33:a4
-----BEGIN CERTIFICATE-----
MIIGvTCCBSWgAwIBAgIJAMstgJlaaVJgMA0GCSqGSIb3DQEBCwUAME0xCzAJBgNV
BAYTAlhZMSYwJAYDVQQKDB1QeXRob24gU29mdHdhcmUgRm91bmRhdGlvbiBDQTEW
MBQGA1UEAwwNb3VyLWNhLXNlcnZlcjAeFw0xODA4MjkxNDIzMTZaFw0zNzEwMjgx
NDIzMTZaMF0xCzAJBgNVBAYTAlhZMRcwFQYDVQQHDA5DYXN0bGUgQW50aHJheDEj
MCEGA1UECgwaUHl0aG9uIFNvZnR3YXJlIEZvdW5kYXRpb24xEDAOBgNVBAMMB2lk
bnNhbnMwggGiMA0GCSqGSIb3DQEBAQUAA4IBjwAwggGKAoIBgQDZIpgydF9xLChO
/QvL1W20ya0XpBsJpRpskFes+O8Y7fvcA50Gt5xvYzK3osmzqfGEl4rNn4atPxZX
3rc4TNuDtw0o47TkGB9A2R4qRJKt6jq0+xtNY92TwbOyxlcZghufUPl9US30G6Up
f8zzBhColL/5PvrCjiczDrTpOUr5RD3CESlRoI4xBHdOe7jvg0NvqIjQnmiAjoWq
sI0mHGFonYE0Qs3lE9y3OroCxkxDXEiR+zqUKBwsBefzGLaWsKClmtf4pIDoMXBm
plBSm7uCeQJqcHEVjCWz6DJw++GKLv4mSMOaIQsZwoTqSvRwI44xjPK5p6NmNiA+
Ndg17+mS0k/vV5iyWOT4f30a1rD+0gICrZXdJ1AHzrLg0NNyWo8dlC4greqc1nqT
iaABtAPf7WfJ+33dVR6fCen7fG5yI3nL0UiU4ENk0ltlaWMp3N9TJF49mSTRQu7R
rfKW97cX+KEWub/GjsVLkrkurSxhRgP1KVkjafZRhUHoNZsPlkECAwEAAaOCAo4w
ggKKMIHhBgNVHREEgdkwgdaCB2lkbnNhbnOCH3huLS1rbmlnLTVxYS5pZG4ucHl0
aG9udGVzdC5uZXSCLnhuLS1rbmlnc2dzc2NoZW4tbGNiMHcuaWRuYTIwMDMucHl0
aG9udGVzdC5uZXSCLnhuLS1rbmlnc2djaGVuLWI0YTNkdW4uaWRuYTIwMDgucHl0
aG9udGVzdC5uZXSCJHhuLS1ueGFzbXE2Yi5pZG5hMjAwMy5weXRob250ZXN0Lm5l
dIIkeG4tLW54YXNtbTFjLmlkbmEyMDA4LnB5dGhvbnRlc3QubmV0MA4GA1UdDwEB
/wQEAwIFoDAdBgNVHSUEFjAUBggrBgEFBQcDAQYIKwYBBQUHAwIwDAYDVR0TAQH/
BAIwADAdBgNVHQ4EFgQUEvm4BqZ8PAsXg7sFibrKmllZ+jEwfQYDVR0jBHYwdIAU
tJHae7aaZvU5k+GfrUZMUY5g+OihUaRPME0xCzAJBgNVBAYTAlhZMSYwJAYDVQQK
DB1QeXRob24gU29mdHdhcmUgRm91bmRhdGlvbiBDQTEWMBQGA1UEAwwNb3VyLWNh
LXNlcnZlcoIJAMstgJlaaVJbMIGDBggrBgEFBQcBAQR3MHUwPAYIKwYBBQUHMAKG
MGh0dHA6Ly90ZXN0Y2EucHl0aG9udGVzdC5uZXQvdGVzdGNhL3B5Y2FjZXJ0LmNl
cjA1BggrBgEFBQcwAYYpaHR0cDovL3Rlc3RjYS5weXRob250ZXN0Lm5ldC90ZXN0
Y2Evb2NzcC8wQwYDVR0fBDwwOjA4oDagNIYyaHR0cDovL3Rlc3RjYS5weXRob250
ZXN0Lm5ldC90ZXN0Y2EvcmV2b2NhdGlvbi5jcmwwDQYJKoZIhvcNAQELBQADggGB
AGTzQLgWa387EcJBg+G8kQj909Hn6Bj+0Hru0EqEjs9lXDQ6hgbTH5h9F49XdHpK
H3jiljVmnYqG9qxgR54OPdZhOFe3SUm4BixpPXqM8y0oy3jqwPC+iiasTyp4UG5U
U8YFX98ARd7kMDaRJDJ1IPuFv0iOAjEBnJTHG1vzny9sC+Z24GYjdginthn5wR3V
+ETT1iEqHbedWhOtDZlRc9QxE71vVe1adFROk3iEqahbsOEORXmKjiyLqV3BLWHl
yNJOaRS/NO040jp7F0FxjiDX4ub/XEfC0QNrd6rBOPiTw22FrWmNUPrTH9u0sDFT
YZ27Yvusd5muVHMmiwsfsSwf3qwMQ4jKEH7J0Aa+yt62WJDt0N7+CbqK2CV1PCDJ
ROWpAWo7bWMfXUScWnss33hZdhxILILJnF6GbkL6T21IaNzBYqYFfVlnWuTmWG6u
tSGnrL7Nb9XJIYH/gil3tMJpFyxVvD2SlK6kZ1f9JujzYAG7PhLiDhTJrE5W0ocz
pA==
-----END CERTIFICATE-----
