-----BEGIN PRIVATE KEY-----
MIIG/QIBADANBgkqhkiG9w0BAQEFAASCBucwggbjAgEAAoIBgQDeGGysqNqsz64+
xsN+CUZDfCgPPhzUK0lDUlkEkp0ZeFeQm3+po2Y82gvJIValO5ChiXjPxSgJwoto
SHe4QZ8fWAlkX1d19A8xjjetx1K3dqZstqe3mPP7HQvfJlRkmAtVhFaUj1+SUx9K
s4HB4Lk2hqKUoq3TlRMpeSfJTXaHThVP7KZPWBzfM7pdpGYnznBpxgfymNrpTcXN
CjeR6lUlj/TExHiYLj4E0aODR/SUz0tBNdCQRcRDw+OyREe6Rk32Krl34Pr1dNKe
ER0tulhM2wRFsqw0a8vNs13I30BH4aXAr5bGgLCF2tXbP3KoeoR/GkQSWV14KrhT
xhKD3QEJ8gHjoHYKr4IdcFYcTakbI9E3THsQjQTUMJ/Xygza7OOr6pNPKY10tYfp
7WhyyY7cB/C/rHnUY0f58IZlRdMYgcLCUl7wzUxSVEMyr9Ary8XZZlxuO629k2ud
AIGwIi2TVq+UK0kNPZyGicGHMeEhoNc3YDMB/zYeqMr4KryI+mkCAwEAAQKCAYA4
EENSnHdC+1P5bdRIew/dFjjIjD3bwyeF0oI9GMOGe+3ix5YE3QYAY2xpM7y7Dhu2
40x3akXunMjzJKPwA8SmtWL9juG1mUvCjyt39yJmxJFDTSJuQrKIF694/6R7FjR6
PGNcsgqGlewGv+SH6/HlFTxyN9SYXf/NztMfyimbAzd3Cv56dfwnzdeELu1IrCCN
WtuDvlk4XpUJasRXVadzyXCYwR3OEJJARik4CRBxBhjxl6OT38Co+IiAZiMTHw6z
jXeRuvyxXyYB76BQs9uCt05c5JV1I2OT1aKdpC0EbHlJEzJhmxrpdfBeoVdJUVVg
4b0QoocZE89KXOVmjmIKExxmjOjxH6o6qfxvDQWLspADD4D+69Zqjj6hFAfn3EUW
hcq3RHwuUheCE6i2xRtWPnA1ygqWN9mdNojX1+EXIv0Dh29kFWHpMUC29WWm9JA6
Arx2UrtvoWGYotKxTDxZ0SV5ws/LzGjvMaT/dbXZHjywnB7sPfpcE9b91p8Q6VcC
gcEA+Wr44ZzyMirF9FYYA+KEBL91khmffhXzCDkRXqd1j2BCQWETWqvrUuAx+kwh
FZ5AABdip96w8Eaj8XBWb1c81mJUbOimbcqiV6B4GokCI/7u3FkOMPFRNBq41R/M
43JH6QLHNxhXI4OlZsxv5WHmR5N88kXEHhofBoSn14EHtdkK/Hu8ly1Wux4/da83
2wanwlysmQkk1CnpJVT0st7HrKHP8YWDbcBvH+xysHOIOs22q3gvAF2rsdORidpR
fZnHAoHBAOP03brYpLU1xa5LHQz/B7uWfgJm3l7wRQ627YOfUBe4IjnH2y/kNKjv
ROVjaooB2gtya6Z6xVuY1m4LzUfYuRN1FdX1Np4NjvfgPNFViX+0HoxyAytXn++V
Iy1tCpL6X43Iqrj/VxBcX09vIpbsprW2d3dcIo/45abkAO6Uoa6HUmZoqrqrBA7b
LnuhEfBAyyN42OiXbHDqif7XAWC30yY6k0FfDaOSLiBkAOKZ9lkf7ei3eNr4SdOa
Tf5a/RVKTwKBwB7YfOkiCM3tfkfGcffhBqSzrO2hn5jvS/wjWqOTIDXYGLmPMN6Q
zmyUb3nd+mV7Cb05JylNoCJHCjVsyDPC3TJCPOCvMQ349nTR0qitcwdSmuXDWb7x
yTIhb+Rjp2olkwEdJ9gHeZdZy5XYCKqcnecSNWyc9jEm19lthHhha7uwmOw6vUsQ
/13q0rxSLB05SHwADBRtDhHzEPNd+1k3tggChv3+ng9vsg6HpnNuBlYHZOT12xI3
g2ldme0rg9J9twKBwA4R1gGrT3czy3C3iCJ+Ny732e0yBjWb5NdEqSI/mgTsw4gH
ctrg3fMzWXBDE5dTB+8+77AF0dqWc121csUldj7iMifTi7xzn8hi2b4d5m+wYVZP
zyxEq0VxUguCuG1b8Lvij879S5Vh7iwL8vmXv65lhbgjQqraNOp5FimjmNsZ1Rcn
DKqa1ZRJKPROe7n1ddRJqDGq7vGFOGE3Sgl7Lxgj82TMhh37bsdnBLr3v8G+e8Oq
V1ZEjuH1myzA1vASdwKBwQDcMHbUKeoJUxyIlABFsWxhm0MKwL5ZRgo7rhH01rF2
TF3mbAEHHsAEfkHgBVRooifbxglxUDy1olIyRk+kqs1gmXZA0UmE9lUqoX5+n/j8
pgbCc3sV53x7JJ4BCnAn49XTOnTi2ILeQ3MvTqcj+sDKo+0T4Zq0r5d8ZrMikKbO
HJ4MMBGth645QKhgpb0XgltvSn8aceS4uTxIKrbNpZVnWj/VzuOYoXQmKnZko9p1
dbyjt6PMeVXWj0tz8FB2DGE=
-----END PRIVATE KEY-----
Certificate:
    Data:
        Version: 3 (0x2)
        Serial Number:
            cb:2d:80:99:5a:69:52:60
        Signature Algorithm: sha256WithRSAEncryption
        Issuer: C=XY, O=Python Software Foundation CA, CN=our-ca-server
        Validity
            Not Before: Aug 29 14:23:16 2018 GMT
            Not After : Oct 28 14:23:16 2525 GMT
        Subject: C=XY, L=Castle Anthrax, O=Python Software Foundation, CN=idnsans
        Subject Public Key Info:
            Public Key Algorithm: rsaEncryption
                Public-Key: (3072 bit)
                Modulus:
                    00:de:18:6c:ac:a8:da:ac:cf:ae:3e:c6:c3:7e:09:
                    46:43:7c:28:0f:3e:1c:d4:2b:49:43:52:59:04:92:
                    9d:19:78:57:90:9b:7f:a9:a3:66:3c:da:0b:c9:21:
                    56:a5:3b:90:a1:89:78:cf:c5:28:09:c2:8b:68:48:
                    77:b8:41:9f:1f:58:09:64:5f:57:75:f4:0f:31:8e:
                    37:ad:c7:52:b7:76:a6:6c:b6:a7:b7:98:f3:fb:1d:
                    0b:df:26:54:64:98:0b:55:84:56:94:8f:5f:92:53:
                    1f:4a:b3:81:c1:e0:b9:36:86:a2:94:a2:ad:d3:95:
                    13:29:79:27:c9:4d:76:87:4e:15:4f:ec:a6:4f:58:
                    1c:df:33:ba:5d:a4:66:27:ce:70:69:c6:07:f2:98:
                    da:e9:4d:c5:cd:0a:37:91:ea:55:25:8f:f4:c4:c4:
                    78:98:2e:3e:04:d1:a3:83:47:f4:94:cf:4b:41:35:
                    d0:90:45:c4:43:c3:e3:b2:44:47:ba:46:4d:f6:2a:
                    b9:77:e0:fa:f5:74:d2:9e:11:1d:2d:ba:58:4c:db:
                    04:45:b2:ac:34:6b:cb:cd:b3:5d:c8:df:40:47:e1:
                    a5:c0:af:96:c6:80:b0:85:da:d5:db:3f:72:a8:7a:
                    84:7f:1a:44:12:59:5d:78:2a:b8:53:c6:12:83:dd:
                    01:09:f2:01:e3:a0:76:0a:af:82:1d:70:56:1c:4d:
                    a9:1b:23:d1:37:4c:7b:10:8d:04:d4:30:9f:d7:ca:
                    0c:da:ec:e3:ab:ea:93:4f:29:8d:74:b5:87:e9:ed:
                    68:72:c9:8e:dc:07:f0:bf:ac:79:d4:63:47:f9:f0:
                    86:65:45:d3:18:81:c2:c2:52:5e:f0:cd:4c:52:54:
                    43:32:af:d0:2b:cb:c5:d9:66:5c:6e:3b:ad:bd:93:
                    6b:9d:00:81:b0:22:2d:93:56:af:94:2b:49:0d:3d:
                    9c:86:89:c1:87:31:e1:21:a0:d7:37:60:33:01:ff:
                    36:1e:a8:ca:f8:2a:bc:88:fa:69
                Exponent: 65537 (0x10001)
        X509v3 extensions:
            X509v3 Subject Alternative Name: 
                DNS:idnsans, DNS:xn--knig-5qa.idn.pythontest.net, DNS:xn--knigsgsschen-lcb0w.idna2003.pythontest.net, DNS:xn--knigsgchen-b4a3dun.idna2008.pythontest.net, DNS:xn--nxasmq6b.idna2003.pythontest.net, DNS:xn--nxasmm1c.idna2008.pythontest.net
            X509v3 Key Usage: critical
                Digital Signature, Key Encipherment
            X509v3 Extended Key Usage: 
                TLS Web Server Authentication, TLS Web Client Authentication
            X509v3 Basic Constraints: critical
                CA:FALSE
            X509v3 Subject Key Identifier: 
                C8:06:99:B7:E8:8F:EC:4F:3D:5C:89:6A:06:F5:77:2E:B0:E0:6A:9E
            X509v3 Authority Key Identifier: 
                keyid:C0:0A:2B:28:43:DE:5F:C9:7D:47:E5:47:9B:36:F2:65:8C:67:3B:E2
                DirName:/C=XY/O=Python Software Foundation CA/CN=our-ca-server
                serial:CB:2D:80:99:5A:69:52:5B
            Authority Information Access: 
                CA Issuers - URI:http://testca.pythontest.net/testca/pycacert.cer
                OCSP - URI:http://testca.pythontest.net/testca/ocsp/
            X509v3 CRL Distribution Points: 
                Full Name:
                  URI:http://testca.pythontest.net/testca/revocation.crl
    Signature Algorithm: sha256WithRSAEncryption
    Signature Value:
        40:d1:6d:8e:a2:0b:91:4b:a8:c4:08:d0:f3:f9:8b:d0:a3:0b:
        dc:00:22:8c:f1:2e:2b:e5:e6:b4:6e:ce:9d:cf:59:32:66:6c:
        bb:0e:3b:1d:9c:05:d2:eb:a6:29:f8:74:4f:dc:83:3b:32:5a:
        2c:67:86:61:25:bc:bd:19:eb:20:c6:30:69:0e:4c:b2:e3:18:
        ca:9e:fe:40:bc:1c:ad:8b:03:f5:04:be:90:ce:27:27:2f:83:
        14:57:8d:4f:a0:db:46:ce:e0:7d:e2:cf:7d:ea:0c:fd:8d:00:
        27:0a:db:0d:5f:e7:1e:52:25:1f:64:b9:30:5f:07:1a:10:a3:
        69:35:0e:dc:f8:23:f7:34:07:ce:c8:92:94:39:4d:d5:c3:ab:
        33:aa:f9:67:be:66:18:ac:67:14:5f:93:5f:68:48:04:ed:1e:
        c9:74:28:b2:47:34:49:11:e4:7b:38:32:e5:dc:40:13:b4:69:
        75:39:43:db:7c:4a:f0:2b:94:cd:01:ba:4d:9b:9e:68:b3:ee:
        03:9e:7f:9c:0c:cf:9c:5c:cb:d4:33:d5:f0:e3:21:54:9a:13:
        6f:eb:1a:0f:f3:8b:e8:ef:eb:34:ba:09:77:39:2a:8a:4b:e1:
        7e:9f:b5:05:be:95:b6:92:5d:4c:35:47:38:64:38:5e:27:b8:
        f9:34:94:2f:57:16:b0:f5:6a:21:3f:09:34:b9:dd:f8:d1:47:
        2c:c7:5e:7f:63:49:f4:5b:f4:d9:ea:66:fc:aa:64:27:f0:72:
        d7:94:6f:86:0f:e7:3b:b3:d4:d9:30:67:b8:a2:c3:f7:4d:07:
        44:b3:70:67:dd:b1:21:ac:7c:2a:04:7b:2c:1d:df:0b:82:a9:
        fb:df:88:72:47:1c:f5:5d:a3:f7:52:22:2d:ea:f4:2a:45:4f:
        9b:9d:63:95:59:f3:79:05:2b:f1:5b:3b:62:71:69:90:30:d7:
        7a:b2:c8:ec:68:e5:94:bb:97:00:d0:95:a7:fd:04:6c:f7:8b:
        28:c1:96:9b:6a:94
-----BEGIN CERTIFICATE-----
MIIGvzCCBSegAwIBAgIJAMstgJlaaVJgMA0GCSqGSIb3DQEBCwUAME0xCzAJBgNV
BAYTAlhZMSYwJAYDVQQKDB1QeXRob24gU29mdHdhcmUgRm91bmRhdGlvbiBDQTEW
MBQGA1UEAwwNb3VyLWNhLXNlcnZlcjAgFw0xODA4MjkxNDIzMTZaGA8yNTI1MTAy
ODE0MjMxNlowXTELMAkGA1UEBhMCWFkxFzAVBgNVBAcMDkNhc3RsZSBBbnRocmF4
MSMwIQYDVQQKDBpQeXRob24gU29mdHdhcmUgRm91bmRhdGlvbjEQMA4GA1UEAwwH
aWRuc2FuczCCAaIwDQYJKoZIhvcNAQEBBQADggGPADCCAYoCggGBAN4YbKyo2qzP
rj7Gw34JRkN8KA8+HNQrSUNSWQSSnRl4V5Cbf6mjZjzaC8khVqU7kKGJeM/FKAnC
i2hId7hBnx9YCWRfV3X0DzGON63HUrd2pmy2p7eY8/sdC98mVGSYC1WEVpSPX5JT
H0qzgcHguTaGopSirdOVEyl5J8lNdodOFU/spk9YHN8zul2kZifOcGnGB/KY2ulN
xc0KN5HqVSWP9MTEeJguPgTRo4NH9JTPS0E10JBFxEPD47JER7pGTfYquXfg+vV0
0p4RHS26WEzbBEWyrDRry82zXcjfQEfhpcCvlsaAsIXa1ds/cqh6hH8aRBJZXXgq
uFPGEoPdAQnyAeOgdgqvgh1wVhxNqRsj0TdMexCNBNQwn9fKDNrs46vqk08pjXS1
h+ntaHLJjtwH8L+sedRjR/nwhmVF0xiBwsJSXvDNTFJUQzKv0CvLxdlmXG47rb2T
a50AgbAiLZNWr5QrSQ09nIaJwYcx4SGg1zdgMwH/Nh6oyvgqvIj6aQIDAQABo4IC
jjCCAoowgeEGA1UdEQSB2TCB1oIHaWRuc2Fuc4IfeG4tLWtuaWctNXFhLmlkbi5w
eXRob250ZXN0Lm5ldIIueG4tLWtuaWdzZ3NzY2hlbi1sY2Iwdy5pZG5hMjAwMy5w
eXRob250ZXN0Lm5ldIIueG4tLWtuaWdzZ2NoZW4tYjRhM2R1bi5pZG5hMjAwOC5w
eXRob250ZXN0Lm5ldIIkeG4tLW54YXNtcTZiLmlkbmEyMDAzLnB5dGhvbnRlc3Qu
bmV0giR4bi0tbnhhc21tMWMuaWRuYTIwMDgucHl0aG9udGVzdC5uZXQwDgYDVR0P
AQH/BAQDAgWgMB0GA1UdJQQWMBQGCCsGAQUFBwMBBggrBgEFBQcDAjAMBgNVHRMB
Af8EAjAAMB0GA1UdDgQWBBTIBpm36I/sTz1ciWoG9XcusOBqnjB9BgNVHSMEdjB0
gBTACisoQ95fyX1H5UebNvJljGc74qFRpE8wTTELMAkGA1UEBhMCWFkxJjAkBgNV
BAoMHVB5dGhvbiBTb2Z0d2FyZSBGb3VuZGF0aW9uIENBMRYwFAYDVQQDDA1vdXIt
Y2Etc2VydmVyggkAyy2AmVppUlswgYMGCCsGAQUFBwEBBHcwdTA8BggrBgEFBQcw
AoYwaHR0cDovL3Rlc3RjYS5weXRob250ZXN0Lm5ldC90ZXN0Y2EvcHljYWNlcnQu
Y2VyMDUGCCsGAQUFBzABhilodHRwOi8vdGVzdGNhLnB5dGhvbnRlc3QubmV0L3Rl
c3RjYS9vY3NwLzBDBgNVHR8EPDA6MDigNqA0hjJodHRwOi8vdGVzdGNhLnB5dGhv
bnRlc3QubmV0L3Rlc3RjYS9yZXZvY2F0aW9uLmNybDANBgkqhkiG9w0BAQsFAAOC
AYEAQNFtjqILkUuoxAjQ8/mL0KML3AAijPEuK+XmtG7Onc9ZMmZsuw47HZwF0uum
Kfh0T9yDOzJaLGeGYSW8vRnrIMYwaQ5MsuMYyp7+QLwcrYsD9QS+kM4nJy+DFFeN
T6DbRs7gfeLPfeoM/Y0AJwrbDV/nHlIlH2S5MF8HGhCjaTUO3Pgj9zQHzsiSlDlN
1cOrM6r5Z75mGKxnFF+TX2hIBO0eyXQoskc0SRHkezgy5dxAE7RpdTlD23xK8CuU
zQG6TZueaLPuA55/nAzPnFzL1DPV8OMhVJoTb+saD/OL6O/rNLoJdzkqikvhfp+1
Bb6VtpJdTDVHOGQ4Xie4+TSUL1cWsPVqIT8JNLnd+NFHLMdef2NJ9Fv02epm/Kpk
J/By15Rvhg/nO7PU2TBnuKLD900HRLNwZ92xIax8KgR7LB3fC4Kp+9+Ickcc9V2j
91IiLer0KkVPm51jlVnzeQUr8Vs7YnFpkDDXerLI7GjllLuXANCVp/0EbPeLKMGW
m2qU
-----END CERTIFICATE-----
