-----BEGIN PRIVATE KEY-----
MIIG/QIBADANBgkqhkiG9w0BAQEFAASCBucwggbjAgEAAoIBgQC/IERpBbBh/ax/
SjrKrbEADoQBIMeAFCekgj+PNjne5pNCoajIR+yoTPE+ONpgJM7OoKNYHR9mkrVn
Q1Ix/hB2wDR2+ru7P81gEoPYDU4U9+xC9Ek3z7FE0XU3/SGnPF3kD68I99/6jhFY
OuxjpFAmW7vGzv5MxkQJmBlXIxwiwV2Yl1U9nu9BFvEPXFHmQK4qAmYi1XD5QBLw
RzHuTDDDXYqBvvbzFi/9MqCfYcnu/N27mUyJTMQ9Ed6tMLJGN4co6Cgz+3r0+J+r
1yTtEus9gaz1AMU/uFG7FPudsxsdi9MYZ0AYlsMwPJ2bcfoqljppKoe10hE905TN
d0/F0OgQr4BRqtCKZL6eWbaljdYsp6/5g/66aAENXcLjcK4N1g22FRi4jDYMEC+Y
1aLZpQSvIuI+RnkD23hUOkn0IsPcRmHz8W5YuT1pVqwm9SNb+P0/kBPi6ZCoNsGR
aqhX7CjsksC1cY6pQsUHNSOospxH/t9PayQk2jTYkQyLqXhNRucCAwEAAQKCAYAE
bO1YlzKh2jtbyS66UbJHA48H7afg7daLJx7spH9Li4A+azraxFuU/A8b9zoLPt7x
BuQxXp9DA0OjC/qDwNPFxCaS2LRvHgeV4WffIVO9BY6ZcEmfurXql4UE0l4snqe3
56sQZJjxlseNCPQ/TGc0tCwRauqVgYPCyxxPGbeFkH+n0F0/a4YztiHHzsXwtG+z
9lFCHjoa82Jc4PEliOsaIvjZjz/tmgZrcPgqKJwB5iYGOYL9rOLgXSEQVo/SM2fp
+s3n2gQCbyPMBPI3PXhqrSxhLnAlz0xYvgZ2SDF+1BMr+45HwWNDeC9EJBXsOsch
QkbpteFmh3IhtMgbIsWGiFQCU0ErBCVur6yQC8zLr0gb2PbXL3MN99JAPQgOt9te
8JZEk3PjlKAGZgMFnolF/lAVOdZzgkEX7YKJ16H7fLXoNtaU2qPGLWU0V7kxjJfa
gsuPxRohYNLGk2Ej7qG8jjmnhEpI8eLux5FDlCeOIwb1Y2KZfXgTWiDAbtWtHAEC
gcEA9ugWrtZAfU8p2t9V/yv+RkyE5CTiFJ14mMuzBr4FiU2vf1vguxSTRkXwYulI
ysrwx1F8v4gIC+33tLrmYKvn34GxOwwcWtXbj5iBibyrkvMKNdf4b8fHQap6H6qj
LKxUTD0aPoeJhQdjtIZjYmwgxrsOafByxHNZcFe80NHxREUiZO84S6f7DfiPiJwY
6PXVCbDIqn5re6VhjyuFNPou+/6E3UDT3M2Qu9lcRJFILbPX3S++tqxdyG1M3nCo
S5wBAoHBAMYqQyzt6zAGNJZje4+RdBGCaTU+hT7voo2ZokkTqAF2kZRd5/VkqWaj
+YCCRYXNQFj8Wy4py7g09Y2onw4d42CxN9MC/wrQLpQXysqcpL2gGeQ37aLkAIlW
ob4+Rk28I7pR7ZRMStht1D0J7R5khFXKwZp8X5l1AkPbYygt2OZVMZHAMzwubCQB
hCjG8Rk3Yrs0DXc7KtQtesO3uGHS6Ed3GQ1BYUOy4lz8y1S1QSjJiXFUnmMeI9ne
ZWmkwtuC5wKBwG0wGcfbq80+ku3d0jP0CpCgCiyyOuCO+uPnQRZ8NgqQNkoGIY3Z
/X8YMsQrEivML0qVuKsixxwvclmURYj+vJ3UxsGsC2YIKP6JnM+ChgWIQT2qco1M
NcvOTg9u8JYy51yHsPFyEtineeo9e/nsg1ofIrKqyLYjpKvPwQo/rYhZYmpsd+LN
OHLnNuJc1Y9AF6Qfb74mBfY6HrinsFLLSLfbyHnnz0lYBudrqigQb3D2lUGVeati
8l5OJ64+983oAQKBwQCjyE5ZFhMqUBaqrXJ0SI2b4yM9ZH0QdVLuoaolp99Vxj+w
VqTehuIT+Ta/5eu8GNY0Ne7OirDbgLnq6RD8w+soAZDYEEPnFgVJVRjAuRLXvzln
DGqWFMf0uutXp3THztXgqtInnZ7Gno+qG0gltIJDvh6hpmYFGVZT60Fa9fms9YDQ
rAAsn1m1sKMgaLzgUIyDmRQAFaDiWOx8Up5MC9r7Jg5IjF7tay34GN+dFWnTYi78
wileVozfBxbeZ9S9RMUCgcB6z2nnfClvNFSP4D8mUd7sZiRYyeAIqxL/RtFmhIxs
Znr0iVneb64Ts7MF2ixDNaBa0TuhnMiypbl1f/kmLiMwObN/mm2AArX1hD0XLRBf
PyfiLFvdkPnVrW2tpFvlrJGfv1kvfqnrUBWKVWu0+QDwBJH5xfcTJhKTaCfb9kuf
X9XKtk7uNiWhz97yh56Om0DYUF1thyrau3lJiExuaBqk1jlhP3+Cv1o97LarSjd+
td0a/qsSlMlvsUNoFkgPJsU=
-----END PRIVATE KEY-----
Certificate:
    Data:
        Version: 3 (0x2)
        Serial Number:
            cb:2d:80:99:5a:69:52:5c
        Signature Algorithm: sha256WithRSAEncryption
        Issuer: C=XY, O=Python Software Foundation CA, CN=our-ca-server
        Validity
            Not Before: Aug 29 14:23:16 2018 GMT
            Not After : Oct 28 14:23:16 2525 GMT
        Subject: C=XY, L=Castle Anthrax, O=Python Software Foundation, CN=localhost
        Subject Public Key Info:
            Public Key Algorithm: rsaEncryption
                Public-Key: (3072 bit)
                Modulus:
                    00:bf:20:44:69:05:b0:61:fd:ac:7f:4a:3a:ca:ad:
                    b1:00:0e:84:01:20:c7:80:14:27:a4:82:3f:8f:36:
                    39:de:e6:93:42:a1:a8:c8:47:ec:a8:4c:f1:3e:38:
                    da:60:24:ce:ce:a0:a3:58:1d:1f:66:92:b5:67:43:
                    52:31:fe:10:76:c0:34:76:fa:bb:bb:3f:cd:60:12:
                    83:d8:0d:4e:14:f7:ec:42:f4:49:37:cf:b1:44:d1:
                    75:37:fd:21:a7:3c:5d:e4:0f:af:08:f7:df:fa:8e:
                    11:58:3a:ec:63:a4:50:26:5b:bb:c6:ce:fe:4c:c6:
                    44:09:98:19:57:23:1c:22:c1:5d:98:97:55:3d:9e:
                    ef:41:16:f1:0f:5c:51:e6:40:ae:2a:02:66:22:d5:
                    70:f9:40:12:f0:47:31:ee:4c:30:c3:5d:8a:81:be:
                    f6:f3:16:2f:fd:32:a0:9f:61:c9:ee:fc:dd:bb:99:
                    4c:89:4c:c4:3d:11:de:ad:30:b2:46:37:87:28:e8:
                    28:33:fb:7a:f4:f8:9f:ab:d7:24:ed:12:eb:3d:81:
                    ac:f5:00:c5:3f:b8:51:bb:14:fb:9d:b3:1b:1d:8b:
                    d3:18:67:40:18:96:c3:30:3c:9d:9b:71:fa:2a:96:
                    3a:69:2a:87:b5:d2:11:3d:d3:94:cd:77:4f:c5:d0:
                    e8:10:af:80:51:aa:d0:8a:64:be:9e:59:b6:a5:8d:
                    d6:2c:a7:af:f9:83:fe:ba:68:01:0d:5d:c2:e3:70:
                    ae:0d:d6:0d:b6:15:18:b8:8c:36:0c:10:2f:98:d5:
                    a2:d9:a5:04:af:22:e2:3e:46:79:03:db:78:54:3a:
                    49:f4:22:c3:dc:46:61:f3:f1:6e:58:b9:3d:69:56:
                    ac:26:f5:23:5b:f8:fd:3f:90:13:e2:e9:90:a8:36:
                    c1:91:6a:a8:57:ec:28:ec:92:c0:b5:71:8e:a9:42:
                    c5:07:35:23:a8:b2:9c:47:fe:df:4f:6b:24:24:da:
                    34:d8:91:0c:8b:a9:78:4d:46:e7
                Exponent: 65537 (0x10001)
        X509v3 extensions:
            X509v3 Subject Alternative Name: 
                DNS:localhost
            X509v3 Key Usage: critical
                Digital Signature, Key Encipherment
            X509v3 Extended Key Usage: 
                TLS Web Server Authentication, TLS Web Client Authentication
            X509v3 Basic Constraints: critical
                CA:FALSE
            X509v3 Subject Key Identifier: 
                80:C9:44:20:B5:9A:FB:66:E0:79:71:C6:DE:BB:24:A0:7B:D7:D3:8C
            X509v3 Authority Key Identifier: 
                keyid:B6:58:71:40:A1:55:C5:4E:2E:65:84:44:A4:C6:5B:B6:44:9B:D9:E0
                DirName:/C=XY/O=Python Software Foundation CA/CN=our-ca-server
                serial:CB:2D:80:99:5A:69:52:5B
            Authority Information Access: 
                CA Issuers - URI:http://testca.pythontest.net/testca/pycacert.cer
                OCSP - URI:http://testca.pythontest.net/testca/ocsp/
            X509v3 CRL Distribution Points: 
                Full Name:
                  URI:http://testca.pythontest.net/testca/revocation.crl
    Signature Algorithm: sha256WithRSAEncryption
    Signature Value:
        86:82:15:7a:c3:5b:61:b6:19:44:a3:9b:d1:ed:ef:15:28:15:
        c4:f1:9c:5e:a2:1b:05:ee:f2:2a:4b:f2:73:6b:c7:52:06:d8:
        f2:21:63:19:23:82:b9:06:80:a0:da:49:24:ed:15:37:63:c7:
        47:8b:ba:4a:6a:3f:79:84:84:64:7e:f3:37:de:9f:d8:1e:73:
        39:a9:2f:ae:d8:23:d6:81:83:c7:fc:dd:a2:b7:4f:de:0c:dd:
        d0:85:76:56:2c:10:b9:9f:da:52:9c:11:d0:40:54:92:49:26:
        51:7d:57:db:8b:65:2c:6a:59:38:56:58:ca:2d:14:ba:96:94:
        1a:cd:c5:f7:4c:26:6b:c8:c5:89:44:1d:6d:04:00:c7:9d:0a:
        96:d0:b6:b9:1a:e8:d4:6c:c0:03:58:91:c2:ba:47:62:10:88:
        0d:44:c1:73:85:57:af:04:29:50:4b:20:2d:3b:98:de:bc:a5:
        e3:7d:de:b8:84:d2:ba:a1:e3:19:b2:66:cc:01:5a:28:4a:a6:
        e4:19:c3:92:7b:15:b8:9b:8f:94:a5:51:57:1e:8d:f7:b9:71:
        4b:33:fd:89:08:15:16:20:8d:f4:7d:31:7d:f5:61:0d:a5:b8:
        59:fc:f3:a4:db:ed:2e:15:85:98:d2:54:9e:29:fb:a2:73:7a:
        93:2e:7e:65:75:ef:6c:36:3b:84:e9:50:00:cb:9a:df:7f:8c:
        1c:ec:ce:c9:3e:73:29:86:a8:e3:30:22:7d:69:1d:d2:00:17:
        54:34:bc:f2:c7:7d:4b:62:22:cb:1e:95:07:86:38:e3:81:a8:
        c3:3e:e9:88:29:15:31:22:f7:e9:14:cb:6b:a6:e6:ae:86:c8:
        18:01:9a:bd:0f:87:30:e4:b0:12:36:cf:99:fc:a9:8f:9a:b4:
        de:f2:91:7e:cb:28:d2:da:e4:c2:20:8c:33:63:18:44:a2:d1:
        33:cb:f5:04:2a:98:cd:ab:d3:85:f2:3c:0f:3f:20:da:09:d3:
        34:4b:4c:b7:c8:9e
-----BEGIN CERTIFICATE-----
MIIF8zCCBFugAwIBAgIJAMstgJlaaVJcMA0GCSqGSIb3DQEBCwUAME0xCzAJBgNV
BAYTAlhZMSYwJAYDVQQKDB1QeXRob24gU29mdHdhcmUgRm91bmRhdGlvbiBDQTEW
MBQGA1UEAwwNb3VyLWNhLXNlcnZlcjAgFw0xODA4MjkxNDIzMTZaGA8yNTI1MTAy
ODE0MjMxNlowXzELMAkGA1UEBhMCWFkxFzAVBgNVBAcMDkNhc3RsZSBBbnRocmF4
MSMwIQYDVQQKDBpQeXRob24gU29mdHdhcmUgRm91bmRhdGlvbjESMBAGA1UEAwwJ
bG9jYWxob3N0MIIBojANBgkqhkiG9w0BAQEFAAOCAY8AMIIBigKCAYEAvyBEaQWw
Yf2sf0o6yq2xAA6EASDHgBQnpII/jzY53uaTQqGoyEfsqEzxPjjaYCTOzqCjWB0f
ZpK1Z0NSMf4QdsA0dvq7uz/NYBKD2A1OFPfsQvRJN8+xRNF1N/0hpzxd5A+vCPff
+o4RWDrsY6RQJlu7xs7+TMZECZgZVyMcIsFdmJdVPZ7vQRbxD1xR5kCuKgJmItVw
+UAS8Ecx7kwww12Kgb728xYv/TKgn2HJ7vzdu5lMiUzEPRHerTCyRjeHKOgoM/t6
9Pifq9ck7RLrPYGs9QDFP7hRuxT7nbMbHYvTGGdAGJbDMDydm3H6KpY6aSqHtdIR
PdOUzXdPxdDoEK+AUarQimS+nlm2pY3WLKev+YP+umgBDV3C43CuDdYNthUYuIw2
DBAvmNWi2aUEryLiPkZ5A9t4VDpJ9CLD3EZh8/FuWLk9aVasJvUjW/j9P5AT4umQ
qDbBkWqoV+wo7JLAtXGOqULFBzUjqLKcR/7fT2skJNo02JEMi6l4TUbnAgMBAAGj
ggHAMIIBvDAUBgNVHREEDTALgglsb2NhbGhvc3QwDgYDVR0PAQH/BAQDAgWgMB0G
A1UdJQQWMBQGCCsGAQUFBwMBBggrBgEFBQcDAjAMBgNVHRMBAf8EAjAAMB0GA1Ud
DgQWBBSAyUQgtZr7ZuB5ccbeuySge9fTjDB9BgNVHSMEdjB0gBS2WHFAoVXFTi5l
hESkxlu2RJvZ4KFRpE8wTTELMAkGA1UEBhMCWFkxJjAkBgNVBAoMHVB5dGhvbiBT
b2Z0d2FyZSBGb3VuZGF0aW9uIENBMRYwFAYDVQQDDA1vdXItY2Etc2VydmVyggkA
yy2AmVppUlswgYMGCCsGAQUFBwEBBHcwdTA8BggrBgEFBQcwAoYwaHR0cDovL3Rl
c3RjYS5weXRob250ZXN0Lm5ldC90ZXN0Y2EvcHljYWNlcnQuY2VyMDUGCCsGAQUF
BzABhilodHRwOi8vdGVzdGNhLnB5dGhvbnRlc3QubmV0L3Rlc3RjYS9vY3NwLzBD
BgNVHR8EPDA6MDigNqA0hjJodHRwOi8vdGVzdGNhLnB5dGhvbnRlc3QubmV0L3Rl
c3RjYS9yZXZvY2F0aW9uLmNybDANBgkqhkiG9w0BAQsFAAOCAYEAhoIVesNbYbYZ
RKOb0e3vFSgVxPGcXqIbBe7yKkvyc2vHUgbY8iFjGSOCuQaAoNpJJO0VN2PHR4u6
Smo/eYSEZH7zN96f2B5zOakvrtgj1oGDx/zdordP3gzd0IV2ViwQuZ/aUpwR0EBU
kkkmUX1X24tlLGpZOFZYyi0UupaUGs3F90wma8jFiUQdbQQAx50KltC2uRro1GzA
A1iRwrpHYhCIDUTBc4VXrwQpUEsgLTuY3ryl433euITSuqHjGbJmzAFaKEqm5BnD
knsVuJuPlKVRVx6N97lxSzP9iQgVFiCN9H0xffVhDaW4WfzzpNvtLhWFmNJUnin7
onN6ky5+ZXXvbDY7hOlQAMua33+MHOzOyT5zKYao4zAifWkd0gAXVDS88sd9S2Ii
yx6VB4Y444Gowz7piCkVMSL36RTLa6bmrobIGAGavQ+HMOSwEjbPmfypj5q03vKR
fsso0trkwiCMM2MYRKLRM8v1BCqYzavThfI8Dz8g2gnTNEtMt8ie
-----END CERTIFICATE-----
