-----BEGIN PRIVATE KEY-----
MIIG/gIBADANBgkqhkiG9w0BAQEFAASCBugwggbkAgEAAoIBgQC/uCI/4eVSCIrx
//GcCCxeQP16Mtf0wAuINBR9uTySF8sEVoS6rNBwLeudZXaHmcp3jM7N2e9GjI8d
dQccPApKBwjAxhdT4XeuUTep4VraKWjLTWDvABHfCVFB1tX3HusEWaS8n/pH+N4L
UfnxS3HnFqGC5ib2DSgFTCnLQSj82iUgACdf87iZTons+kRvqYsdwpsgBUnO+w+o
c5o7Nj1bJJlTREsY6kQGY94as4pCkmqhoBTC7/le9wFGmXipRYi3pfSTOqAQJfqW
1VlQ4Bbc3lN5L+ONTmFXOgTJ5qhaS8cglnYElJI1QQTagyWQMHuBDIMpr3Iv/5qU
UzdIMzoMrpX6ien3Gan/jyjjzvP95jJvGujQudw/myXK8VOUThVtstRDFA3cIoV4
UqMODz8w6qYU0GPYFBq//1UdpDrk/fBPBe3MLJT2+sB/kTzwxxYsKqcdjPG2Bt3Y
2nk7hCzE0KuueqCQPk/3fomY1TDyTlWOriAS40EYue5Rhx9qr8kCAwEAAQKCAYAL
X7EoeQ5Rv4/+q2B6EUIQlWp0RW/qZTpJ6k0M6GBfimnQ6BEXwgjbnt3LiKlvggAw
93mNXNCFLvGOndK+KhGyMpiiVx4rK8Ud4lObEHODXdGJvh1yEF7/DF51uXkYIA1x
RKAxUIxYmLsTkNlzJzaqrv0F9wF4t28YYVxZYpQ76/Un4Np1JtBcx/wGwxIsTbKj
IVhynd2zGdHj/He5643YSmOOPQ73e25tsp8KlnwtVuJclFKm/fWdXKoGtjQiVq2b
bViG7WTqb+a+R3IrO8CE2vAQ1ZqklP4Pg33AU1XFogRweqSkXvBGy1GHSSXCO4uX
gORj/bo/gAZ/eeufwqxBxJMS4Kbmxes/oYEgJidoaeA6DZjcKr+J3rFUt9j6rpxt
abeKBiK6wTHkKAdQwoccDdKFROvL4ZEu4zpjkmiqDrtIZEqtB8YCvoMpteIqrBhr
stLCDrftsysBTNGNn0THb4H5wx8nkZPCVyvaBD4N4Skp5rapP2bbrPhigcOoR8EC
gcEA4ToVg2b09tLWpmCg6XXssT1SvvFcSaJ3jjRKMfpmP5epWFiZ21qAOCbYhMNu
2G21AyNd1W7oVi6epXsB2YBOlSI0Fr6RuN0fDwg5jZLxEkEqDsL2QKsgoKHtGfBn
gX9jLQ5Lsy5/0CRXYCfPjdccbr2J5Gm2fU/jhhCi9ji/6b2RbgrRkIkr2I/J6KbS
sO+p1d93CFNagLMbdDspugDlIgj52OBMYO60nDlNU8O2pkAcLQTpWVqEjmoo4Q4K
oyOXAoHBANnqB93sLCndEiZNth7cOOEhNKCWRDkpGwDBbn2Dj3kBaXg8eCTG7tiF
FPyNVydYg+u0vcPIjj9URsOfpHc9MLSYtKAgCL3rSk+OQnROeg9hCjmB5Ucg7NTR
gSh/flfWp/q1EDeOVAu8B9DuBX1209br4xi78LnBP5/UzRjhuFEmvCvOqVCMCI7Y
I1k3l4NhOk87fKq5dbtxvNTU2eFTtt1+YjYwZFY+AUmx3WBz+aFwygks3S4SvN1J
LtLVYhOznwKBwQDC047WixIuDLX3WDD5orOroeNZHsn5PFv1HBBuaS9XpSatMH9u
+ztc12WGetQAze2+GDLMNNMv8cX0WZKBBfd0FBFA93pwkn6Sb0fxyoFUjCAIguen
iyB/M3M5c/blUz+EMxCSoA+aCkW2/NkS1lhXBwgoGLXuclPbnbqKCQ8h74TEzwD2
6WGPRNqgsOYifj7IrjR2dDwehlCiW6c9qhaLOX5+94+6beK4HO1iHzN5Xo3A97Wv
QJjX5McV3yKeemMCgcA4N3reEo52IlULUqL4JSH7WkCkaP+iq2sO79fcQ3Ng6S9X
WGo6OqPlcbevS5s/SEOILDGEb5na1pgG4YlhRYTqIjb+1CTNMgUSrwWP0asFiqhD
m7IVfnX6lS23z+Q9LuBY+hr76hjeihyOFsmNy3jtCh+lAt8gXK1YQ2LB14FgVhjX
SFI/uFCA4VuFKaVJvGx5gkQwGvY3bCkl0t9+lMUpMPCPQD6yTP6yD1OoDWNJ9bn5
UfyhZS4Z/EY7F9dcc8sCgcEAi8yW4gNCZSsGQRLh+fyDCSdak4ahATAeiI24231u
jK5+ncK9ZoZvzO/h+V5bw7ha59rD8aGmrLqzBVKEMi0PAT38psNH9ZtRt9y29YQ8
WpyHtODMbphfbH4SFH3nj3PldRtBcOt0EDdp/4s64A9qdOWRx/vlJhdg0vtWTy5s
koyyOHhTcplpyPPq0BetYKl9UlXPVjus/RT1XV/lz2YrE8E9UAq+/r7ECoMExaZt
8j8J8O3lTWPxNTaQuiPiHA7E
-----END PRIVATE KEY-----
Certificate:
    Data:
        Version: 3 (0x2)
        Serial Number:
            cb:2d:80:99:5a:69:52:5d
        Signature Algorithm: sha256WithRSAEncryption
        Issuer: C=XY, O=Python Software Foundation CA, CN=our-ca-server
        Validity
            Not Before: Aug 29 14:23:16 2018 GMT
            Not After : Oct 28 14:23:16 2525 GMT
        Subject: C=XY, L=Castle Anthrax, O=Python Software Foundation, CN=fakehostname
        Subject Public Key Info:
            Public Key Algorithm: rsaEncryption
                Public-Key: (3072 bit)
                Modulus:
                    00:bf:b8:22:3f:e1:e5:52:08:8a:f1:ff:f1:9c:08:
                    2c:5e:40:fd:7a:32:d7:f4:c0:0b:88:34:14:7d:b9:
                    3c:92:17:cb:04:56:84:ba:ac:d0:70:2d:eb:9d:65:
                    76:87:99:ca:77:8c:ce:cd:d9:ef:46:8c:8f:1d:75:
                    07:1c:3c:0a:4a:07:08:c0:c6:17:53:e1:77:ae:51:
                    37:a9:e1:5a:da:29:68:cb:4d:60:ef:00:11:df:09:
                    51:41:d6:d5:f7:1e:eb:04:59:a4:bc:9f:fa:47:f8:
                    de:0b:51:f9:f1:4b:71:e7:16:a1:82:e6:26:f6:0d:
                    28:05:4c:29:cb:41:28:fc:da:25:20:00:27:5f:f3:
                    b8:99:4e:89:ec:fa:44:6f:a9:8b:1d:c2:9b:20:05:
                    49:ce:fb:0f:a8:73:9a:3b:36:3d:5b:24:99:53:44:
                    4b:18:ea:44:06:63:de:1a:b3:8a:42:92:6a:a1:a0:
                    14:c2:ef:f9:5e:f7:01:46:99:78:a9:45:88:b7:a5:
                    f4:93:3a:a0:10:25:fa:96:d5:59:50:e0:16:dc:de:
                    53:79:2f:e3:8d:4e:61:57:3a:04:c9:e6:a8:5a:4b:
                    c7:20:96:76:04:94:92:35:41:04:da:83:25:90:30:
                    7b:81:0c:83:29:af:72:2f:ff:9a:94:53:37:48:33:
                    3a:0c:ae:95:fa:89:e9:f7:19:a9:ff:8f:28:e3:ce:
                    f3:fd:e6:32:6f:1a:e8:d0:b9:dc:3f:9b:25:ca:f1:
                    53:94:4e:15:6d:b2:d4:43:14:0d:dc:22:85:78:52:
                    a3:0e:0f:3f:30:ea:a6:14:d0:63:d8:14:1a:bf:ff:
                    55:1d:a4:3a:e4:fd:f0:4f:05:ed:cc:2c:94:f6:fa:
                    c0:7f:91:3c:f0:c7:16:2c:2a:a7:1d:8c:f1:b6:06:
                    dd:d8:da:79:3b:84:2c:c4:d0:ab:ae:7a:a0:90:3e:
                    4f:f7:7e:89:98:d5:30:f2:4e:55:8e:ae:20:12:e3:
                    41:18:b9:ee:51:87:1f:6a:af:c9
                Exponent: 65537 (0x10001)
        X509v3 extensions:
            X509v3 Subject Alternative Name: 
                DNS:fakehostname
            X509v3 Key Usage: critical
                Digital Signature, Key Encipherment
            X509v3 Extended Key Usage: 
                TLS Web Server Authentication, TLS Web Client Authentication
            X509v3 Basic Constraints: critical
                CA:FALSE
            X509v3 Subject Key Identifier: 
                E4:3D:4C:DB:96:85:CC:90:ED:0F:58:1E:8D:4D:7D:34:6C:4E:11:10
            X509v3 Authority Key Identifier: 
                keyid:C0:0A:2B:28:43:DE:5F:C9:7D:47:E5:47:9B:36:F2:65:8C:67:3B:E2
                DirName:/C=XY/O=Python Software Foundation CA/CN=our-ca-server
                serial:CB:2D:80:99:5A:69:52:5B
            Authority Information Access: 
                CA Issuers - URI:http://testca.pythontest.net/testca/pycacert.cer
                OCSP - URI:http://testca.pythontest.net/testca/ocsp/
            X509v3 CRL Distribution Points: 
                Full Name:
                  URI:http://testca.pythontest.net/testca/revocation.crl
    Signature Algorithm: sha256WithRSAEncryption
    Signature Value:
        63:e9:cd:0f:ec:dd:27:a0:fc:76:16:a1:f2:5f:d3:07:9a:3f:
        97:f4:11:e8:20:e9:3c:dd:16:4f:20:62:71:73:a9:46:3e:85:
        6e:44:be:9d:08:4b:eb:80:08:d5:1b:93:5f:4a:0f:df:b7:1b:
        38:e2:2b:5c:68:48:ea:0a:58:5c:36:6c:79:a4:1e:b5:7e:ef:
        cb:8d:5d:bd:7d:4a:e6:4e:dd:0b:87:10:ff:01:0e:9b:8b:bd:
        de:1c:9a:25:fb:a2:e1:52:7b:8a:aa:08:37:b2:87:f7:45:9d:
        0b:ab:11:6b:0c:7f:db:ed:de:cc:1e:86:f0:be:30:25:6b:4b:
        ff:f5:f2:99:ed:b0:b1:68:c1:44:0b:79:7b:81:95:b5:36:37:
        12:c4:99:9e:85:e8:2f:2d:cc:cd:d8:c6:f2:20:ec:6a:06:fd:
        b8:fc:ff:02:11:95:4d:38:0d:42:8b:b2:43:eb:c2:b9:a4:e0:
        33:f1:da:25:2f:11:cf:57:b9:25:e5:ab:92:f2:b2:b5:11:2f:
        bd:31:f7:55:eb:96:94:78:5a:ad:9c:8f:56:ec:34:a0:73:9c:
        01:c2:76:24:e0:f8:b3:c9:23:b9:ea:ab:c3:0a:d3:f8:53:44:
        c7:12:37:76:44:d7:ee:25:93:f4:1c:1d:7c:fe:06:2c:fa:c5:
        bb:c6:90:a4:57:fd:09:2e:da:af:f3:ac:e6:6d:7f:03:a1:26:
        36:9a:51:7d:8d:28:a7:5d:5d:37:57:cc:6a:11:2a:98:1d:57:
        71:32:6e:98:7c:12:28:ef:5c:2f:26:29:d4:56:0a:b1:23:d9:
        9d:35:20:1a:ec:cc:51:53:6e:ef:1c:e7:bc:3c:21:e7:64:31:
        b1:4c:f3:55:b5:c4:93:17:d8:72:5a:05:2e:4a:e5:33:07:0e:
        7d:cf:22:73:0b:67:9f:b4:82:60:cd:71:f8:76:0c:c4:dc:98:
        ee:49:f9:03:7f:0d:d8:c6:76:79:3c:28:ed:77:77:d3:7e:d5:
        aa:1e:6e:2e:df:a5
-----BEGIN CERTIFICATE-----
MIIF+TCCBGGgAwIBAgIJAMstgJlaaVJdMA0GCSqGSIb3DQEBCwUAME0xCzAJBgNV
BAYTAlhZMSYwJAYDVQQKDB1QeXRob24gU29mdHdhcmUgRm91bmRhdGlvbiBDQTEW
MBQGA1UEAwwNb3VyLWNhLXNlcnZlcjAgFw0xODA4MjkxNDIzMTZaGA8yNTI1MTAy
ODE0MjMxNlowYjELMAkGA1UEBhMCWFkxFzAVBgNVBAcMDkNhc3RsZSBBbnRocmF4
MSMwIQYDVQQKDBpQeXRob24gU29mdHdhcmUgRm91bmRhdGlvbjEVMBMGA1UEAwwM
ZmFrZWhvc3RuYW1lMIIBojANBgkqhkiG9w0BAQEFAAOCAY8AMIIBigKCAYEAv7gi
P+HlUgiK8f/xnAgsXkD9ejLX9MALiDQUfbk8khfLBFaEuqzQcC3rnWV2h5nKd4zO
zdnvRoyPHXUHHDwKSgcIwMYXU+F3rlE3qeFa2iloy01g7wAR3wlRQdbV9x7rBFmk
vJ/6R/jeC1H58Utx5xahguYm9g0oBUwpy0Eo/NolIAAnX/O4mU6J7PpEb6mLHcKb
IAVJzvsPqHOaOzY9WySZU0RLGOpEBmPeGrOKQpJqoaAUwu/5XvcBRpl4qUWIt6X0
kzqgECX6ltVZUOAW3N5TeS/jjU5hVzoEyeaoWkvHIJZ2BJSSNUEE2oMlkDB7gQyD
Ka9yL/+alFM3SDM6DK6V+onp9xmp/48o487z/eYybxro0LncP5slyvFTlE4VbbLU
QxQN3CKFeFKjDg8/MOqmFNBj2BQav/9VHaQ65P3wTwXtzCyU9vrAf5E88McWLCqn
HYzxtgbd2Np5O4QsxNCrrnqgkD5P936JmNUw8k5Vjq4gEuNBGLnuUYcfaq/JAgMB
AAGjggHDMIIBvzAXBgNVHREEEDAOggxmYWtlaG9zdG5hbWUwDgYDVR0PAQH/BAQD
AgWgMB0GA1UdJQQWMBQGCCsGAQUFBwMBBggrBgEFBQcDAjAMBgNVHRMBAf8EAjAA
MB0GA1UdDgQWBBTkPUzbloXMkO0PWB6NTX00bE4REDB9BgNVHSMEdjB0gBTACiso
Q95fyX1H5UebNvJljGc74qFRpE8wTTELMAkGA1UEBhMCWFkxJjAkBgNVBAoMHVB5
dGhvbiBTb2Z0d2FyZSBGb3VuZGF0aW9uIENBMRYwFAYDVQQDDA1vdXItY2Etc2Vy
dmVyggkAyy2AmVppUlswgYMGCCsGAQUFBwEBBHcwdTA8BggrBgEFBQcwAoYwaHR0
cDovL3Rlc3RjYS5weXRob250ZXN0Lm5ldC90ZXN0Y2EvcHljYWNlcnQuY2VyMDUG
CCsGAQUFBzABhilodHRwOi8vdGVzdGNhLnB5dGhvbnRlc3QubmV0L3Rlc3RjYS9v
Y3NwLzBDBgNVHR8EPDA6MDigNqA0hjJodHRwOi8vdGVzdGNhLnB5dGhvbnRlc3Qu
bmV0L3Rlc3RjYS9yZXZvY2F0aW9uLmNybDANBgkqhkiG9w0BAQsFAAOCAYEAY+nN
D+zdJ6D8dhah8l/TB5o/l/QR6CDpPN0WTyBicXOpRj6FbkS+nQhL64AI1RuTX0oP
37cbOOIrXGhI6gpYXDZseaQetX7vy41dvX1K5k7dC4cQ/wEOm4u93hyaJfui4VJ7
iqoIN7KH90WdC6sRawx/2+3ezB6G8L4wJWtL//Xyme2wsWjBRAt5e4GVtTY3EsSZ
noXoLy3MzdjG8iDsagb9uPz/AhGVTTgNQouyQ+vCuaTgM/HaJS8Rz1e5JeWrkvKy
tREvvTH3VeuWlHharZyPVuw0oHOcAcJ2JOD4s8kjueqrwwrT+FNExxI3dkTX7iWT
9BwdfP4GLPrFu8aQpFf9CS7ar/Os5m1/A6EmNppRfY0op11dN1fMahEqmB1XcTJu
mHwSKO9cLyYp1FYKsSPZnTUgGuzMUVNu7xznvDwh52QxsUzzVbXEkxfYcloFLkrl
MwcOfc8icwtnn7SCYM1x+HYMxNyY7kn5A38N2MZ2eTwo7Xd3037Vqh5uLt+l
-----END CERTIFICATE-----
