-----BEGIN PRIVATE KEY-----
MIIG/gIBADANBgkqhkiG9w0BAQEFAASCBugwggbkAgEAAoIBgQCgKihxC+2g7d7M
JfIUBfFWiuMwxg0WhdxPyGUzMAjexbEOHo0ojntxPdH9KYRwiKRKb9jnmzXp2CKT
hqBYJIetq/3LYZp4bvDJ/hVCL9e4jqu1l+wd9DkqhKZ69b6C1/d12JAKvC5TIT+/
b7EglYU8KMNx2WO5KxIJeVpX68jn49YtUzg0hT0QiXj4eugbDk1L1f99xgvkHaVW
VQxi6MFNWHJq/xXUb8E/hd/Q3oadN1BXMWl9P46D4R+YGKQQdZFkwEJsbqijFvWW
bOoaz7TFxf8n0q616803aXLfaWikfEXLnznEvKo7vyEivtT/y14Nm+SiR3nS6E0y
Dt8gmeHdaHcrmQT+yQ6yNOYDCcfeYM+rBuvOUHPudjMy0k8K/0IPjDo0KActKPH0
UVbyDBMKDdGQ2+LhRFLsGXHlD9b05PxhqTULe3LeK6KZ+iuGbWtwVLaL5S42WiCA
YXNShE1Ko0Q7wugAippXCf+aWP3Wx9ZTrsfiDBbIfnY5mlfdG90CAwEAAQKCAYAA
ogoE4FoxD5+YyPGa+KcKg4QAVlgI5cCIJC+aMy9lyfw4JRDDv0RnnynsSTS3ySJ1
FNoTmD5vTSZd1ONfVc2fdxWKrzkQDsgu1C07VLsShKXTEuWg/K0ZKOsLg1scY0Qc
GB4BnNrGA1SgKg3WJiEfqr2S/pvxSGVK2krsHAdwOytGhJStSHWEUjbDLKEsMjNG
AHOBCL5VSXS00aM55NeWuanCGH36l/J4kMvgpHB9wJE1twFGuHCUvtgEHtzPH9fQ
plmI0QDREm6UE6Qh01lxmwx3Xc5ASBURmxs+bxpk94BPRpj8/eF2HPiJalrkJksj
Xk3QQ7k23v6XnmHKV3QqpjUgJTdbuMoTrVMu14cIH6FtXfwVhtthPnCI8rk5Lh8N
cqLC7HT+NE1JyygzuMToOHMmSJTQ8L6BTIaRCZjvGTPYaZfFgeMHvvhAJtP5zAcc
xQzyCyNBU8RdPGT8tJTyDUIRs20poqe7dKrPEIocKJX7tvNSI2QxkQ96Adxo1gEC
gcEAvI8m6QCDGgDWI8yTH9EvZQwq+tF8I+WMC+jbPuDwKg5ZKC7VjRO//9JzPY+c
TxmLnQu64OkECHbu7pswDBbtnPMbodF9inYEY5RkfufEjEMJGEdkoBJWnNx78EkV
bcffWik0wXwdt6jd1CAnjmS9qaPz0T1NV8m5rQQn5JUYXlC9eB2kOojZYLbZBl3g
xUSRbIqHC7h8HuyAU26EPiprHsIxrOpbxABFOdvo2optr50U7X10Eqb4mRQ4z22W
ojJdAoHBANlzJjjEgGVB9W50pJqkTw8wXiTUG8AmhqrVvqEttLPcWpK6QwRkRC+i
5N1iUObf/kOlun2gNfHF6gM68Ja9wb2eGvE5sApq9hPpyYF0LS3g8BbJ9GOs6NU9
BfM1CkPrDCdc4kzlUpDibvc6Fc9raCqvrZRlKEukqQS8dumVdb74IaPsP6q8sZMz
jibOk0eUrbx2c5vEnd0W8zMeNCuCwO1oXbfenPp/GLX9ZRlolWS/3cQoZYOSQc9J
lFQYkxL3gQKBwQCy3Pwk9AZoqTh4dvtsqArUSImQqRygFIQXXAh1ifxneHrcYijS
jVSIwEHuuIamhe3oyBK6fG8F9IPLtUwLe8hkJDwm8Misiiy5pS77LrFD9+btr/Nk
4GBmpcOveDQqkflt1j6j9y9dY4MhUGsVaLx86fhDmGoAh2tpEtMgwsl91gsUoNGD
cQL6+he+MVkg510nX/Sgipy63M8R1Xj+W1CHueBTTXBE6ZjBPLiSbdOETXZnnaR4
eQjCdOs64JKOQ0UCgcBZ4kFAYel48aTT/Z801QphCus/afX2nXY5E5Vy5oO1fTZr
RFcDb7bHwhu8bzFl3d0qdUz7NMhXoimzIB/nD5UQHlSgtenQxJnnbVIAEtfCCSL1
KJG+yfCMhGb7O0d8/6HMe5aHlptkjFS2GOp/DLTIQEoN9yqK6gt7i7PTphY/1C2D
ptpCZzE32a2+2NEEW67dIlFzZ/ihNSVeUfPasHezKtricECPQw4h3BZ4RETMmoq+
1LvxgPl3B8EqaeYRhwECgcEAjjp/0hu/ukQhiNeR5a9p1ECBFP8qFh6Cpo0Az/DT
1kX0qU8tnT3cYYhwbVGwLxn2HVRdLrbjMj/t88W/LM2IaQ162m7TvvBMxNmr058y
sW/LADp5YWWsY70EJ8AfaTmdQriqKsNiLLpNdgcm1bkwHJ1CNlvEpDs1OOI3cCGi
BEuUmeKxpRhwCaZeaR5tREmbD70My+BMDTDLfrXoKqzl4JrRua4jFTpHeZaFdkkh
gDq3K6+KpVREQFEhyOtIB2kk
-----END PRIVATE KEY-----
Certificate:
    Data:
        Version: 3 (0x2)
        Serial Number:
            cb:2d:80:99:5a:69:52:5c
        Signature Algorithm: sha256WithRSAEncryption
        Issuer: C=XY, O=Python Software Foundation CA, CN=our-ca-server
        Validity
            Not Before: Aug 29 14:23:16 2018 GMT
            Not After : Oct 28 14:23:16 2037 GMT
        Subject: C=XY, L=Castle Anthrax, O=Python Software Foundation, CN=localhost
        Subject Public Key Info:
            Public Key Algorithm: rsaEncryption
                Public-Key: (3072 bit)
                Modulus:
                    00:a0:2a:28:71:0b:ed:a0:ed:de:cc:25:f2:14:05:
                    f1:56:8a:e3:30:c6:0d:16:85:dc:4f:c8:65:33:30:
                    08:de:c5:b1:0e:1e:8d:28:8e:7b:71:3d:d1:fd:29:
                    84:70:88:a4:4a:6f:d8:e7:9b:35:e9:d8:22:93:86:
                    a0:58:24:87:ad:ab:fd:cb:61:9a:78:6e:f0:c9:fe:
                    15:42:2f:d7:b8:8e:ab:b5:97:ec:1d:f4:39:2a:84:
                    a6:7a:f5:be:82:d7:f7:75:d8:90:0a:bc:2e:53:21:
                    3f:bf:6f:b1:20:95:85:3c:28:c3:71:d9:63:b9:2b:
                    12:09:79:5a:57:eb:c8:e7:e3:d6:2d:53:38:34:85:
                    3d:10:89:78:f8:7a:e8:1b:0e:4d:4b:d5:ff:7d:c6:
                    0b:e4:1d:a5:56:55:0c:62:e8:c1:4d:58:72:6a:ff:
                    15:d4:6f:c1:3f:85:df:d0:de:86:9d:37:50:57:31:
                    69:7d:3f:8e:83:e1:1f:98:18:a4:10:75:91:64:c0:
                    42:6c:6e:a8:a3:16:f5:96:6c:ea:1a:cf:b4:c5:c5:
                    ff:27:d2:ae:b5:eb:cd:37:69:72:df:69:68:a4:7c:
                    45:cb:9f:39:c4:bc:aa:3b:bf:21:22:be:d4:ff:cb:
                    5e:0d:9b:e4:a2:47:79:d2:e8:4d:32:0e:df:20:99:
                    e1:dd:68:77:2b:99:04:fe:c9:0e:b2:34:e6:03:09:
                    c7:de:60:cf:ab:06:eb:ce:50:73:ee:76:33:32:d2:
                    4f:0a:ff:42:0f:8c:3a:34:28:07:2d:28:f1:f4:51:
                    56:f2:0c:13:0a:0d:d1:90:db:e2:e1:44:52:ec:19:
                    71:e5:0f:d6:f4:e4:fc:61:a9:35:0b:7b:72:de:2b:
                    a2:99:fa:2b:86:6d:6b:70:54:b6:8b:e5:2e:36:5a:
                    20:80:61:73:52:84:4d:4a:a3:44:3b:c2:e8:00:8a:
                    9a:57:09:ff:9a:58:fd:d6:c7:d6:53:ae:c7:e2:0c:
                    16:c8:7e:76:39:9a:57:dd:1b:dd
                Exponent: 65537 (0x10001)
        X509v3 extensions:
            X509v3 Subject Alternative Name: 
                DNS:localhost
            X509v3 Key Usage: critical
                Digital Signature, Key Encipherment
            X509v3 Extended Key Usage: 
                TLS Web Server Authentication, TLS Web Client Authentication
            X509v3 Basic Constraints: critical
                CA:FALSE
            X509v3 Subject Key Identifier: 
                3F:B1:E9:4F:A0:BE:30:66:3E:0A:18:C8:0F:47:1A:4F:34:6A:0F:42
            X509v3 Authority Key Identifier: 
                keyid:F3:EC:94:8E:F2:8E:30:C4:8E:68:C2:BF:8E:6A:19:C0:C1:9F:76:65
                DirName:/C=XY/O=Python Software Foundation CA/CN=our-ca-server
                serial:CB:2D:80:99:5A:69:52:5B
            Authority Information Access: 
                CA Issuers - URI:http://testca.pythontest.net/testca/pycacert.cer
                OCSP - URI:http://testca.pythontest.net/testca/ocsp/
            X509v3 CRL Distribution Points: 
                Full Name:
                  URI:http://testca.pythontest.net/testca/revocation.crl
    Signature Algorithm: sha256WithRSAEncryption
    Signature Value:
        ca:34:ba:c5:d0:cf:27:31:32:d6:0d:27:30:b8:db:17:df:b7:
        39:a7:bb:b1:3b:86:c4:31:fd:fb:ab:db:63:1a:cc:90:ab:b9:
        4e:ab:34:49:0c:5e:8c:3e:70:a3:a7:6b:2f:a7:9a:25:7b:01:
        5a:18:96:48:76:f8:36:78:74:fa:bc:7d:68:7f:e5:ca:a6:9d:
        7b:dc:72:bd:a3:25:51:17:68:e8:e9:d7:02:86:2c:7d:16:7c:
        b5:dc:44:b2:0a:e3:f7:c9:33:a3:51:36:83:bc:d4:70:cd:84:
        91:9f:06:ba:2d:d2:05:0a:65:c3:d9:55:09:a8:b8:09:69:bb:
        93:86:c2:b7:c2:90:74:7c:bf:f0:5d:bc:0e:63:13:8c:eb:fa:
        0f:f1:fa:e5:12:70:4d:0c:eb:8c:2e:a2:42:42:00:04:0f:fc:
        f9:1f:41:9c:63:78:f0:66:93:b2:8f:2e:e8:93:1c:50:cb:2d:
        7f:b6:ba:57:6f:52:62:d7:39:0b:09:82:ab:a6:53:4d:cc:05:
        3e:19:f0:d4:c0:ce:a9:ad:10:ce:b9:71:e4:8f:f2:5a:3c:65:
        ba:dc:cb:e0:04:90:2b:a5:15:a6:7d:da:dc:a3:b5:b7:bc:a0:
        de:30:4e:64:cb:17:0d:3a:a0:52:d2:67:3b:a2:3a:00:d5:39:
        aa:61:75:52:9f:fe:9b:c0:e8:a0:69:af:a8:b3:a3:1d:0a:40:
        52:04:e7:3d:c0:00:96:5f:2b:33:06:0c:30:f6:d3:18:72:ee:
        38:d0:64:d3:00:86:37:ec:4f:e9:38:49:e6:01:ff:a2:9a:7c:
        dc:6a:d3:cb:a8:ba:58:fb:c3:86:78:47:f1:06:a6:45:e7:53:
        de:99:1d:81:e6:bc:63:74:46:7c:70:23:57:29:60:70:9a:cc:
        6f:00:8e:c2:bf:6a:73:7d:6e:b0:62:e6:dc:13:1a:b9:fe:0f:
        c2:d1:06:a1:79:62:7f:b6:30:a9:03:d0:47:57:25:db:48:10:
        d1:cf:fb:7d:ac:3d
-----BEGIN CERTIFICATE-----
MIIF8TCCBFmgAwIBAgIJAMstgJlaaVJcMA0GCSqGSIb3DQEBCwUAME0xCzAJBgNV
BAYTAlhZMSYwJAYDVQQKDB1QeXRob24gU29mdHdhcmUgRm91bmRhdGlvbiBDQTEW
MBQGA1UEAwwNb3VyLWNhLXNlcnZlcjAeFw0xODA4MjkxNDIzMTZaFw0zNzEwMjgx
NDIzMTZaMF8xCzAJBgNVBAYTAlhZMRcwFQYDVQQHDA5DYXN0bGUgQW50aHJheDEj
MCEGA1UECgwaUHl0aG9uIFNvZnR3YXJlIEZvdW5kYXRpb24xEjAQBgNVBAMMCWxv
Y2FsaG9zdDCCAaIwDQYJKoZIhvcNAQEBBQADggGPADCCAYoCggGBAKAqKHEL7aDt
3swl8hQF8VaK4zDGDRaF3E/IZTMwCN7FsQ4ejSiOe3E90f0phHCIpEpv2OebNenY
IpOGoFgkh62r/cthmnhu8Mn+FUIv17iOq7WX7B30OSqEpnr1voLX93XYkAq8LlMh
P79vsSCVhTwow3HZY7krEgl5WlfryOfj1i1TODSFPRCJePh66BsOTUvV/33GC+Qd
pVZVDGLowU1Ycmr/FdRvwT+F39Dehp03UFcxaX0/joPhH5gYpBB1kWTAQmxuqKMW
9ZZs6hrPtMXF/yfSrrXrzTdpct9paKR8RcufOcS8qju/ISK+1P/LXg2b5KJHedLo
TTIO3yCZ4d1odyuZBP7JDrI05gMJx95gz6sG685Qc+52MzLSTwr/Qg+MOjQoBy0o
8fRRVvIMEwoN0ZDb4uFEUuwZceUP1vTk/GGpNQt7ct4ropn6K4Zta3BUtovlLjZa
IIBhc1KETUqjRDvC6ACKmlcJ/5pY/dbH1lOux+IMFsh+djmaV90b3QIDAQABo4IB
wDCCAbwwFAYDVR0RBA0wC4IJbG9jYWxob3N0MA4GA1UdDwEB/wQEAwIFoDAdBgNV
HSUEFjAUBggrBgEFBQcDAQYIKwYBBQUHAwIwDAYDVR0TAQH/BAIwADAdBgNVHQ4E
FgQUP7HpT6C+MGY+ChjID0caTzRqD0IwfQYDVR0jBHYwdIAU8+yUjvKOMMSOaMK/
jmoZwMGfdmWhUaRPME0xCzAJBgNVBAYTAlhZMSYwJAYDVQQKDB1QeXRob24gU29m
dHdhcmUgRm91bmRhdGlvbiBDQTEWMBQGA1UEAwwNb3VyLWNhLXNlcnZlcoIJAMst
gJlaaVJbMIGDBggrBgEFBQcBAQR3MHUwPAYIKwYBBQUHMAKGMGh0dHA6Ly90ZXN0
Y2EucHl0aG9udGVzdC5uZXQvdGVzdGNhL3B5Y2FjZXJ0LmNlcjA1BggrBgEFBQcw
AYYpaHR0cDovL3Rlc3RjYS5weXRob250ZXN0Lm5ldC90ZXN0Y2Evb2NzcC8wQwYD
VR0fBDwwOjA4oDagNIYyaHR0cDovL3Rlc3RjYS5weXRob250ZXN0Lm5ldC90ZXN0
Y2EvcmV2b2NhdGlvbi5jcmwwDQYJKoZIhvcNAQELBQADggGBAMo0usXQzycxMtYN
JzC42xfftzmnu7E7hsQx/fur22MazJCruU6rNEkMXow+cKOnay+nmiV7AVoYlkh2
+DZ4dPq8fWh/5cqmnXvccr2jJVEXaOjp1wKGLH0WfLXcRLIK4/fJM6NRNoO81HDN
hJGfBrot0gUKZcPZVQmouAlpu5OGwrfCkHR8v/BdvA5jE4zr+g/x+uUScE0M64wu
okJCAAQP/PkfQZxjePBmk7KPLuiTHFDLLX+2uldvUmLXOQsJgqumU03MBT4Z8NTA
zqmtEM65ceSP8lo8Zbrcy+AEkCulFaZ92tyjtbe8oN4wTmTLFw06oFLSZzuiOgDV
OaphdVKf/pvA6KBpr6izox0KQFIE5z3AAJZfKzMGDDD20xhy7jjQZNMAhjfsT+k4
SeYB/6KafNxq08uoulj7w4Z4R/EGpkXnU96ZHYHmvGN0RnxwI1cpYHCazG8AjsK/
anN9brBi5twTGrn+D8LRBqF5Yn+2MKkD0EdXJdtIENHP+32sPQ==
-----END CERTIFICATE-----
