-----BEGIN PRIVATE KEY-----
MIG2AgEAMBAGByqGSM49AgEGBSuBBAAiBIGeMIGbAgEBBDAOOSJdRfmcafKKXkhK
anJPJNUo/ik2Z71JegoqWxkuJcgOJAvVaWWPxFM2RFP12rShZANiAATx0dXg7wWi
x/JvXibT1V9PuK7H6JaHQ5OKVBsYjPrzgBbUcJ684wQAG61VTG47lBVaj7UlimxN
gWUN9fYbXqJzzTKREKcyoVFCD0p70MVz9FzygfTZlV3D2bhhj1pPtiU=
-----END PRIVATE KEY-----
Certificate:
    Data:
        Version: 3 (0x2)
        Serial Number:
            cb:2d:80:99:5a:69:52:5e
        Signature Algorithm: sha256WithRSAEncryption
        Issuer: C=XY, O=Python Software Foundation CA, CN=our-ca-server
        Validity
            Not Before: Aug 29 14:23:16 2018 GMT
            Not After : Oct 28 14:23:16 2525 GMT
        Subject: C=XY, L=Castle Anthrax, O=Python Software Foundation, CN=localhost-ecc
        Subject Public Key Info:
            Public Key Algorithm: id-ecPublicKey
                Public-Key: (384 bit)
                pub:
                    04:f1:d1:d5:e0:ef:05:a2:c7:f2:6f:5e:26:d3:d5:
                    5f:4f:b8:ae:c7:e8:96:87:43:93:8a:54:1b:18:8c:
                    fa:f3:80:16:d4:70:9e:bc:e3:04:00:1b:ad:55:4c:
                    6e:3b:94:15:5a:8f:b5:25:8a:6c:4d:81:65:0d:f5:
                    f6:1b:5e:a2:73:cd:32:91:10:a7:32:a1:51:42:0f:
                    4a:7b:d0:c5:73:f4:5c:f2:81:f4:d9:95:5d:c3:d9:
                    b8:61:8f:5a:4f:b6:25
                ASN1 OID: secp384r1
                NIST CURVE: P-384
        X509v3 extensions:
            X509v3 Subject Alternative Name: 
                DNS:localhost-ecc
            X509v3 Key Usage: critical
                Digital Signature, Key Encipherment
            X509v3 Extended Key Usage: 
                TLS Web Server Authentication, TLS Web Client Authentication
            X509v3 Basic Constraints: critical
                CA:FALSE
            X509v3 Subject Key Identifier: 
                C3:32:0C:0A:7E:1C:98:EF:18:2B:E2:4C:6A:AA:3C:25:3A:25:DB:65
            X509v3 Authority Key Identifier: 
                keyid:B6:58:71:40:A1:55:C5:4E:2E:65:84:44:A4:C6:5B:B6:44:9B:D9:E0
                DirName:/C=XY/O=Python Software Foundation CA/CN=our-ca-server
                serial:CB:2D:80:99:5A:69:52:5B
            Authority Information Access: 
                CA Issuers - URI:http://testca.pythontest.net/testca/pycacert.cer
                OCSP - URI:http://testca.pythontest.net/testca/ocsp/
            X509v3 CRL Distribution Points: 
                Full Name:
                  URI:http://testca.pythontest.net/testca/revocation.crl
    Signature Algorithm: sha256WithRSAEncryption
    Signature Value:
        37:77:67:76:a0:4a:69:ad:a8:c5:8f:17:d6:55:a6:e4:e1:7f:
        5c:1b:93:3c:0a:98:30:b7:15:52:1f:0f:4b:84:d4:59:d9:fd:
        57:a9:a5:65:b7:1a:cc:0a:c7:bc:49:5e:ab:a4:65:85:46:d5:
        3b:3c:1c:10:8d:18:68:98:81:8b:9d:0d:42:ce:66:45:00:8b:
        b0:bf:bc:4d:a7:ff:cf:ba:17:20:e2:e0:e9:10:ce:52:13:b6:
        2f:f4:3a:01:bf:75:51:dd:72:23:63:d6:eb:b8:13:50:2b:12:
        10:8d:f2:d9:e0:c1:e1:b7:70:06:f0:c9:bc:65:9e:36:6f:f3:
        de:7f:2e:fa:14:4b:75:a4:b3:ba:b8:80:b6:03:d7:7c:18:03:
        6c:4d:c2:84:be:93:d0:5b:fc:3b:66:a3:be:52:0e:b9:e3:50:
        d2:8e:da:3b:ca:5e:14:ab:4e:74:5d:5a:5d:8b:73:6d:d3:5b:
        88:f2:74:a1:fc:0c:53:8d:b9:bc:82:a6:ed:19:22:37:8e:56:
        08:8a:5c:c5:c1:0f:fd:83:91:55:1e:8a:5c:0d:16:db:1f:17:
        c5:86:ef:8a:50:e7:46:f2:ae:52:a1:4e:a9:d9:28:73:48:4f:
        35:bf:11:33:5f:4d:2f:da:8b:c8:99:54:51:fb:0e:05:5a:d9:
        86:60:0b:ca:b6:60:75:64:19:e3:02:31:20:09:4e:4e:55:97:
        72:fd:d6:e1:56:86:e2:01:78:d7:15:fe:ac:df:ac:02:f8:56:
        72:3e:fd:79:85:d2:50:cf:00:4a:73:00:b8:f2:de:c4:67:90:
        0c:38:1c:c5:e1:cb:db:66:47:1e:17:4a:6f:79:72:96:c7:69:
        bf:ea:15:db:66:2a:18:e6:6d:2d:e2:a4:47:bb:b5:15:ed:e2:
        8b:ec:4c:60:2a:46:27:c4:77:36:b0:10:db:23:36:34:e7:33:
        f7:8e:8f:98:90:60:8c:c8:c5:0b:2c:75:1a:50:17:de:77:4e:
        d0:50:83:7c:80:d2
-----BEGIN CERTIFICATE-----
MIIEzTCCAzWgAwIBAgIJAMstgJlaaVJeMA0GCSqGSIb3DQEBCwUAME0xCzAJBgNV
BAYTAlhZMSYwJAYDVQQKDB1QeXRob24gU29mdHdhcmUgRm91bmRhdGlvbiBDQTEW
MBQGA1UEAwwNb3VyLWNhLXNlcnZlcjAgFw0xODA4MjkxNDIzMTZaGA8yNTI1MTAy
ODE0MjMxNlowYzELMAkGA1UEBhMCWFkxFzAVBgNVBAcMDkNhc3RsZSBBbnRocmF4
MSMwIQYDVQQKDBpQeXRob24gU29mdHdhcmUgRm91bmRhdGlvbjEWMBQGA1UEAwwN
bG9jYWxob3N0LWVjYzB2MBAGByqGSM49AgEGBSuBBAAiA2IABPHR1eDvBaLH8m9e
JtPVX0+4rsfolodDk4pUGxiM+vOAFtRwnrzjBAAbrVVMbjuUFVqPtSWKbE2BZQ31
9hteonPNMpEQpzKhUUIPSnvQxXP0XPKB9NmVXcPZuGGPWk+2JaOCAcQwggHAMBgG
A1UdEQQRMA+CDWxvY2FsaG9zdC1lY2MwDgYDVR0PAQH/BAQDAgWgMB0GA1UdJQQW
MBQGCCsGAQUFBwMBBggrBgEFBQcDAjAMBgNVHRMBAf8EAjAAMB0GA1UdDgQWBBTD
MgwKfhyY7xgr4kxqqjwlOiXbZTB9BgNVHSMEdjB0gBS2WHFAoVXFTi5lhESkxlu2
RJvZ4KFRpE8wTTELMAkGA1UEBhMCWFkxJjAkBgNVBAoMHVB5dGhvbiBTb2Z0d2Fy
ZSBGb3VuZGF0aW9uIENBMRYwFAYDVQQDDA1vdXItY2Etc2VydmVyggkAyy2AmVpp
UlswgYMGCCsGAQUFBwEBBHcwdTA8BggrBgEFBQcwAoYwaHR0cDovL3Rlc3RjYS5w
eXRob250ZXN0Lm5ldC90ZXN0Y2EvcHljYWNlcnQuY2VyMDUGCCsGAQUFBzABhilo
dHRwOi8vdGVzdGNhLnB5dGhvbnRlc3QubmV0L3Rlc3RjYS9vY3NwLzBDBgNVHR8E
PDA6MDigNqA0hjJodHRwOi8vdGVzdGNhLnB5dGhvbnRlc3QubmV0L3Rlc3RjYS9y
ZXZvY2F0aW9uLmNybDANBgkqhkiG9w0BAQsFAAOCAYEAN3dndqBKaa2oxY8X1lWm
5OF/XBuTPAqYMLcVUh8PS4TUWdn9V6mlZbcazArHvEleq6RlhUbVOzwcEI0YaJiB
i50NQs5mRQCLsL+8Taf/z7oXIOLg6RDOUhO2L/Q6Ab91Ud1yI2PW67gTUCsSEI3y
2eDB4bdwBvDJvGWeNm/z3n8u+hRLdaSzuriAtgPXfBgDbE3ChL6T0Fv8O2ajvlIO
ueNQ0o7aO8peFKtOdF1aXYtzbdNbiPJ0ofwMU425vIKm7RkiN45WCIpcxcEP/YOR
VR6KXA0W2x8XxYbvilDnRvKuUqFOqdkoc0hPNb8RM19NL9qLyJlUUfsOBVrZhmAL
yrZgdWQZ4wIxIAlOTlWXcv3W4VaG4gF41xX+rN+sAvhWcj79eYXSUM8ASnMAuPLe
xGeQDDgcxeHL22ZHHhdKb3lylsdpv+oV22YqGOZtLeKkR7u1Fe3ii+xMYCpGJ8R3
NrAQ2yM2NOcz946PmJBgjMjFCyx1GlAX3ndO0FCDfIDS
-----END CERTIFICATE-----
