-----BEGIN PRIVATE KEY-----
MIIG/QIBADANBgkqhkiG9w0BAQEFAASCBucwggbjAgEAAoIBgQCfPY0kfAfsEyng
14nwPiYMlg2y6McpnyhRxFmjkkHDYl5/DrSLR0pJqHkv02/j1WVGkwupQ3m0LqVp
KqvDdQNJ0NWFpVsHWL9RHaUI+bRdlrugF23Umtx22Mp8p1uQb5tulbkx+Pb3Tv78
xSvPSw9JxBQz7FsS7OM6fP2oD+BG7qwFd1OInetaiw2ISTfuK8izOXtsV90hygEy
CNfEeQ7zS6Xy/Cu7TjMSh7SqiML3qhOIatQBVM2Jd4galRcRmgqgor0T1DWFBXok
p70t3w+cESzz4vr3EMxMTiuTiQ3PlWm1iCw+PDN23i152mEl8yCXRGkt1eKv9xl8
up1byM7+OueitMUzYewu0CO3aC0t9iqBQCPi58fANMethtl5ujBnaHtXiCspVjkW
3IOTtSFtsPlVCQWja2i7brUTxlq5UnK/sjtu6FQdr04U4QEJ74K9E0iC1E35QeN3
l8cy8/sM6N8OinVoBscVNuR/gZlFD9WjeeIUGeDVnNWzeYyhVdkCAwEAAQKCAYAF
OEMLZl5rHGCzzFTq8VqVcIi/69X1dRBhB8bpb/akZTHUR+LequZSPknEqdFh3kGc
296WvI29fIbzCNFLDaefMI+DOz2d4siYq9hYUDkblUCOuZ3hyXa/FZGjnufHNwVZ
DWLd8ruDtUzx87OhLqRwZlNENXPxzZ6QMP8ulmCjapjsb/ImyQhpNiQqKr5A2iIQ
z+pODZ5DyIecAIK0H8S/8GOe8KmtUN2nNpgTO/rqG+Lahqfu6Dz5i9fECU2Rh+NS
jA2qSF1Gb8NKHTvaXg/4D8OlyJXTmmd5cOIlZckSoEP7Rt+IXS8rH/A9HjwuqY17
q0phXRwY2kuQALdWVZMxLVwhPHycyLa4J3OyZ5o+nSSEBTc/B3wQF835lF1MBUpT
EwJdjJq/jDWtLhJS6yYdX/XjsqBnix7hswgoogE3nCtMNNZpwkZotAax29bpr8ut
l5oSc9TOhece4q3knflLC+cSNVoOjJChirRzLvnaE7KxeppjvP+8aLR6DdFaxrUC
gcEA0dHf/ahSKckbil7k8u3SgleHtO6DZtO0v051/Swi0GdADvE2ODHrOTW4gVdP
TSvAosZZUM3BvK78BAi82Z4KcHTX85VsnoKvan4yoKtXg24uBGQZ9PnMBDT1yxb+
PgpYbO6QXifMjgSRvBUnfrOpKt9jXKWH9ATuyFMFw0LwrVLBucIp/zGT0L7ZzX4Y
kl1ZCnxzU5U6nPBsaQjRBBeWxVlHJ9Tp/E7d7wRYXNmCTSEr6ZhzSwSq/YoAOqsW
qW1tAoHBAMJJ0oe0PN/ViA68zD3ufM9lm6W1Yomvz4DNHNd3SYGv7CfX5lrNLPHT
UEpaVqXlehXyGD8ML1+8fdeEs7m9MNip7l2RldxNrL1jU/wJ1A+3m5XyQuvn9FY3
hbDxOgOjaMCcXT+CebLy47Ioc0p8LYLFwb7FBEsl9NygL3VvgGCAZxC0zFaEePtY
+cJkZSRlwnP2py4BtCJJ8MBZbC6ysa0JsguKdsl1VarowR5JOpAxEPaH7KT9FQZJ
msf8zDvinQKBwC8BT6bqAI4v6aWUIMJzmQduSI62KGXu470//JrdOmdp2iX+z+DC
/ilw6YbAYpmtRZixyuyZS9/Ta84TjwtJppkO9BozzYOtT1MSNpFcEVz2YATH0DDb
jWMb4jy/R/HqK2ksANe3HtJqH6P9MT3nTey24vGse8qlGEF0qAPYiUarFY9h+jqb
hrvrJawtpZ+UnhAFVWjSM7FZA1B8kybRigtoNtKrlkfZ+0pCtPEIIXLaDZZlet7B
ivUF54s9LPSD+QKBwQC8EloJox+KTVl3aqsLCGEpImKY9gx83AMx21uf94jgUTt5
FjWWkCaBsNx4HRrjXE/iDogJ//Gb6wqmJX8UvV8bXOOxD8zRhR9B9XTG9Xyh+kpR
zEGbut162CRCNEDEZNpyGOrrH5JO93ASdbWk1K/5dxUlZfHSDNwK9cT7GQRcZe9e
7KUg2vuB049x7V067oZdWtZaYqvMxWaXy/g8/B2iM1B2e4KhYUOcPdMzTg+ypMyW
2NzqmVJQ089Q6BWLosECgcB9/vxqwtKTDsIOT48riPSdGXAL3ERfumgCMuHuBgVa
OMBiHzrRhnffnUsnc8/8HQ09vrnbRh6r6WSa5bVL/G9T7jQV1JVDmGuJmuEifuKO
aZK/wF3DC6C9kXkZISJu5D/GYDbwtu0hOrYSsEeuhLFjUZAgOBbd427fhVIBfHad
jBowSr0YfVrgRmgHuQe4b0jN9AfVp/mPKbBXTbt8i7UV4kF7v4R95MB7hR66D6u+
0TlpT8VD/ldfpIyoqRHk608=
-----END PRIVATE KEY-----
Certificate:
    Data:
        Version: 3 (0x2)
        Serial Number:
            cb:2d:80:99:5a:69:52:5d
        Signature Algorithm: sha256WithRSAEncryption
        Issuer: C=XY, O=Python Software Foundation CA, CN=our-ca-server
        Validity
            Not Before: Aug 29 14:23:16 2018 GMT
            Not After : Oct 28 14:23:16 2037 GMT
        Subject: C=XY, L=Castle Anthrax, O=Python Software Foundation, CN=fakehostname
        Subject Public Key Info:
            Public Key Algorithm: rsaEncryption
                Public-Key: (3072 bit)
                Modulus:
                    00:9f:3d:8d:24:7c:07:ec:13:29:e0:d7:89:f0:3e:
                    26:0c:96:0d:b2:e8:c7:29:9f:28:51:c4:59:a3:92:
                    41:c3:62:5e:7f:0e:b4:8b:47:4a:49:a8:79:2f:d3:
                    6f:e3:d5:65:46:93:0b:a9:43:79:b4:2e:a5:69:2a:
                    ab:c3:75:03:49:d0:d5:85:a5:5b:07:58:bf:51:1d:
                    a5:08:f9:b4:5d:96:bb:a0:17:6d:d4:9a:dc:76:d8:
                    ca:7c:a7:5b:90:6f:9b:6e:95:b9:31:f8:f6:f7:4e:
                    fe:fc:c5:2b:cf:4b:0f:49:c4:14:33:ec:5b:12:ec:
                    e3:3a:7c:fd:a8:0f:e0:46:ee:ac:05:77:53:88:9d:
                    eb:5a:8b:0d:88:49:37:ee:2b:c8:b3:39:7b:6c:57:
                    dd:21:ca:01:32:08:d7:c4:79:0e:f3:4b:a5:f2:fc:
                    2b:bb:4e:33:12:87:b4:aa:88:c2:f7:aa:13:88:6a:
                    d4:01:54:cd:89:77:88:1a:95:17:11:9a:0a:a0:a2:
                    bd:13:d4:35:85:05:7a:24:a7:bd:2d:df:0f:9c:11:
                    2c:f3:e2:fa:f7:10:cc:4c:4e:2b:93:89:0d:cf:95:
                    69:b5:88:2c:3e:3c:33:76:de:2d:79:da:61:25:f3:
                    20:97:44:69:2d:d5:e2:af:f7:19:7c:ba:9d:5b:c8:
                    ce:fe:3a:e7:a2:b4:c5:33:61:ec:2e:d0:23:b7:68:
                    2d:2d:f6:2a:81:40:23:e2:e7:c7:c0:34:c7:ad:86:
                    d9:79:ba:30:67:68:7b:57:88:2b:29:56:39:16:dc:
                    83:93:b5:21:6d:b0:f9:55:09:05:a3:6b:68:bb:6e:
                    b5:13:c6:5a:b9:52:72:bf:b2:3b:6e:e8:54:1d:af:
                    4e:14:e1:01:09:ef:82:bd:13:48:82:d4:4d:f9:41:
                    e3:77:97:c7:32:f3:fb:0c:e8:df:0e:8a:75:68:06:
                    c7:15:36:e4:7f:81:99:45:0f:d5:a3:79:e2:14:19:
                    e0:d5:9c:d5:b3:79:8c:a1:55:d9
                Exponent: 65537 (0x10001)
        X509v3 extensions:
            X509v3 Subject Alternative Name: 
                DNS:fakehostname
            X509v3 Key Usage: critical
                Digital Signature, Key Encipherment
            X509v3 Extended Key Usage: 
                TLS Web Server Authentication, TLS Web Client Authentication
            X509v3 Basic Constraints: critical
                CA:FALSE
            X509v3 Subject Key Identifier: 
                0C:ED:66:2C:6D:51:4C:87:4B:FE:81:90:CE:F0:99:97:FB:E9:BA:ED
            X509v3 Authority Key Identifier: 
                keyid:B4:91:DA:7B:B6:9A:66:F5:39:93:E1:9F:AD:46:4C:51:8E:60:F8:E8
                DirName:/C=XY/O=Python Software Foundation CA/CN=our-ca-server
                serial:CB:2D:80:99:5A:69:52:5B
            Authority Information Access: 
                CA Issuers - URI:http://testca.pythontest.net/testca/pycacert.cer
                OCSP - URI:http://testca.pythontest.net/testca/ocsp/
            X509v3 CRL Distribution Points: 
                Full Name:
                  URI:http://testca.pythontest.net/testca/revocation.crl
    Signature Algorithm: sha256WithRSAEncryption
    Signature Value:
        02:69:9c:9b:bc:5e:9a:ff:0c:d2:84:eb:2c:a3:f1:ff:91:4f:
        7a:75:14:fb:45:d0:11:3c:ac:01:e1:78:91:ba:93:d9:ef:31:
        ba:11:19:c4:f4:b5:f4:c6:81:61:56:3e:6b:0e:40:9b:10:3d:
        95:15:1a:59:25:9d:31:c8:7f:d3:00:6c:73:fb:2c:32:5b:05:
        5b:47:32:b3:d2:06:e5:44:d6:4a:ee:07:4b:f3:01:c2:52:26:
        5a:db:52:8c:cd:11:56:0f:72:58:bc:34:48:d2:66:a2:2c:a9:
        20:af:58:ff:fd:2d:47:9b:d1:e2:3a:ea:7f:d1:5f:ed:ff:b9:
        d1:24:95:a3:77:8e:e1:f0:e4:4c:e9:5b:23:5a:86:ee:3b:e9:
        60:48:55:85:e4:8b:6a:c2:76:53:32:9a:5f:25:8f:e7:fb:9d:
        62:e3:e2:50:fc:a2:5e:5f:b4:19:4f:cb:c3:02:16:64:38:99:
        c1:55:0b:2f:b8:98:40:a4:c2:28:02:fa:c6:bd:29:d7:c9:13:
        cf:4a:5c:e3:e9:10:c6:6c:65:d6:1c:8b:e9:31:20:a4:f4:28:
        52:12:91:1a:fc:8a:d6:ac:69:07:c3:35:fa:49:aa:b5:f4:76:
        56:a7:ca:5e:83:7e:ab:70:91:a8:8e:0c:b9:53:58:07:fc:ac:
        b0:53:21:66:51:0f:46:f0:81:fb:77:02:08:d8:75:f1:f3:df:
        2b:6e:e5:fc:06:50:db:25:b4:93:9c:b9:1e:ab:ce:c4:7d:9e:
        9d:aa:8e:9c:d8:88:72:06:53:20:d0:a3:66:d2:e3:29:ba:9b:
        5c:08:8b:f7:68:78:dd:c8:c2:c6:4a:fb:52:83:3e:88:47:ab:
        d7:88:f0:48:85:4f:73:eb:d1:97:09:a8:69:fa:88:ec:3a:c4:
        12:08:b1:c3:39:57:3b:6e:c0:78:06:09:45:06:3f:91:06:7b:
        d5:92:dd:fd:f4:ce:29:8b:1a:d4:a2:10:26:35:c2:f3:79:16:
        a5:15:bd:3c:dc:ab
-----BEGIN CERTIFICATE-----
MIIF9zCCBF+gAwIBAgIJAMstgJlaaVJdMA0GCSqGSIb3DQEBCwUAME0xCzAJBgNV
BAYTAlhZMSYwJAYDVQQKDB1QeXRob24gU29mdHdhcmUgRm91bmRhdGlvbiBDQTEW
MBQGA1UEAwwNb3VyLWNhLXNlcnZlcjAeFw0xODA4MjkxNDIzMTZaFw0zNzEwMjgx
NDIzMTZaMGIxCzAJBgNVBAYTAlhZMRcwFQYDVQQHDA5DYXN0bGUgQW50aHJheDEj
MCEGA1UECgwaUHl0aG9uIFNvZnR3YXJlIEZvdW5kYXRpb24xFTATBgNVBAMMDGZh
a2Vob3N0bmFtZTCCAaIwDQYJKoZIhvcNAQEBBQADggGPADCCAYoCggGBAJ89jSR8
B+wTKeDXifA+JgyWDbLoxymfKFHEWaOSQcNiXn8OtItHSkmoeS/Tb+PVZUaTC6lD
ebQupWkqq8N1A0nQ1YWlWwdYv1EdpQj5tF2Wu6AXbdSa3HbYynynW5Bvm26VuTH4
9vdO/vzFK89LD0nEFDPsWxLs4zp8/agP4EburAV3U4id61qLDYhJN+4ryLM5e2xX
3SHKATII18R5DvNLpfL8K7tOMxKHtKqIwveqE4hq1AFUzYl3iBqVFxGaCqCivRPU
NYUFeiSnvS3fD5wRLPPi+vcQzExOK5OJDc+VabWILD48M3beLXnaYSXzIJdEaS3V
4q/3GXy6nVvIzv4656K0xTNh7C7QI7doLS32KoFAI+Lnx8A0x62G2Xm6MGdoe1eI
KylWORbcg5O1IW2w+VUJBaNraLtutRPGWrlScr+yO27oVB2vThThAQnvgr0TSILU
TflB43eXxzLz+wzo3w6KdWgGxxU25H+BmUUP1aN54hQZ4NWc1bN5jKFV2QIDAQAB
o4IBwzCCAb8wFwYDVR0RBBAwDoIMZmFrZWhvc3RuYW1lMA4GA1UdDwEB/wQEAwIF
oDAdBgNVHSUEFjAUBggrBgEFBQcDAQYIKwYBBQUHAwIwDAYDVR0TAQH/BAIwADAd
BgNVHQ4EFgQUDO1mLG1RTIdL/oGQzvCZl/vpuu0wfQYDVR0jBHYwdIAUtJHae7aa
ZvU5k+GfrUZMUY5g+OihUaRPME0xCzAJBgNVBAYTAlhZMSYwJAYDVQQKDB1QeXRo
b24gU29mdHdhcmUgRm91bmRhdGlvbiBDQTEWMBQGA1UEAwwNb3VyLWNhLXNlcnZl
coIJAMstgJlaaVJbMIGDBggrBgEFBQcBAQR3MHUwPAYIKwYBBQUHMAKGMGh0dHA6
Ly90ZXN0Y2EucHl0aG9udGVzdC5uZXQvdGVzdGNhL3B5Y2FjZXJ0LmNlcjA1Bggr
BgEFBQcwAYYpaHR0cDovL3Rlc3RjYS5weXRob250ZXN0Lm5ldC90ZXN0Y2Evb2Nz
cC8wQwYDVR0fBDwwOjA4oDagNIYyaHR0cDovL3Rlc3RjYS5weXRob250ZXN0Lm5l
dC90ZXN0Y2EvcmV2b2NhdGlvbi5jcmwwDQYJKoZIhvcNAQELBQADggGBAAJpnJu8
Xpr/DNKE6yyj8f+RT3p1FPtF0BE8rAHheJG6k9nvMboRGcT0tfTGgWFWPmsOQJsQ
PZUVGlklnTHIf9MAbHP7LDJbBVtHMrPSBuVE1kruB0vzAcJSJlrbUozNEVYPcli8
NEjSZqIsqSCvWP/9LUeb0eI66n/RX+3/udEklaN3juHw5EzpWyNahu476WBIVYXk
i2rCdlMyml8lj+f7nWLj4lD8ol5ftBlPy8MCFmQ4mcFVCy+4mECkwigC+sa9KdfJ
E89KXOPpEMZsZdYci+kxIKT0KFISkRr8itasaQfDNfpJqrX0dlanyl6DfqtwkaiO
DLlTWAf8rLBTIWZRD0bwgft3AgjYdfHz3ytu5fwGUNsltJOcuR6rzsR9np2qjpzY
iHIGUyDQo2bS4ym6m1wIi/doeN3IwsZK+1KDPohHq9eI8EiFT3Pr0ZcJqGn6iOw6
xBIIscM5VztuwHgGCUUGP5EGe9WS3f30zimLGtSiECY1wvN5FqUVvTzcqw==
-----END CERTIFICATE-----
