-----BEGIN PRIVATE KEY-----
MIG2AgEAMBAGByqGSM49AgEGBSuBBAAiBIGeMIGbAgEBBDDXoR9FKpjaN+izeYAa
zqysScuWjLw4c6Z8HqDpHui3gderkZUAVZ684IEyvpq+SIGhZANiAAR1IcrdtOUI
qmOUsFRR/GzuCgxdDxB2dV9/MM6ZeNfACfXG+Yy1jQ4b4YPUwbX3+Z5ngQVGEjRi
6CVWu+S5Yug9qMPFi3Bb3OsPhsm+E5hHVCHGPsJBolPCWUNUnX4wZjA=
-----END PRIVATE KEY-----
Certificate:
    Data:
        Version: 3 (0x2)
        Serial Number:
            cb:2d:80:99:5a:69:52:5e
        Signature Algorithm: sha256WithRSAEncryption
        Issuer: C=XY, O=Python Software Foundation CA, CN=our-ca-server
        Validity
            Not Before: Aug 29 14:23:16 2018 GMT
            Not After : Oct 28 14:23:16 2525 GMT
        Subject: C=XY, L=Castle Anthrax, O=Python Software Foundation, CN=localhost-ecc
        Subject Public Key Info:
            Public Key Algorithm: id-ecPublicKey
                Public-Key: (384 bit)
                pub:
                    04:75:21:ca:dd:b4:e5:08:aa:63:94:b0:54:51:fc:
                    6c:ee:0a:0c:5d:0f:10:76:75:5f:7f:30:ce:99:78:
                    d7:c0:09:f5:c6:f9:8c:b5:8d:0e:1b:e1:83:d4:c1:
                    b5:f7:f9:9e:67:81:05:46:12:34:62:e8:25:56:bb:
                    e4:b9:62:e8:3d:a8:c3:c5:8b:70:5b:dc:eb:0f:86:
                    c9:be:13:98:47:54:21:c6:3e:c2:41:a2:53:c2:59:
                    43:54:9d:7e:30:66:30
                ASN1 OID: secp384r1
                NIST CURVE: P-384
        X509v3 extensions:
            X509v3 Subject Alternative Name: 
                DNS:localhost-ecc
            X509v3 Key Usage: critical
                Digital Signature, Key Encipherment
            X509v3 Extended Key Usage: 
                TLS Web Server Authentication, TLS Web Client Authentication
            X509v3 Basic Constraints: critical
                CA:FALSE
            X509v3 Subject Key Identifier: 
                2F:6E:4F:8A:D8:98:D5:B7:A7:13:F7:FA:BF:09:4C:6C:80:A5:B1:8C
            X509v3 Authority Key Identifier: 
                keyid:1F:D2:DD:83:47:7D:60:07:C3:9C:D5:BA:76:A6:F4:D4:86:9B:76:4B
                DirName:/C=XY/O=Python Software Foundation CA/CN=our-ca-server
                serial:CB:2D:80:99:5A:69:52:5B

            Authority Information Access: 
                CA Issuers - URI:http://testca.pythontest.net/testca/pycacert.cer
                OCSP - URI:http://testca.pythontest.net/testca/ocsp/

            X509v3 CRL Distribution Points: 

                Full Name:
                  URI:http://testca.pythontest.net/testca/revocation.crl

    Signature Algorithm: sha256WithRSAEncryption
         31:82:99:3a:76:e3:79:46:91:26:48:90:3d:b5:f1:1c:52:ac:
         33:e9:44:e0:1d:21:74:3b:8b:74:e7:04:61:a8:fb:ba:dd:4d:
         8d:56:f7:8e:b5:ef:df:a3:4c:f5:8b:14:4b:2b:2a:ae:1a:1e:
         df:83:75:dc:7c:4e:37:2d:b9:a5:70:5d:d1:02:ff:cd:5a:59:
         7e:2e:23:14:12:3d:69:a1:b3:8e:7b:4a:88:21:c9:71:5e:ba:
         37:e7:35:10:68:46:8b:1e:26:81:8b:86:4e:d3:0e:ce:4b:c1:
         05:a8:4d:4a:69:5b:fc:b0:b0:84:3f:9f:fe:e6:3f:14:f6:1f:
         32:b4:a4:bc:4e:ca:c0:b3:8d:33:ae:97:d4:6f:86:af:4d:dc:
         a0:4d:ed:93:47:21:93:4a:ec:d9:b1:0d:a2:3c:00:e0:fe:d9:
         4e:e0:98:29:8d:2f:bd:ee:0c:3d:41:29:2a:13:08:bc:0c:08:
         1e:12:93:95:ef:6d:8c:4f:c9:e2:2f:2e:1d:e7:8b:ca:a6:86:
         8d:4e:2e:98:be:70:63:03:04:44:c0:95:23:b7:79:a2:8d:b3:
         12:24:03:fb:2c:30:3a:a6:3b:26:df:c6:e9:eb:0c:69:4c:d5:
         3c:c5:52:fb:8b:57:b2:79:3d:cc:11:c4:5b:30:19:a4:f0:2d:
         13:5f:04:41:fc:3a:23:22:21:8f:74:e1:fd:0e:bb:1e:d5:89:
         53:69:f2:ef:0b:69:dd:9e:ee:1f:dc:c8:8e:b2:7a:c8:3a:94:
         6f:42:ee:43:37:22:02:6e:cc:c1:b0:30:1f:2a:a9:6b:f4:84:
         10:e5:97:d2:d6:36:7f:a4:72:89:65:fe:29:f4:e5:bb:9c:65:
         63:0a:6f:82:c0:35:d5:f8:61:d8:9e:2b:06:2d:ec:d5:4b:ad:
         2f:3f:ba:a8:ec:db:14:2f:21:a0:42:89:1f:65:71:10:4c:01:
         95:5a:7f:cc:58:14:28:50:6b:e2:6e:51:7e:54:0b:90:09:f4:
         a4:52:c1:8a:2b:80
-----BEGIN CERTIFICATE-----
MIIEzTCCAzWgAwIBAgIJAMstgJlaaVJeMA0GCSqGSIb3DQEBCwUAME0xCzAJBgNV
BAYTAlhZMSYwJAYDVQQKDB1QeXRob24gU29mdHdhcmUgRm91bmRhdGlvbiBDQTEW
MBQGA1UEAwwNb3VyLWNhLXNlcnZlcjAgFw0xODA4MjkxNDIzMTZaGA8yNTI1MTAy
ODE0MjMxNlowYzELMAkGA1UEBhMCWFkxFzAVBgNVBAcMDkNhc3RsZSBBbnRocmF4
MSMwIQYDVQQKDBpQeXRob24gU29mdHdhcmUgRm91bmRhdGlvbjEWMBQGA1UEAwwN
bG9jYWxob3N0LWVjYzB2MBAGByqGSM49AgEGBSuBBAAiA2IABHUhyt205QiqY5Sw
VFH8bO4KDF0PEHZ1X38wzpl418AJ9cb5jLWNDhvhg9TBtff5nmeBBUYSNGLoJVa7
5Lli6D2ow8WLcFvc6w+Gyb4TmEdUIcY+wkGiU8JZQ1SdfjBmMKOCAcQwggHAMBgG
A1UdEQQRMA+CDWxvY2FsaG9zdC1lY2MwDgYDVR0PAQH/BAQDAgWgMB0GA1UdJQQW
MBQGCCsGAQUFBwMBBggrBgEFBQcDAjAMBgNVHRMBAf8EAjAAMB0GA1UdDgQWBBQv
bk+K2JjVt6cT9/q/CUxsgKWxjDB9BgNVHSMEdjB0gBQf0t2DR31gB8Oc1bp2pvTU
hpt2S6FRpE8wTTELMAkGA1UEBhMCWFkxJjAkBgNVBAoMHVB5dGhvbiBTb2Z0d2Fy
ZSBGb3VuZGF0aW9uIENBMRYwFAYDVQQDDA1vdXItY2Etc2VydmVyggkAyy2AmVpp
UlswgYMGCCsGAQUFBwEBBHcwdTA8BggrBgEFBQcwAoYwaHR0cDovL3Rlc3RjYS5w
eXRob250ZXN0Lm5ldC90ZXN0Y2EvcHljYWNlcnQuY2VyMDUGCCsGAQUFBzABhilo
dHRwOi8vdGVzdGNhLnB5dGhvbnRlc3QubmV0L3Rlc3RjYS9vY3NwLzBDBgNVHR8E
PDA6MDigNqA0hjJodHRwOi8vdGVzdGNhLnB5dGhvbnRlc3QubmV0L3Rlc3RjYS9y
ZXZvY2F0aW9uLmNybDANBgkqhkiG9w0BAQsFAAOCAYEAMYKZOnbjeUaRJkiQPbXx
HFKsM+lE4B0hdDuLdOcEYaj7ut1NjVb3jrXv36NM9YsUSysqrhoe34N13HxONy25
pXBd0QL/zVpZfi4jFBI9aaGzjntKiCHJcV66N+c1EGhGix4mgYuGTtMOzkvBBahN
Smlb/LCwhD+f/uY/FPYfMrSkvE7KwLONM66X1G+Gr03coE3tk0chk0rs2bENojwA
4P7ZTuCYKY0vve4MPUEpKhMIvAwIHhKTle9tjE/J4i8uHeeLyqaGjU4umL5wYwME
RMCVI7d5oo2zEiQD+ywwOqY7Jt/G6esMaUzVPMVS+4tXsnk9zBHEWzAZpPAtE18E
Qfw6IyIhj3Th/Q67HtWJU2ny7wtp3Z7uH9zIjrJ6yDqUb0LuQzciAm7MwbAwHyqp
a/SEEOWX0tY2f6RyiWX+KfTlu5xlYwpvgsA11fhh2J4rBi3s1UutLz+6qOzbFC8h
oEKJH2VxEEwBlVp/zFgUKFBr4m5RflQLkAn0pFLBiiuA
-----END CERTIFICATE-----
