-----BEGIN PRIVATE KEY-----
MIIG/wIBADANBgkqhkiG9w0BAQEFAASCBukwggblAgEAAoIBgQDniFSBXCW+atIK
GS6hYpfSJHJuGSjvfoKlGPgNVZ8otYqpmFC0KX7r9XMbhGO3WthSbn7znWohEepS
ouAQrAdSbMb2yE22H09aXYTqAE4i94mY56xfQj75XWO+NfmQyM1RJPaeIAJ8jrJI
MXyzIViZdrxGcNMLI+seQYDjGDlkeBinNVdJ26R91RdFhIHij02CDsewnsuCinUx
lUjcC0sJAg7q20BT9hi44EzktX1qEUlig1htPPRuiGDmSRCSTEMwnr+RSgooI1OJ
dIXtYyhqjROSIPphSSZBCdC+QBgYK8bjFp9N7kDukRAwvVEpjEv0hKIQBhhV4wXR
vANIx2a2OY373TGE0rBoNudRMBNLCS1dFV74/9y+rUzu2MdBGhM1sGvfAJiMxFeV
r9WqfpkCRsUhpdq4vRCA4EcDqyz+bNioBzrZDEq5Ey6MOkcgHtGCorIbStlzBWGt
3+Fxer9aAth6PJDE82heLGNkwmooYKNrd9zj2oRX/m3wN4nSWNcCAwEAAQKCAYBY
X9IZmkmR2AYZ8qi40wAuJtlCqvnUCE7no5Myy8a3bCvkNg4/5kLa39Iy46KIHvXI
6QIuDJywyLzPE/pAgtk8neaH1cbLyEGqtV2BT+KDOEbeBTfnGEsfNYVX2hRLLkoo
OdqkWoV4c6MbKUB2wzilQwv0OyZi7y/UWZ5PkDR/49NNJ3AM8fhkS0zZrQ1Co/4q
sWeJQ+NcDWtUJK4tx2W5p354KH3yTlH7ZyoSdi/Lp5OCNa4v6/9EnWuXGrZnkRGu
gorCaSR7KemKCPr2V8n4ZzUCLz8PSv5pfIteF06Ve8TrzFCCmfxJUnmYSSLKE3oY
LiyiQoL3EDUNAyNYpGH7sZ2cocGtFcLzx0TUj8u1a+YuuioTTAz1qYHUf8lKomS6
E7iIZgVV17C5ZP2Ibsu79EHMfpAdlhboukP4czwazR14ZQ836dafFaJy+I68wmUq
ihDpLgP/roRO9IiSocGAoepBtySt5mKU4DvvUqo3Eotwcy/ygw+3kBStEGJRAVEC
gcEA9tlJVWn9H2pQA2dF37sNJpDwbZaPNUWv2LYiHig3vlt67GqG6yZfDUwDG6dN
6N1A8DWmDkWQ3NDpsTLoeazMV8jWcTX/8l5gVvlo8ayd/7z04/j3/qlwUdZstNjP
qFSDeNAM2i9xsNwdgRyI3ont3bTfc45DU3CN1eVL/Fgt2/9bOYsuTQ/0FknWWtMS
fH7Y4p6+TTQwjWym/rzp5X7JCgZ1LxbEUsROs+73oL5brlKbEpSQg5VsmBuQKsV8
Tis/AoHBAPAdr2kztB6BrqzdDHtLZ64JXY24wUtpE9m9LJuf2MUKWWpP/MP6Fz8T
YxR25/ePY1FtmyOQMT8tEI+CdZNKLx4FssfEFKcfTLm/qYAU26vjkB6j3BGoxdTC
adIcEk2GfyoTz395cKrA7uwKwBZH6LZZ8ON/vDH0GFRpDx7exnWBAM8D4HMLkjfc
Sspo1fZlHfV3Pg81Eq1YlWB7EzpLUGroKrl8Kxk7CcokCF5l0Kq9X9OIxpokbIfb
nkdnmaJkaQKBwQDsWAaavSwZlBSf7ZU9LT7eGg/ZHTpoaxx+hYQNE7yribMcALLF
GqwPcyPWqk0yFAVE+FjReVHF2lCl1HQ5a3UK58RKCMXSLQJYw9vy6K8uWKCwVYQ8
U8ay1HaogJ3yMVjfp3Nmw94608V8BPIXAEC68Z6waRmVHkLu9OfX6CWgadHSOqxO
JGQzouaVd1pP0LOf5xWVnc6O2eTaKc5YaRfbfWtddpLqHAKuzLJTOW9WbMkE9TGY
isy6pklWalcmEMkCgcEA09LsRtuE35C53ueWtkIcMe0zKe4+H1+QUnrPmm6WVaU+
okn0C5NZ5JwewRPwqXVGQbR2sxXmS/xeaqvFO22rSUnvoMl7Cr/S+N57EnHUJLw5
DL6zSqTf+USVA/UdtGSdVCpr1+HzIb/YRkVplX5UbmHD3351MIBM4lJYM3yGCW0H
oJij7fncQQlGtW9sqdQkbMKH7fR9CI1oIdgRa1C7ncQ4xK8kejqZ9Uh6VYRuY+Fy
YvN7eMn/MI7u/8EGSLtZAoHBAK2Gtg9PZLlHbPZd9aGhjghMQeQ6Mk/Vmhn4qJCk
MRiaUOi1CrcPfMlcduCxGA+fLBiA6kjhrGJ5M/6VSDXSXhnuzzES3VwSrbdQzS6r
OSp3VqMXQjp+V91Ta5q1hZCs/CFHYF5nVGHhXmJKv31kg2zb63IcWNX2exCklSAA
nygVu+RVN65R8zIXqfslEmBQnq2Q9dez6rl4fkbFfEp+LGIek+o7hYkiPJqrVu+W
VcPovJhyOHkIQA4gy7fCFUlpNw==
-----END PRIVATE KEY-----
Certificate:
    Data:
        Version: 3 (0x2)
        Serial Number:
            cb:2d:80:99:5a:69:52:5d
        Signature Algorithm: sha256WithRSAEncryption
        Issuer: C=XY, O=Python Software Foundation CA, CN=our-ca-server
        Validity
            Not Before: Aug 29 14:23:16 2018 GMT
            Not After : Oct 28 14:23:16 2525 GMT
        Subject: C=XY, L=Castle Anthrax, O=Python Software Foundation, CN=fakehostname
        Subject Public Key Info:
            Public Key Algorithm: rsaEncryption
                RSA Public-Key: (3072 bit)
                Modulus:
                    00:e7:88:54:81:5c:25:be:6a:d2:0a:19:2e:a1:62:
                    97:d2:24:72:6e:19:28:ef:7e:82:a5:18:f8:0d:55:
                    9f:28:b5:8a:a9:98:50:b4:29:7e:eb:f5:73:1b:84:
                    63:b7:5a:d8:52:6e:7e:f3:9d:6a:21:11:ea:52:a2:
                    e0:10:ac:07:52:6c:c6:f6:c8:4d:b6:1f:4f:5a:5d:
                    84:ea:00:4e:22:f7:89:98:e7:ac:5f:42:3e:f9:5d:
                    63:be:35:f9:90:c8:cd:51:24:f6:9e:20:02:7c:8e:
                    b2:48:31:7c:b3:21:58:99:76:bc:46:70:d3:0b:23:
                    eb:1e:41:80:e3:18:39:64:78:18:a7:35:57:49:db:
                    a4:7d:d5:17:45:84:81:e2:8f:4d:82:0e:c7:b0:9e:
                    cb:82:8a:75:31:95:48:dc:0b:4b:09:02:0e:ea:db:
                    40:53:f6:18:b8:e0:4c:e4:b5:7d:6a:11:49:62:83:
                    58:6d:3c:f4:6e:88:60:e6:49:10:92:4c:43:30:9e:
                    bf:91:4a:0a:28:23:53:89:74:85:ed:63:28:6a:8d:
                    13:92:20:fa:61:49:26:41:09:d0:be:40:18:18:2b:
                    c6:e3:16:9f:4d:ee:40:ee:91:10:30:bd:51:29:8c:
                    4b:f4:84:a2:10:06:18:55:e3:05:d1:bc:03:48:c7:
                    66:b6:39:8d:fb:dd:31:84:d2:b0:68:36:e7:51:30:
                    13:4b:09:2d:5d:15:5e:f8:ff:dc:be:ad:4c:ee:d8:
                    c7:41:1a:13:35:b0:6b:df:00:98:8c:c4:57:95:af:
                    d5:aa:7e:99:02:46:c5:21:a5:da:b8:bd:10:80:e0:
                    47:03:ab:2c:fe:6c:d8:a8:07:3a:d9:0c:4a:b9:13:
                    2e:8c:3a:47:20:1e:d1:82:a2:b2:1b:4a:d9:73:05:
                    61:ad:df:e1:71:7a:bf:5a:02:d8:7a:3c:90:c4:f3:
                    68:5e:2c:63:64:c2:6a:28:60:a3:6b:77:dc:e3:da:
                    84:57:fe:6d:f0:37:89:d2:58:d7
                Exponent: 65537 (0x10001)
        X509v3 extensions:
            X509v3 Subject Alternative Name: 
                DNS:fakehostname
            X509v3 Key Usage: critical
                Digital Signature, Key Encipherment
            X509v3 Extended Key Usage: 
                TLS Web Server Authentication, TLS Web Client Authentication
            X509v3 Basic Constraints: critical
                CA:FALSE
            X509v3 Subject Key Identifier: 
                66:6B:04:BC:F9:D1:40:D7:94:A1:68:FE:C6:DD:80:63:05:D7:02:92
            X509v3 Authority Key Identifier: 
                keyid:1F:D2:DD:83:47:7D:60:07:C3:9C:D5:BA:76:A6:F4:D4:86:9B:76:4B
                DirName:/C=XY/O=Python Software Foundation CA/CN=our-ca-server
                serial:CB:2D:80:99:5A:69:52:5B

            Authority Information Access: 
                CA Issuers - URI:http://testca.pythontest.net/testca/pycacert.cer
                OCSP - URI:http://testca.pythontest.net/testca/ocsp/

            X509v3 CRL Distribution Points: 

                Full Name:
                  URI:http://testca.pythontest.net/testca/revocation.crl

    Signature Algorithm: sha256WithRSAEncryption
         be:81:79:d4:a1:f5:ea:ce:70:5f:22:f5:88:25:bd:28:c0:b7:
         60:3a:ce:13:24:f0:69:a4:a5:70:2a:91:3f:31:d4:84:ed:94:
         5a:83:6b:50:65:d1:10:be:be:b6:c8:ce:82:df:e5:bd:82:e9:
         00:62:84:5d:be:33:bd:c7:3c:f6:37:1a:bd:9d:92:e5:a5:76:
         66:2c:d2:e6:0e:9e:82:69:0b:9f:68:be:77:9c:6e:63:19:b6:
         07:37:13:e2:6a:13:6a:86:01:26:6b:0a:87:e9:cc:fc:2b:95:
         4e:9b:fa:df:44:4f:c3:ec:a6:f5:e5:c1:49:8e:41:f3:02:56:
         2d:f9:a1:05:ae:b1:d8:30:ba:b3:7d:db:d1:54:25:3b:02:8e:
         c3:6c:7e:2f:ee:8b:f4:0d:c3:45:c0:e5:d5:0f:8a:3d:1d:5f:
         4b:44:2d:9f:7b:97:b9:b7:22:5e:4b:86:01:48:51:bb:fa:2f:
         a0:3a:d0:b8:d6:87:eb:14:dc:c9:7b:be:c5:a1:5f:24:40:3d:
         56:0d:8a:87:99:5a:6f:57:8a:76:23:c2:06:e1:5a:a1:c2:d7:
         07:a4:76:98:ce:27:56:a7:bd:d4:11:f7:d4:fc:15:09:3c:56:
         c6:32:0a:ce:56:36:83:c9:1f:a4:26:be:cc:e5:be:28:a2:66:
         fb:fb:e1:56:3a:e6:47:b2:5a:bf:c1:bf:e8:0e:e5:13:15:9d:
         9b:05:90:74:d8:66:fa:48:aa:2f:30:97:fd:ec:d7:be:2a:1e:
         ed:b9:17:17:58:28:2f:c2:3c:97:e5:fa:04:56:ac:cf:ff:4a:
         06:81:87:f2:8d:8f:14:e6:48:5a:b7:5b:4a:08:fc:04:a0:ec:
         3d:17:3e:d3:0b:0a:dd:e7:19:30:a8:c9:be:78:45:2f:f0:0c:
         91:67:28:69:b2:14:72:46:24:1e:1d:52:e6:6b:7f:71:45:c5:
         6b:c3:d7:5a:88:61:57:2a:26:6b:61:a0:9b:e8:e4:e4:d7:df:
         56:70:10:27:2e:5f
-----BEGIN CERTIFICATE-----
MIIF+TCCBGGgAwIBAgIJAMstgJlaaVJdMA0GCSqGSIb3DQEBCwUAME0xCzAJBgNV
BAYTAlhZMSYwJAYDVQQKDB1QeXRob24gU29mdHdhcmUgRm91bmRhdGlvbiBDQTEW
MBQGA1UEAwwNb3VyLWNhLXNlcnZlcjAgFw0xODA4MjkxNDIzMTZaGA8yNTI1MTAy
ODE0MjMxNlowYjELMAkGA1UEBhMCWFkxFzAVBgNVBAcMDkNhc3RsZSBBbnRocmF4
MSMwIQYDVQQKDBpQeXRob24gU29mdHdhcmUgRm91bmRhdGlvbjEVMBMGA1UEAwwM
ZmFrZWhvc3RuYW1lMIIBojANBgkqhkiG9w0BAQEFAAOCAY8AMIIBigKCAYEA54hU
gVwlvmrSChkuoWKX0iRybhko736CpRj4DVWfKLWKqZhQtCl+6/VzG4Rjt1rYUm5+
851qIRHqUqLgEKwHUmzG9shNth9PWl2E6gBOIveJmOesX0I++V1jvjX5kMjNUST2
niACfI6ySDF8syFYmXa8RnDTCyPrHkGA4xg5ZHgYpzVXSdukfdUXRYSB4o9Ngg7H
sJ7Lgop1MZVI3AtLCQIO6ttAU/YYuOBM5LV9ahFJYoNYbTz0bohg5kkQkkxDMJ6/
kUoKKCNTiXSF7WMoao0TkiD6YUkmQQnQvkAYGCvG4xafTe5A7pEQML1RKYxL9ISi
EAYYVeMF0bwDSMdmtjmN+90xhNKwaDbnUTATSwktXRVe+P/cvq1M7tjHQRoTNbBr
3wCYjMRXla/Vqn6ZAkbFIaXauL0QgOBHA6ss/mzYqAc62QxKuRMujDpHIB7RgqKy
G0rZcwVhrd/hcXq/WgLYejyQxPNoXixjZMJqKGCja3fc49qEV/5t8DeJ0ljXAgMB
AAGjggHDMIIBvzAXBgNVHREEEDAOggxmYWtlaG9zdG5hbWUwDgYDVR0PAQH/BAQD
AgWgMB0GA1UdJQQWMBQGCCsGAQUFBwMBBggrBgEFBQcDAjAMBgNVHRMBAf8EAjAA
MB0GA1UdDgQWBBRmawS8+dFA15ShaP7G3YBjBdcCkjB9BgNVHSMEdjB0gBQf0t2D
R31gB8Oc1bp2pvTUhpt2S6FRpE8wTTELMAkGA1UEBhMCWFkxJjAkBgNVBAoMHVB5
dGhvbiBTb2Z0d2FyZSBGb3VuZGF0aW9uIENBMRYwFAYDVQQDDA1vdXItY2Etc2Vy
dmVyggkAyy2AmVppUlswgYMGCCsGAQUFBwEBBHcwdTA8BggrBgEFBQcwAoYwaHR0
cDovL3Rlc3RjYS5weXRob250ZXN0Lm5ldC90ZXN0Y2EvcHljYWNlcnQuY2VyMDUG
CCsGAQUFBzABhilodHRwOi8vdGVzdGNhLnB5dGhvbnRlc3QubmV0L3Rlc3RjYS9v
Y3NwLzBDBgNVHR8EPDA6MDigNqA0hjJodHRwOi8vdGVzdGNhLnB5dGhvbnRlc3Qu
bmV0L3Rlc3RjYS9yZXZvY2F0aW9uLmNybDANBgkqhkiG9w0BAQsFAAOCAYEAvoF5
1KH16s5wXyL1iCW9KMC3YDrOEyTwaaSlcCqRPzHUhO2UWoNrUGXREL6+tsjOgt/l
vYLpAGKEXb4zvcc89jcavZ2S5aV2ZizS5g6egmkLn2i+d5xuYxm2BzcT4moTaoYB
JmsKh+nM/CuVTpv630RPw+ym9eXBSY5B8wJWLfmhBa6x2DC6s33b0VQlOwKOw2x+
L+6L9A3DRcDl1Q+KPR1fS0Qtn3uXubciXkuGAUhRu/ovoDrQuNaH6xTcyXu+xaFf
JEA9Vg2Kh5lab1eKdiPCBuFaocLXB6R2mM4nVqe91BH31PwVCTxWxjIKzlY2g8kf
pCa+zOW+KKJm+/vhVjrmR7Jav8G/6A7lExWdmwWQdNhm+kiqLzCX/ezXvioe7bkX
F1goL8I8l+X6BFasz/9KBoGH8o2PFOZIWrdbSgj8BKDsPRc+0wsK3ecZMKjJvnhF
L/AMkWcoabIUckYkHh1S5mt/cUXFa8PXWohhVyoma2Ggm+jk5NffVnAQJy5f
-----END CERTIFICATE-----
