-----BEGIN PRIVATE KEY-----
MIIG/QIBADANBgkqhkiG9w0BAQEFAASCBucwggbjAgEAAoIBgQClIK7vtQXmIAoN
hWbT/Il1R++mQuWEHXcx+WNpud4LI3aLxTfGJu+5s/V7uOSnjH7ckoPX6aoSh/oE
CpLn/eCSL6rPAZTQ6Y8sYOLaNlTDXFRT3O4YmB8aDXi8pdw3+px1t+vQPKxC58vz
cOVEM2NTRF2wmSffxcth1GoPZ4ifzPlNqHboJUzhPRxG82+zI3xc6WK0WkuDUco1
5PBOh9+LoDksg59AyJR6LyMWw4jxqKxupncVLVSpxOsHjkIfOSjtTg6ivEXQTyFQ
IjquQRkDXp8qKd6tBm67bAIRbObD68opgRAaPVO7T9aTu0OHlEJodFTHbP0Tc9jq
8MB/VKuG7YdSefsd4h5W0lKtL8i7chlMkh/JTYNJxag0UkBtnbjq9KJWq9zAqE4a
UVmGCw1F0CISsEkejAgPQdq+VmTCUOvcOoFjppDyp3LYkqgCADZowUwaamJP7cii
UY1V0YjgavliNd037ItFtsW1IpDBx+44oGU4mr0s6QBSNjqMcUsCAwEAAQKCAYAj
aww6vCBEyPB/D/MLWyp8rm5XwheKq+tKG8zX+5cF2phtyGJ7LRTURyZLYFAjI/59
/ysqX6MsEGBvB3mVKx5FHNZNSnCKEt6zzSA7X9X0hVRNHKExQ0fAhc004XqHw0hV
85ov8yObwi47zCZQ55jRXmOeImusErfaBv6syS9D32pF3vGKP53q3fm3ujVmPiFJ
qIGUX5280AlIYA+vOHOZdkdtJdo9wgge4QdstYolE2HQ5gG62BtFwsgKudey7MZj
LjpWf+45Pvfmg7o1fpO4LfSYRmsXwrIeMQ5DttHhK34vO9XXzGNqmwLZiGvRDx5f
DQF5759fZRG3/Ha0NJHQTnequIgenuINg29QabCh6mi8+YX2vm8fUQPmD2PJaHp4
+KXTok3E5vJiAPqF774KWgyslTzfcMMJqrr2kssq2xihxyJ4bqowve2YBrNh1FUb
uusayRM9URsTQmZaXuz/XRcSQA8sYYxtCuDQhM6mspcvkSN61XCRVChvSEOR3bEC
gcEA2fP6V/kBgU77jcqsDpRLOSdGNg+aPIIlUbsa7X5rcRtJZ8Nrd04Af4xaKhmr
AeSIf2zIMU8br0asEHMK7son/dmEwmYAWPc62StxxP8HM3jceJn33ID1dYtxZW39
28noY3V+JYWWCAHID2qZTVI5jgfu/uIMSVgQem9LcPDkTstleF1ZxIZqKfx58f0H
0Jv8IzrQrsr4DfD++Jq6uWsnbd79nf+3J/aPADM8KHkia0WMdF6m9JcXLYvJ+zlc
R1kZAoHBAMH0Ax+dWvqReR927CeAMyjww3gCPVVwo4Htbgmh7X3zbSE0mYQP4i0Y
c+8wn4G3rUSzHFl9FbslmN2CxxcVSR1xU5nRT1dIqns9MzCLgN56Ty2jayzqKyB6
Cq4fr+piqxP/J3cGYWXBsKiWuDpt1QuuW1mOucB3d/u42g4m8yLI72/L9WI96oOu
Jzasb/ot4qw88mI9kFlmt6B45GhmnFage1UQXsPgxcDo7HeruPpauB99qI7Y2AwQ
BIqWLQhWAwKBwHoZDcO+wTMZdh7mzSCVvtZTxCeA8hy3pAR3Vwx45+PDL4orlcaO
MgVCMTiojH5Q8o6/+B53fMDiTH4ilJtVMLYq5w6oacVtKtCCYAfF/ti8+nWte4dR
zzB8X5g82BwKrl8ZcQPAJF5z8QmB5EPGrmt80kyDgfKMnR6Zvp+Us7HYjA2z7hgE
XPEMeZww7fHVkJiD2GgzWGcm/Q90TuqUts/8PgQHPynqHA42pZre0YNawOZoKAuZ
oOhpCUvtxF5L8QKBwGabX9em2I28zjZOJMsU8HvVO6POk4IS7/15jYA9ETZTxMUP
XbPW71HqINNGhuwKLvksRHA3U3rJfiCZ4hedJCwWWyMB75Z+k+pUyzMAanHIhQDg
9n8xdxVcWzAZBWjbQCR5FPjMAFTj7kCSU+5dUps2Z49uiWiAC5K5DWr1QiWB5eHg
JfYOSXXWeVpcSXUyNzvllllQtoAFblnP+w4cUtMlXXn4ChpYXGYdE5SP3XFc8xF9
2eGQaGOhSbXDkxlY3wKBwQCNFCaks1/sXG/4t5at72rnuRG4K/zIUPFrmE2hJSd3
JTnV/FUDp50HWCxw/cp3eBmm92L2S5FYxkhcCVo3dfN3w/bKKPzN7J+7OnKMiGsu
437UaZBADuneX6uGCUrwHg7daVtg30fMRp9b3duAWVLGqJ+4D5d8gyFmBKiqUTz+
K/gOuBmAjgnjpxCh5ftz4zesF5G8JyoqTNjxMRfxcOX/lZqGQwGWHtfXo6oYT+px
keL0axhE2TSrmei6olSbbQ0=
-----END PRIVATE KEY-----
Certificate:
    Data:
        Version: 3 (0x2)
        Serial Number:
            cb:2d:80:99:5a:69:52:5d
        Signature Algorithm: sha256WithRSAEncryption
        Issuer: C=XY, O=Python Software Foundation CA, CN=our-ca-server
        Validity
            Not Before: Aug 29 14:23:16 2018 GMT
            Not After : Oct 28 14:23:16 2525 GMT
        Subject: C=XY, L=Castle Anthrax, O=Python Software Foundation, CN=fakehostname
        Subject Public Key Info:
            Public Key Algorithm: rsaEncryption
                Public-Key: (3072 bit)
                Modulus:
                    00:a5:20:ae:ef:b5:05:e6:20:0a:0d:85:66:d3:fc:
                    89:75:47:ef:a6:42:e5:84:1d:77:31:f9:63:69:b9:
                    de:0b:23:76:8b:c5:37:c6:26:ef:b9:b3:f5:7b:b8:
                    e4:a7:8c:7e:dc:92:83:d7:e9:aa:12:87:fa:04:0a:
                    92:e7:fd:e0:92:2f:aa:cf:01:94:d0:e9:8f:2c:60:
                    e2:da:36:54:c3:5c:54:53:dc:ee:18:98:1f:1a:0d:
                    78:bc:a5:dc:37:fa:9c:75:b7:eb:d0:3c:ac:42:e7:
                    cb:f3:70:e5:44:33:63:53:44:5d:b0:99:27:df:c5:
                    cb:61:d4:6a:0f:67:88:9f:cc:f9:4d:a8:76:e8:25:
                    4c:e1:3d:1c:46:f3:6f:b3:23:7c:5c:e9:62:b4:5a:
                    4b:83:51:ca:35:e4:f0:4e:87:df:8b:a0:39:2c:83:
                    9f:40:c8:94:7a:2f:23:16:c3:88:f1:a8:ac:6e:a6:
                    77:15:2d:54:a9:c4:eb:07:8e:42:1f:39:28:ed:4e:
                    0e:a2:bc:45:d0:4f:21:50:22:3a:ae:41:19:03:5e:
                    9f:2a:29:de:ad:06:6e:bb:6c:02:11:6c:e6:c3:eb:
                    ca:29:81:10:1a:3d:53:bb:4f:d6:93:bb:43:87:94:
                    42:68:74:54:c7:6c:fd:13:73:d8:ea:f0:c0:7f:54:
                    ab:86:ed:87:52:79:fb:1d:e2:1e:56:d2:52:ad:2f:
                    c8:bb:72:19:4c:92:1f:c9:4d:83:49:c5:a8:34:52:
                    40:6d:9d:b8:ea:f4:a2:56:ab:dc:c0:a8:4e:1a:51:
                    59:86:0b:0d:45:d0:22:12:b0:49:1e:8c:08:0f:41:
                    da:be:56:64:c2:50:eb:dc:3a:81:63:a6:90:f2:a7:
                    72:d8:92:a8:02:00:36:68:c1:4c:1a:6a:62:4f:ed:
                    c8:a2:51:8d:55:d1:88:e0:6a:f9:62:35:dd:37:ec:
                    8b:45:b6:c5:b5:22:90:c1:c7:ee:38:a0:65:38:9a:
                    bd:2c:e9:00:52:36:3a:8c:71:4b
                Exponent: 65537 (0x10001)
        X509v3 extensions:
            X509v3 Subject Alternative Name: 
                DNS:fakehostname
            X509v3 Key Usage: critical
                Digital Signature, Key Encipherment
            X509v3 Extended Key Usage: 
                TLS Web Server Authentication, TLS Web Client Authentication
            X509v3 Basic Constraints: critical
                CA:FALSE
            X509v3 Subject Key Identifier: 
                B4:98:DE:28:8D:AD:76:49:DA:1B:F6:36:70:5F:C5:E2:2B:CC:04:C3
            X509v3 Authority Key Identifier: 
                keyid:B6:58:71:40:A1:55:C5:4E:2E:65:84:44:A4:C6:5B:B6:44:9B:D9:E0
                DirName:/C=XY/O=Python Software Foundation CA/CN=our-ca-server
                serial:CB:2D:80:99:5A:69:52:5B
            Authority Information Access: 
                CA Issuers - URI:http://testca.pythontest.net/testca/pycacert.cer
                OCSP - URI:http://testca.pythontest.net/testca/ocsp/
            X509v3 CRL Distribution Points: 
                Full Name:
                  URI:http://testca.pythontest.net/testca/revocation.crl
    Signature Algorithm: sha256WithRSAEncryption
    Signature Value:
        78:31:30:56:3a:8d:7c:d1:79:49:2f:ed:00:db:92:70:a9:c8:
        28:49:2c:fe:fd:7f:2c:12:24:85:fb:85:5b:c4:e7:56:f5:c7:
        71:eb:91:af:f3:3f:fa:33:1f:63:e6:f5:c6:46:a0:ef:d4:61:
        cd:c3:2b:8d:2e:9a:db:1c:4f:cf:47:68:7a:5b:26:79:3e:1b:
        e2:18:98:b0:e5:dd:9c:7b:2a:a4:82:d5:95:65:73:b0:9a:65:
        27:60:fc:e5:da:f3:c4:ee:b3:99:86:77:f4:7c:a6:e9:43:2b:
        07:7c:bb:46:15:7d:56:7b:42:1e:af:61:b5:a3:cb:20:78:d8:
        44:05:9d:6d:64:c9:41:12:a5:e2:6b:ab:f2:00:7e:c4:eb:ad:
        c7:4f:31:45:22:92:cd:1a:66:a7:b0:73:77:1c:fc:0f:61:6c:
        f7:12:4b:12:a0:1e:ea:5c:60:f1:71:55:5e:db:e2:4a:a9:8c:
        0b:1f:61:cb:e1:b1:aa:11:2b:f7:40:54:5a:89:00:ed:6a:ce:
        e3:fa:6d:f8:57:c2:91:76:5d:a3:4b:cf:3c:91:a7:79:82:ba:
        e5:3c:d5:6e:97:41:41:3e:ef:57:c5:6c:6e:fa:d5:da:08:91:
        9f:4e:9c:e2:96:31:33:a7:a4:48:9f:9d:5b:ec:dc:40:fd:7e:
        cf:ce:a3:17:3a:f9:51:bc:00:d9:2c:d2:33:95:cb:09:f9:ae:
        fe:b9:21:32:78:70:2a:9b:73:95:ff:61:23:7b:53:b5:00:69:
        81:33:4d:63:70:8d:e4:c5:d5:f2:bf:b5:dd:02:c2:14:45:54:
        51:ca:06:33:58:48:60:ab:b2:27:d5:55:0b:4d:d4:6b:4b:6f:
        fc:f7:66:80:36:f5:8a:15:68:16:3b:9a:72:00:13:6e:44:4f:
        54:4c:51:f9:8a:81:7d:e9:cd:44:1d:72:2e:7e:5a:25:29:84:
        64:1e:1c:ec:64:b8:2a:e4:30:29:11:3d:48:17:12:41:ef:1c:
        03:b3:fd:54:6d:52
-----BEGIN CERTIFICATE-----
MIIF+TCCBGGgAwIBAgIJAMstgJlaaVJdMA0GCSqGSIb3DQEBCwUAME0xCzAJBgNV
BAYTAlhZMSYwJAYDVQQKDB1QeXRob24gU29mdHdhcmUgRm91bmRhdGlvbiBDQTEW
MBQGA1UEAwwNb3VyLWNhLXNlcnZlcjAgFw0xODA4MjkxNDIzMTZaGA8yNTI1MTAy
ODE0MjMxNlowYjELMAkGA1UEBhMCWFkxFzAVBgNVBAcMDkNhc3RsZSBBbnRocmF4
MSMwIQYDVQQKDBpQeXRob24gU29mdHdhcmUgRm91bmRhdGlvbjEVMBMGA1UEAwwM
ZmFrZWhvc3RuYW1lMIIBojANBgkqhkiG9w0BAQEFAAOCAY8AMIIBigKCAYEApSCu
77UF5iAKDYVm0/yJdUfvpkLlhB13MfljabneCyN2i8U3xibvubP1e7jkp4x+3JKD
1+mqEof6BAqS5/3gki+qzwGU0OmPLGDi2jZUw1xUU9zuGJgfGg14vKXcN/qcdbfr
0DysQufL83DlRDNjU0RdsJkn38XLYdRqD2eIn8z5Tah26CVM4T0cRvNvsyN8XOli
tFpLg1HKNeTwToffi6A5LIOfQMiUei8jFsOI8aisbqZ3FS1UqcTrB45CHzko7U4O
orxF0E8hUCI6rkEZA16fKinerQZuu2wCEWzmw+vKKYEQGj1Tu0/Wk7tDh5RCaHRU
x2z9E3PY6vDAf1Srhu2HUnn7HeIeVtJSrS/Iu3IZTJIfyU2DScWoNFJAbZ246vSi
VqvcwKhOGlFZhgsNRdAiErBJHowID0HavlZkwlDr3DqBY6aQ8qdy2JKoAgA2aMFM
GmpiT+3IolGNVdGI4Gr5YjXdN+yLRbbFtSKQwcfuOKBlOJq9LOkAUjY6jHFLAgMB
AAGjggHDMIIBvzAXBgNVHREEEDAOggxmYWtlaG9zdG5hbWUwDgYDVR0PAQH/BAQD
AgWgMB0GA1UdJQQWMBQGCCsGAQUFBwMBBggrBgEFBQcDAjAMBgNVHRMBAf8EAjAA
MB0GA1UdDgQWBBS0mN4oja12Sdob9jZwX8XiK8wEwzB9BgNVHSMEdjB0gBS2WHFA
oVXFTi5lhESkxlu2RJvZ4KFRpE8wTTELMAkGA1UEBhMCWFkxJjAkBgNVBAoMHVB5
dGhvbiBTb2Z0d2FyZSBGb3VuZGF0aW9uIENBMRYwFAYDVQQDDA1vdXItY2Etc2Vy
dmVyggkAyy2AmVppUlswgYMGCCsGAQUFBwEBBHcwdTA8BggrBgEFBQcwAoYwaHR0
cDovL3Rlc3RjYS5weXRob250ZXN0Lm5ldC90ZXN0Y2EvcHljYWNlcnQuY2VyMDUG
CCsGAQUFBzABhilodHRwOi8vdGVzdGNhLnB5dGhvbnRlc3QubmV0L3Rlc3RjYS9v
Y3NwLzBDBgNVHR8EPDA6MDigNqA0hjJodHRwOi8vdGVzdGNhLnB5dGhvbnRlc3Qu
bmV0L3Rlc3RjYS9yZXZvY2F0aW9uLmNybDANBgkqhkiG9w0BAQsFAAOCAYEAeDEw
VjqNfNF5SS/tANuScKnIKEks/v1/LBIkhfuFW8TnVvXHceuRr/M/+jMfY+b1xkag
79RhzcMrjS6a2xxPz0doelsmeT4b4hiYsOXdnHsqpILVlWVzsJplJ2D85drzxO6z
mYZ39Hym6UMrB3y7RhV9VntCHq9htaPLIHjYRAWdbWTJQRKl4mur8gB+xOutx08x
RSKSzRpmp7Bzdxz8D2Fs9xJLEqAe6lxg8XFVXtviSqmMCx9hy+GxqhEr90BUWokA
7WrO4/pt+FfCkXZdo0vPPJGneYK65TzVbpdBQT7vV8VsbvrV2giRn06c4pYxM6ek
SJ+dW+zcQP1+z86jFzr5UbwA2SzSM5XLCfmu/rkhMnhwKptzlf9hI3tTtQBpgTNN
Y3CN5MXV8r+13QLCFEVUUcoGM1hIYKuyJ9VVC03Ua0tv/PdmgDb1ihVoFjuacgAT
bkRPVExR+YqBfenNRB1yLn5aJSmEZB4c7GS4KuQwKRE9SBcSQe8cA7P9VG1S
-----END CERTIFICATE-----
