-----BEGIN PRIVATE KEY-----
MIIG/gIBADANBgkqhkiG9w0BAQEFAASCBugwggbkAgEAAoIBgQDuNnCqYWoguzKI
B3PwOsoRzI8wgNdxx3RiIJSItFISlAgB4XkYzPBpi5nFR8GCqq7IUQQ+iYwdZa3y
H6X11IdlrCx4gDdQFSFOegnG41oqv7GwBEFvq6xlowpoaGw+5/8/sJX/VU44rL9/
fiMVTbehMhMS/z5nTSYSACV7sRXnwW4T6l2Od77FzPBjnaFFDNr5GIoiD4mNSJ35
t05tliGcz0IyE5TGR6kIEFNIH5theHoJJ4JC4uLyWJweJpxDx10njWRwKN/tXm8F
nHQPMRAUl2wM07QZEI1yfzUr00/oG2dpPnPyNh+6p2ld8JS0g2/Pd2pQL8OtmM2c
DcN5E+qCEW1UVIJ5//ad8pUcoQwyRIBROJbakqv6FcVTdgTogoq5Vu+T6TVFLSIS
vVvpsV0MtT/H9/9TtCnqOwliE8s8kb3NjQT8e72VHNd43bVPE4DeQ+XlbMoKzV+G
OmSHSfzSOZB9kScSmGd5YD8783TbL8/7Nn1ERQdWqaixGI36+BECAwEAAQKCAYBV
Ubhevg9V89ZwdELpSxUu9NZgZ/VCck7UCplIsVUoBE8t5UULRfPhybdkuoOrulhp
tOLRR1ChAtcffohhmSJ5nwY6jqnBDCBmzD0OOEYGQ6xvv8Z0KcfQi2nh5WzHxy5b
8HJ5BmPC1tSr5FDKg5B+ssG0Lyl5tF8rWVQTjmSrIlO73Fhv+6GflPyQoVeutKEF
UO3Ar1H0AYtbcnUruPcHBBDQgMTrk6UOF1LM5U0wxwbmmnkEXeEtLeGUxv13JUMe
QTrSw0P+hn5uiDMwY5lI212ayorbwyNuzU0hGW7j98qa/S9MVSeRwv4bsbtBqwtT
ZVGL2TogjeJ+8+qDlv5tf3crD1pV0yu7uVUeIGrJZJdiiMM6N7/x3cIJtrLDaF1w
9kUqdQGWDWwRV3w0FaeXDVlUTJ3VFTZIinLo1Vmd3AXLn97eVy+68DWD6ELlMkfF
ro3bQbQu59DGswDF9+mMauhgvljnxY/wUnkyp8LGZt8w/RU/op8LcvPKFjQfX6UC
gcEA/RClguU/JTWQSF4Vjy5+DmrzSCXabrO7986lkOwPXEaXLsF2pGOU+sbxffXZ
PCQ4zU6aNYBMtNWLrVqBrPnI78XZQbmSG7zUDxWwmr1ttuSHGthdaZUVTOsFsnpE
R+1lj20G2T2ankzv0ICFz7BWyaYwyzDrABwuP189b3juuX6xGLlCO25/AnK+iTXQ
WF4ZURZiwDg4WpxvPsE2FFglN09TtDDCeQw/zv7Jh6jWtHZfivfv/wR8ILu72gde
LdinAoHBAPD5slojp2St6iWTaxcYYBc+4x+Rv7oyxeAyM/00iIAnf19oaAw3jki1
yz6zeNnhaZuwa6ruvhJAESPc+pXkmoPpQ1yIRjKZc3jPVoaxYuSPgUEbHV6BQbjD
clIoGkC6ISsjanMq8Z3pK7e2bxY4mxGRQIFSFnTeK8m8nzq5dYisVtxxJFnV2fDG
NWDMdDYBh52vpkPjnm5OoOuilkEH2ygtZlT6bKAbnhi/FVjYCHk46inaYx8PakMu
LnvZI0OIhwKBwBGzYGBPeKM5o+Xr7sYdEmQfxvR88VJc8ADdS2dfm5NwvJJgpdPJ
w1nnIG0XDSLPxclWfiLP3o2ngiWV9wwKTKu4wwF94WJfStXjRn8MUOhCA9E04RPJ
gbvnlHZvZudBC6GElr4LOQ1phDypQLLOOsPQBAmyWj2fuvxjxQBPDSOcYPbBvog5
qliZfgpK4U/NBShO0IlxZT+xQXa6PPYfVDsSKWCpKHEfEjeASshaXuowfW5S+U51
GdmQSAtwCH5ccQKBwQCOLgW5gYfms2aPvSdWfR9VF9nSaqCBMCvoWDasky5mzucs
V+HsM2tUI09EM4h+pa02GyWruSmUgxCZ5GxFvJgedKc2FYG1oSysf0lCN69tw+4z
h9gQRpuMdGUjbF3xCuE/HqpUQWZGEamlv5JTvhpghx9ULibp1Zxob05Ty9E5TtYB
QxB7oN3yXkBoWLnIk6Z8t4KWU9rKosH3xfp5bDU2w3K5ePhWj3T8jOH/hZeaTqZ7
A0uwq9u6v6jVkgxocEkCgcEAhyMPyiMqqq55qD6JlPY4zf4mWQJS4MnmWexH/5N1
a6uogerwZnIjuH0/wNc2qzQSOwVJRqjlxRZbEkWST0JK/meXZ+e0nqaROWICutO6
ciIf2wVjTzn1f85DHwPhUf3P2zIfpVFh+XuvSb32J+pzNwK40gMhirYMDSbsm/RQ
JrJHQwEX9BvI6IP5kaMOMlSwiG3Soo3MxeJWmozkz09+cs7BwMFsUKOdqruJHSaw
/Q06DQ9u9UyjmLyKv3IkN/cK
-----END PRIVATE KEY-----
Certificate:
    Data:
        Version: 3 (0x2)
        Serial Number:
            cb:2d:80:99:5a:69:52:5c
        Signature Algorithm: sha256WithRSAEncryption
        Issuer: C=XY, O=Python Software Foundation CA, CN=our-ca-server
        Validity
            Not Before: Aug 29 14:23:16 2018 GMT
            Not After : Oct 28 14:23:16 2525 GMT
        Subject: C=XY, L=Castle Anthrax, O=Python Software Foundation, CN=localhost
        Subject Public Key Info:
            Public Key Algorithm: rsaEncryption
                Public-Key: (3072 bit)
                Modulus:
                    00:ee:36:70:aa:61:6a:20:bb:32:88:07:73:f0:3a:
                    ca:11:cc:8f:30:80:d7:71:c7:74:62:20:94:88:b4:
                    52:12:94:08:01:e1:79:18:cc:f0:69:8b:99:c5:47:
                    c1:82:aa:ae:c8:51:04:3e:89:8c:1d:65:ad:f2:1f:
                    a5:f5:d4:87:65:ac:2c:78:80:37:50:15:21:4e:7a:
                    09:c6:e3:5a:2a:bf:b1:b0:04:41:6f:ab:ac:65:a3:
                    0a:68:68:6c:3e:e7:ff:3f:b0:95:ff:55:4e:38:ac:
                    bf:7f:7e:23:15:4d:b7:a1:32:13:12:ff:3e:67:4d:
                    26:12:00:25:7b:b1:15:e7:c1:6e:13:ea:5d:8e:77:
                    be:c5:cc:f0:63:9d:a1:45:0c:da:f9:18:8a:22:0f:
                    89:8d:48:9d:f9:b7:4e:6d:96:21:9c:cf:42:32:13:
                    94:c6:47:a9:08:10:53:48:1f:9b:61:78:7a:09:27:
                    82:42:e2:e2:f2:58:9c:1e:26:9c:43:c7:5d:27:8d:
                    64:70:28:df:ed:5e:6f:05:9c:74:0f:31:10:14:97:
                    6c:0c:d3:b4:19:10:8d:72:7f:35:2b:d3:4f:e8:1b:
                    67:69:3e:73:f2:36:1f:ba:a7:69:5d:f0:94:b4:83:
                    6f:cf:77:6a:50:2f:c3:ad:98:cd:9c:0d:c3:79:13:
                    ea:82:11:6d:54:54:82:79:ff:f6:9d:f2:95:1c:a1:
                    0c:32:44:80:51:38:96:da:92:ab:fa:15:c5:53:76:
                    04:e8:82:8a:b9:56:ef:93:e9:35:45:2d:22:12:bd:
                    5b:e9:b1:5d:0c:b5:3f:c7:f7:ff:53:b4:29:ea:3b:
                    09:62:13:cb:3c:91:bd:cd:8d:04:fc:7b:bd:95:1c:
                    d7:78:dd:b5:4f:13:80:de:43:e5:e5:6c:ca:0a:cd:
                    5f:86:3a:64:87:49:fc:d2:39:90:7d:91:27:12:98:
                    67:79:60:3f:3b:f3:74:db:2f:cf:fb:36:7d:44:45:
                    07:56:a9:a8:b1:18:8d:fa:f8:11
                Exponent: 65537 (0x10001)
        X509v3 extensions:
            X509v3 Subject Alternative Name: 
                DNS:localhost
            X509v3 Key Usage: critical
                Digital Signature, Key Encipherment
            X509v3 Extended Key Usage: 
                TLS Web Server Authentication, TLS Web Client Authentication
            X509v3 Basic Constraints: critical
                CA:FALSE
            X509v3 Subject Key Identifier: 
                16:22:C9:AA:20:D4:F4:8E:ED:9C:A6:BB:23:F5:F2:29:44:ED:F2:1E
            X509v3 Authority Key Identifier: 
                keyid:C0:0A:2B:28:43:DE:5F:C9:7D:47:E5:47:9B:36:F2:65:8C:67:3B:E2
                DirName:/C=XY/O=Python Software Foundation CA/CN=our-ca-server
                serial:CB:2D:80:99:5A:69:52:5B
            Authority Information Access: 
                CA Issuers - URI:http://testca.pythontest.net/testca/pycacert.cer
                OCSP - URI:http://testca.pythontest.net/testca/ocsp/
            X509v3 CRL Distribution Points: 
                Full Name:
                  URI:http://testca.pythontest.net/testca/revocation.crl
    Signature Algorithm: sha256WithRSAEncryption
    Signature Value:
        43:82:1f:18:b4:cb:7a:b7:4e:ac:c3:65:2e:b7:57:3a:f0:78:
        b3:b2:20:3e:bd:7b:24:f7:e7:17:cc:62:c0:b8:63:f0:2e:30:
        0c:54:be:c9:94:7c:54:d4:40:06:6e:92:9d:72:2c:44:f5:e3:
        c1:4a:3f:26:e4:21:ca:ba:ef:4f:a3:50:56:ee:89:5c:dc:5b:
        98:bc:0c:e9:db:16:98:f0:4c:3f:65:b9:d9:e0:2e:bd:83:9e:
        c7:1b:f7:4f:87:5f:75:ff:67:5d:0a:ff:ce:fa:0b:f1:d5:8b:
        58:23:2b:92:27:b8:15:ff:66:c2:f9:68:e2:ed:64:a0:4a:e0:
        42:8b:ac:35:6a:67:64:f5:cb:a9:00:37:20:56:dd:3a:02:6e:
        d8:0f:b4:5d:ff:92:a3:0d:65:fc:2e:ab:4e:37:bc:7e:d6:5b:
        1c:55:78:a0:6e:a9:2e:55:31:cf:61:f0:1b:4c:fe:fe:60:75:
        76:e8:d9:a1:f5:14:f0:43:33:4d:52:05:be:33:ff:da:31:94:
        bd:0d:e5:4d:a8:ee:d1:f3:92:34:c2:36:91:37:3a:6d:ec:20:
        df:b3:9e:a2:5d:d0:f0:a1:e2:ff:b7:85:ce:09:e3:c8:4a:6a:
        93:a4:ae:ec:c1:67:42:f7:8e:2f:64:ca:d7:76:72:bf:3f:ef:
        64:ff:10:dd:a2:3e:2d:f5:aa:02:cf:31:f0:6d:93:6b:56:4c:
        b0:88:95:54:dc:d4:ac:dc:c1:88:27:8b:d9:9c:4e:66:93:f8:
        dd:5e:74:41:26:9a:ef:e8:c8:46:5c:d5:f4:fc:cd:cc:67:c7:
        33:62:2e:70:9b:d1:39:de:34:fd:ad:9d:b9:48:61:e7:89:53:
        62:62:f0:40:6c:68:2f:e1:da:40:61:2a:50:af:c9:41:6d:98:
        16:af:cb:63:03:ec:04:99:e0:39:98:60:ae:aa:6a:57:9b:25:
        73:03:16:bf:78:c8:d7:2f:eb:fc:64:7f:c7:78:8c:34:15:5b:
        66:40:98:86:e6:0a
-----BEGIN CERTIFICATE-----
MIIF8zCCBFugAwIBAgIJAMstgJlaaVJcMA0GCSqGSIb3DQEBCwUAME0xCzAJBgNV
BAYTAlhZMSYwJAYDVQQKDB1QeXRob24gU29mdHdhcmUgRm91bmRhdGlvbiBDQTEW
MBQGA1UEAwwNb3VyLWNhLXNlcnZlcjAgFw0xODA4MjkxNDIzMTZaGA8yNTI1MTAy
ODE0MjMxNlowXzELMAkGA1UEBhMCWFkxFzAVBgNVBAcMDkNhc3RsZSBBbnRocmF4
MSMwIQYDVQQKDBpQeXRob24gU29mdHdhcmUgRm91bmRhdGlvbjESMBAGA1UEAwwJ
bG9jYWxob3N0MIIBojANBgkqhkiG9w0BAQEFAAOCAY8AMIIBigKCAYEA7jZwqmFq
ILsyiAdz8DrKEcyPMIDXccd0YiCUiLRSEpQIAeF5GMzwaYuZxUfBgqquyFEEPomM
HWWt8h+l9dSHZawseIA3UBUhTnoJxuNaKr+xsARBb6usZaMKaGhsPuf/P7CV/1VO
OKy/f34jFU23oTITEv8+Z00mEgAle7EV58FuE+pdjne+xczwY52hRQza+RiKIg+J
jUid+bdObZYhnM9CMhOUxkepCBBTSB+bYXh6CSeCQuLi8licHiacQ8ddJ41kcCjf
7V5vBZx0DzEQFJdsDNO0GRCNcn81K9NP6BtnaT5z8jYfuqdpXfCUtINvz3dqUC/D
rZjNnA3DeRPqghFtVFSCef/2nfKVHKEMMkSAUTiW2pKr+hXFU3YE6IKKuVbvk+k1
RS0iEr1b6bFdDLU/x/f/U7Qp6jsJYhPLPJG9zY0E/Hu9lRzXeN21TxOA3kPl5WzK
Cs1fhjpkh0n80jmQfZEnEphneWA/O/N02y/P+zZ9REUHVqmosRiN+vgRAgMBAAGj
ggHAMIIBvDAUBgNVHREEDTALgglsb2NhbGhvc3QwDgYDVR0PAQH/BAQDAgWgMB0G
A1UdJQQWMBQGCCsGAQUFBwMBBggrBgEFBQcDAjAMBgNVHRMBAf8EAjAAMB0GA1Ud
DgQWBBQWIsmqINT0ju2cprsj9fIpRO3yHjB9BgNVHSMEdjB0gBTACisoQ95fyX1H
5UebNvJljGc74qFRpE8wTTELMAkGA1UEBhMCWFkxJjAkBgNVBAoMHVB5dGhvbiBT
b2Z0d2FyZSBGb3VuZGF0aW9uIENBMRYwFAYDVQQDDA1vdXItY2Etc2VydmVyggkA
yy2AmVppUlswgYMGCCsGAQUFBwEBBHcwdTA8BggrBgEFBQcwAoYwaHR0cDovL3Rl
c3RjYS5weXRob250ZXN0Lm5ldC90ZXN0Y2EvcHljYWNlcnQuY2VyMDUGCCsGAQUF
BzABhilodHRwOi8vdGVzdGNhLnB5dGhvbnRlc3QubmV0L3Rlc3RjYS9vY3NwLzBD
BgNVHR8EPDA6MDigNqA0hjJodHRwOi8vdGVzdGNhLnB5dGhvbnRlc3QubmV0L3Rl
c3RjYS9yZXZvY2F0aW9uLmNybDANBgkqhkiG9w0BAQsFAAOCAYEAQ4IfGLTLerdO
rMNlLrdXOvB4s7IgPr17JPfnF8xiwLhj8C4wDFS+yZR8VNRABm6SnXIsRPXjwUo/
JuQhyrrvT6NQVu6JXNxbmLwM6dsWmPBMP2W52eAuvYOexxv3T4dfdf9nXQr/zvoL
8dWLWCMrkie4Ff9mwvlo4u1koErgQousNWpnZPXLqQA3IFbdOgJu2A+0Xf+Sow1l
/C6rTje8ftZbHFV4oG6pLlUxz2HwG0z+/mB1dujZofUU8EMzTVIFvjP/2jGUvQ3l
Taju0fOSNMI2kTc6bewg37Oeol3Q8KHi/7eFzgnjyEpqk6Su7MFnQveOL2TK13Zy
vz/vZP8Q3aI+LfWqAs8x8G2Ta1ZMsIiVVNzUrNzBiCeL2ZxOZpP43V50QSaa7+jI
RlzV9PzNzGfHM2IucJvROd40/a2duUhh54lTYmLwQGxoL+HaQGEqUK/JQW2YFq/L
YwPsBJngOZhgrqpqV5slcwMWv3jI1y/r/GR/x3iMNBVbZkCYhuYK
-----END CERTIFICATE-----
