-----BEGIN PRIVATE KEY-----
MIG2AgEAMBAGByqGSM49AgEGBSuBBAAiBIGeMIGbAgEBBDADfo1pdRy1cknurgP+
u7QMhK5xUoQWWiDPdVmUTZrQCc9Ml+4lXvmAlNqyxODpqxmhZANiAAQlvCuyGg/t
9cE1A7bA5sse42hR5AKhB4ulMBMa7PkkoAym/f/n/dF64abgByFS9dpkIxdGmhKA
JLMuIhhK/tmx90c4YrtfXr4kwTxJSJWN771780j0/wfU+do8pT8m6Sk=
-----END PRIVATE KEY-----
Certificate:
    Data:
        Version: 3 (0x2)
        Serial Number:
            cb:2d:80:99:5a:69:52:5e
        Signature Algorithm: sha256WithRSAEncryption
        Issuer: C=XY, O=Python Software Foundation CA, CN=our-ca-server
        Validity
            Not Before: Aug 29 14:23:16 2018 GMT
            Not After : Oct 28 14:23:16 2037 GMT
        Subject: C=XY, L=Castle Anthrax, O=Python Software Foundation, CN=localhost-ecc
        Subject Public Key Info:
            Public Key Algorithm: id-ecPublicKey
                Public-Key: (384 bit)
                pub:
                    04:25:bc:2b:b2:1a:0f:ed:f5:c1:35:03:b6:c0:e6:
                    cb:1e:e3:68:51:e4:02:a1:07:8b:a5:30:13:1a:ec:
                    f9:24:a0:0c:a6:fd:ff:e7:fd:d1:7a:e1:a6:e0:07:
                    21:52:f5:da:64:23:17:46:9a:12:80:24:b3:2e:22:
                    18:4a:fe:d9:b1:f7:47:38:62:bb:5f:5e:be:24:c1:
                    3c:49:48:95:8d:ef:bd:7b:f3:48:f4:ff:07:d4:f9:
                    da:3c:a5:3f:26:e9:29
                ASN1 OID: secp384r1
                NIST CURVE: P-384
        X509v3 extensions:
            X509v3 Subject Alternative Name: 
                DNS:localhost-ecc
            X509v3 Key Usage: critical
                Digital Signature, Key Encipherment
            X509v3 Extended Key Usage: 
                TLS Web Server Authentication, TLS Web Client Authentication
            X509v3 Basic Constraints: critical
                CA:FALSE
            X509v3 Subject Key Identifier: 
                41:35:A1:ED:19:42:0E:B3:98:22:FF:0A:0B:92:76:B2:30:E5:E1:F4
            X509v3 Authority Key Identifier: 
                keyid:B4:91:DA:7B:B6:9A:66:F5:39:93:E1:9F:AD:46:4C:51:8E:60:F8:E8
                DirName:/C=XY/O=Python Software Foundation CA/CN=our-ca-server
                serial:CB:2D:80:99:5A:69:52:5B
            Authority Information Access: 
                CA Issuers - URI:http://testca.pythontest.net/testca/pycacert.cer
                OCSP - URI:http://testca.pythontest.net/testca/ocsp/
            X509v3 CRL Distribution Points: 
                Full Name:
                  URI:http://testca.pythontest.net/testca/revocation.crl
    Signature Algorithm: sha256WithRSAEncryption
    Signature Value:
        8a:d5:c2:f6:97:05:6d:63:e5:38:0d:78:8f:f0:a1:b3:28:fa:
        ca:2e:46:8f:30:3b:34:9d:3f:4d:fe:95:98:6c:03:02:6f:3d:
        e6:18:85:73:56:e5:93:ed:c8:53:6d:86:01:b0:33:40:95:54:
        87:1e:6f:d6:b4:75:da:c9:10:4e:d2:59:5a:70:cb:03:5b:06:
        28:88:bd:42:f6:28:54:b0:94:c4:2b:e6:6d:9a:1a:fb:43:c8:
        07:c5:e2:9b:ba:d3:da:8c:02:4b:0e:0e:60:f6:33:df:96:49:
        a2:30:b7:b4:99:56:5b:a1:d4:cc:4a:6f:9f:f1:33:1a:99:34:
        e3:97:bb:30:3c:e5:f0:87:04:5d:4c:3e:f9:d7:b9:4a:be:9e:
        80:f0:60:f2:d2:b5:0f:01:47:8c:30:91:6b:c6:7a:91:76:57:
        93:28:3d:39:89:a8:ad:0d:75:33:91:86:fd:1a:99:d9:ce:47:
        c2:2d:6e:7b:93:f5:14:67:8c:6d:19:d6:e4:9a:a8:92:91:85:
        03:c8:4d:3c:b6:a9:7f:30:b0:52:a3:8b:3e:f9:76:18:26:a5:
        77:aa:f2:26:40:e3:4e:7d:df:17:8d:f0:c4:37:5c:45:b3:87:
        83:3e:f1:18:2a:b5:cf:34:9c:04:42:cd:69:aa:21:41:3f:4b:
        b1:c4:96:27:1d:a2:ac:97:73:fe:e6:b1:bc:a9:98:21:56:01:
        e1:55:7a:0d:48:6f:9e:fd:98:0b:e5:1d:a3:a6:88:71:af:e2:
        48:94:ed:9e:36:27:6f:9c:61:a5:7b:73:51:b9:6f:a6:f2:e0:
        12:17:dd:e7:11:a0:a9:8c:a7:50:0b:06:17:79:53:83:05:3a:
        82:d9:1d:f6:d0:79:b5:d6:00:85:34:bf:82:fc:c3:42:3a:ab:
        75:b5:11:0d:c9:72:ec:22:66:ce:88:ce:53:d7:c2:9c:31:04:
        e7:0d:42:e3:84:45:4a:f8:7a:93:26:fd:d8:fa:36:83:e4:dc:
        a7:96:e3:96:25:6f
-----BEGIN CERTIFICATE-----
MIIEyzCCAzOgAwIBAgIJAMstgJlaaVJeMA0GCSqGSIb3DQEBCwUAME0xCzAJBgNV
BAYTAlhZMSYwJAYDVQQKDB1QeXRob24gU29mdHdhcmUgRm91bmRhdGlvbiBDQTEW
MBQGA1UEAwwNb3VyLWNhLXNlcnZlcjAeFw0xODA4MjkxNDIzMTZaFw0zNzEwMjgx
NDIzMTZaMGMxCzAJBgNVBAYTAlhZMRcwFQYDVQQHDA5DYXN0bGUgQW50aHJheDEj
MCEGA1UECgwaUHl0aG9uIFNvZnR3YXJlIEZvdW5kYXRpb24xFjAUBgNVBAMMDWxv
Y2FsaG9zdC1lY2MwdjAQBgcqhkjOPQIBBgUrgQQAIgNiAAQlvCuyGg/t9cE1A7bA
5sse42hR5AKhB4ulMBMa7PkkoAym/f/n/dF64abgByFS9dpkIxdGmhKAJLMuIhhK
/tmx90c4YrtfXr4kwTxJSJWN771780j0/wfU+do8pT8m6SmjggHEMIIBwDAYBgNV
HREEETAPgg1sb2NhbGhvc3QtZWNjMA4GA1UdDwEB/wQEAwIFoDAdBgNVHSUEFjAU
BggrBgEFBQcDAQYIKwYBBQUHAwIwDAYDVR0TAQH/BAIwADAdBgNVHQ4EFgQUQTWh
7RlCDrOYIv8KC5J2sjDl4fQwfQYDVR0jBHYwdIAUtJHae7aaZvU5k+GfrUZMUY5g
+OihUaRPME0xCzAJBgNVBAYTAlhZMSYwJAYDVQQKDB1QeXRob24gU29mdHdhcmUg
Rm91bmRhdGlvbiBDQTEWMBQGA1UEAwwNb3VyLWNhLXNlcnZlcoIJAMstgJlaaVJb
MIGDBggrBgEFBQcBAQR3MHUwPAYIKwYBBQUHMAKGMGh0dHA6Ly90ZXN0Y2EucHl0
aG9udGVzdC5uZXQvdGVzdGNhL3B5Y2FjZXJ0LmNlcjA1BggrBgEFBQcwAYYpaHR0
cDovL3Rlc3RjYS5weXRob250ZXN0Lm5ldC90ZXN0Y2Evb2NzcC8wQwYDVR0fBDww
OjA4oDagNIYyaHR0cDovL3Rlc3RjYS5weXRob250ZXN0Lm5ldC90ZXN0Y2EvcmV2
b2NhdGlvbi5jcmwwDQYJKoZIhvcNAQELBQADggGBAIrVwvaXBW1j5TgNeI/wobMo
+souRo8wOzSdP03+lZhsAwJvPeYYhXNW5ZPtyFNthgGwM0CVVIceb9a0ddrJEE7S
WVpwywNbBiiIvUL2KFSwlMQr5m2aGvtDyAfF4pu609qMAksODmD2M9+WSaIwt7SZ
Vluh1MxKb5/xMxqZNOOXuzA85fCHBF1MPvnXuUq+noDwYPLStQ8BR4wwkWvGepF2
V5MoPTmJqK0NdTORhv0amdnOR8ItbnuT9RRnjG0Z1uSaqJKRhQPITTy2qX8wsFKj
iz75dhgmpXeq8iZA40593xeN8MQ3XEWzh4M+8Rgqtc80nARCzWmqIUE/S7HElicd
oqyXc/7msbypmCFWAeFVeg1Ib579mAvlHaOmiHGv4kiU7Z42J2+cYaV7c1G5b6by
4BIX3ecRoKmMp1ALBhd5U4MFOoLZHfbQebXWAIU0v4L8w0I6q3W1EQ3JcuwiZs6I
zlPXwpwxBOcNQuOERUr4epMm/dj6NoPk3KeW45Ylbw==
-----END CERTIFICATE-----
