-----BEGIN PRIVATE KEY-----
MIIG/QIBADANBgkqhkiG9w0BAQEFAASCBucwggbjAgEAAoIBgQCV5Izyi2TzdpW6
I8WKoNnAU6qIVocTImin7SdVT0LIHYqukU+UZZuLlVAafU3wIOuE4AT6/wBsrEY8
628sBuQ7pUipKK5qb79nTZ36yOqHfa/CS7LUZGMUQelA6Ncc3CIQxrF51wJU0LHw
pA1Gk7FkOTb9atnyP47pDikcI2x3oYZ2sRPLkbBsXUV7YC/oQDiKvq60cPq7oCC+
Jm7cPNZidzrm24+uLrLBUnwvCPNsLGsnOdSRHXbMb9QxxP1xZZIq7RMZvnb/DHCZ
y5y9O6dhT5PY54R/BLQtJh6bFcxXjXWsR4ztR4AAWcKW78y1ZthrRSnzyvReNilK
oTyguZYEaT/5UdeFubiLqZjLWq/CskTSDB2wAjsYyjbaCPTu9xeVHrodnw0ArKf7
7Ine1dkwRuNB/J+ZB1W1Lnfv2GDlpcS2bzYVmwYy/f6KifUfijrCNIEvFgB1F1tB
63rYTLbxrg52Ua0FFDo1XoweK6xjPcQI8WFoqyWN9qfJB5BFwzsCAwEAAQKCAYAo
r1b0lJJrpPHiCsiZJqzED9GXXQkfz/ShM/U7qh5hy+bzGB0GFghAvF/4OK+5cG4M
7HNdn26BkMclzO+pfxte9y+APrsMx9UnmIE7a2KBMUPOFJbvIGpmOrextyGAQ135
uLy+afZHiDfsLdMup3L8Va1P3rtWjhrftkjBSvorhIvHVqwdUqeU2kI8STDntNrE
ChrIfmwIFmAczLjFjbvRETTLKahXqnQ5lgaAC8lqwKm7BW7ljp5KwkXR1nrGVz+J
gTm5QJc9yRLm3nVYib1FSHdMQWrkiwhrLKBGPk0Nesf2+xgxQe8Zk1m/aQ8ZTLrB
GtfIZXXkimccmXI8/S0CjtfNkwp3mejdkd/PU/+DYtJXAbQmlhtDmA9MXg5sQldG
io0Bzy8eONO4AOrHcjN4WxFiohz1YMAuXSQMH+mNtavrP/jz8ZiSRLZTgbwYKzdG
NEGkSdyYmc8UbHCLzpjKbiWE3WjHxqXtMkqDUMETKs9hWVYIxmmz4GFJViklsCkC
gcEAyqxj74hiD6xleYMG9Ojnh3Dty9ifnoeMghBcV+tRj1ybqpEOwS7HLD5ccWbB
YAMYEEbITgVcUVqEBChyZ4Rx3VC+yCdNefT42mRehIO3VaVi9VY7UhogwM2iWlDE
QuLthA1vlNGi9xC/jCPYrMkbzF9EVYZu5oo8rBDDqfyFfdQtyEtzcoG5iFHFvyh7
i8v4vWLQZTys97P4al2ods/2fvkLCQcXRdjoR+0e5xgM6mVEhUBeVvlbd/rZ+iWH
9+0DAoHBAL1U+ts6J5SvCOOaw31JIa7UPheVE5so5soMGl4vPv8U6zjd4vifyzTE
XOOlv2SAxU0eecdBx5lgtnc24yDqkL8KmPI01ewSzPRQ7fTl9+yH8G+Swoz2as9U
Rm8qFC/toY1js8080YbhCZqYnv/pIwri/2oiR8JqtkfdYFMSFLtK1afrNsEyk96k
lf1PgYIUoNKi2VthkC+MBHQEIh6b2Zi1UPtIyogdLoNA6uv6mRczxjz/iF/TYuGt
WsDskwYvaQKBwG7zIp5NlgkogkCb9yH5ok3mB3fRdchOQiAtnq/Otc56jwk38dDV
r9lLpkW6T+AksXavmRYFHz22BJFWJxL+UWsrudVOlr5N2jGMQqXeiW3MZTkTZNQU
U5vYtqkkj9xh6E6jIFNi1AjW1VV9hi9IxPwDpx/+wRVZ1c8IOmUDRXzVu95rV572
3z9+LHfyTHgCSIA86QKSzcmobzSjYwbv3+wwn9boV9g33ykI6SLvapqip3ke/MY2
KdmrrMqg4ydZSwKBwQC4WfeM4RpLLwejvz0cT8opVmZDRhf6G6BlGdXO4Yggjfjf
vUXUupr9fTnJO8mZjb0Pc142Q3mbgc0JVXtgwKVCL4pvRD0MCd5hAjBBJm76c/8M
VMV0xjeIO1H9yeYwKN0GNA+OBuspvxM/4d3n5tUFM7RpXomq54cngInbOR7Qo3RY
dbIx+hJ7VpzpMrIyu+1AS+sCjIP9mAN6B9BFJ5F/nQUGOIFkea2hheN49OB99B7R
pCrgy45bmhVlBrW97wkCgcB6Gs7KBuP6uWLPP7L+HNuAbQAXbP/qK4JtlPZpvdEH
59tW1bwI+WQHYK1LrcBsNwjzyUtPVUQlfBpisyB6y3/8JCVZ1WeWnTSk+FKMzAJc
qn4WASVaZf5JjiK9fvXjq88sIPAZzsgKHNe6Eb5YLOegc+ynPXHi5EiWW9TF9RWt
dUE7tYNsNg6rogA+X9VYaioZtGdvtUZPlTJodkdo8kR26Brb8ilWrb7loq0Vw7a/
UpSfnWqfEH3sKbhNQGpApYs=
-----END PRIVATE KEY-----
Certificate:
    Data:
        Version: 3 (0x2)
        Serial Number:
            cb:2d:80:99:5a:69:52:5c
        Signature Algorithm: sha256WithRSAEncryption
        Issuer: C=XY, O=Python Software Foundation CA, CN=our-ca-server
        Validity
            Not Before: Aug 29 14:23:16 2018 GMT
            Not After : Oct 28 14:23:16 2037 GMT
        Subject: C=XY, L=Castle Anthrax, O=Python Software Foundation, CN=localhost
        Subject Public Key Info:
            Public Key Algorithm: rsaEncryption
                Public-Key: (3072 bit)
                Modulus:
                    00:95:e4:8c:f2:8b:64:f3:76:95:ba:23:c5:8a:a0:
                    d9:c0:53:aa:88:56:87:13:22:68:a7:ed:27:55:4f:
                    42:c8:1d:8a:ae:91:4f:94:65:9b:8b:95:50:1a:7d:
                    4d:f0:20:eb:84:e0:04:fa:ff:00:6c:ac:46:3c:eb:
                    6f:2c:06:e4:3b:a5:48:a9:28:ae:6a:6f:bf:67:4d:
                    9d:fa:c8:ea:87:7d:af:c2:4b:b2:d4:64:63:14:41:
                    e9:40:e8:d7:1c:dc:22:10:c6:b1:79:d7:02:54:d0:
                    b1:f0:a4:0d:46:93:b1:64:39:36:fd:6a:d9:f2:3f:
                    8e:e9:0e:29:1c:23:6c:77:a1:86:76:b1:13:cb:91:
                    b0:6c:5d:45:7b:60:2f:e8:40:38:8a:be:ae:b4:70:
                    fa:bb:a0:20:be:26:6e:dc:3c:d6:62:77:3a:e6:db:
                    8f:ae:2e:b2:c1:52:7c:2f:08:f3:6c:2c:6b:27:39:
                    d4:91:1d:76:cc:6f:d4:31:c4:fd:71:65:92:2a:ed:
                    13:19:be:76:ff:0c:70:99:cb:9c:bd:3b:a7:61:4f:
                    93:d8:e7:84:7f:04:b4:2d:26:1e:9b:15:cc:57:8d:
                    75:ac:47:8c:ed:47:80:00:59:c2:96:ef:cc:b5:66:
                    d8:6b:45:29:f3:ca:f4:5e:36:29:4a:a1:3c:a0:b9:
                    96:04:69:3f:f9:51:d7:85:b9:b8:8b:a9:98:cb:5a:
                    af:c2:b2:44:d2:0c:1d:b0:02:3b:18:ca:36:da:08:
                    f4:ee:f7:17:95:1e:ba:1d:9f:0d:00:ac:a7:fb:ec:
                    89:de:d5:d9:30:46:e3:41:fc:9f:99:07:55:b5:2e:
                    77:ef:d8:60:e5:a5:c4:b6:6f:36:15:9b:06:32:fd:
                    fe:8a:89:f5:1f:8a:3a:c2:34:81:2f:16:00:75:17:
                    5b:41:eb:7a:d8:4c:b6:f1:ae:0e:76:51:ad:05:14:
                    3a:35:5e:8c:1e:2b:ac:63:3d:c4:08:f1:61:68:ab:
                    25:8d:f6:a7:c9:07:90:45:c3:3b
                Exponent: 65537 (0x10001)
        X509v3 extensions:
            X509v3 Subject Alternative Name: 
                DNS:localhost
            X509v3 Key Usage: critical
                Digital Signature, Key Encipherment
            X509v3 Extended Key Usage: 
                TLS Web Server Authentication, TLS Web Client Authentication
            X509v3 Basic Constraints: critical
                CA:FALSE
            X509v3 Subject Key Identifier: 
                75:47:04:A3:A4:A6:1A:02:93:2C:EA:F1:59:28:EC:08:35:78:C2:2D
            X509v3 Authority Key Identifier: 
                keyid:B4:91:DA:7B:B6:9A:66:F5:39:93:E1:9F:AD:46:4C:51:8E:60:F8:E8
                DirName:/C=XY/O=Python Software Foundation CA/CN=our-ca-server
                serial:CB:2D:80:99:5A:69:52:5B
            Authority Information Access: 
                CA Issuers - URI:http://testca.pythontest.net/testca/pycacert.cer
                OCSP - URI:http://testca.pythontest.net/testca/ocsp/
            X509v3 CRL Distribution Points: 
                Full Name:
                  URI:http://testca.pythontest.net/testca/revocation.crl
    Signature Algorithm: sha256WithRSAEncryption
    Signature Value:
        43:cd:0f:c2:fe:76:40:b6:6f:ad:28:e4:7f:1e:08:bc:75:74:
        1a:51:01:88:93:b9:20:79:be:f9:fd:b6:aa:03:8f:00:f2:c5:
        c8:26:c3:6c:7f:1b:2a:6f:ab:1a:22:0a:4a:1e:10:63:e8:36:
        eb:35:1e:b1:20:52:95:ad:68:37:43:d0:88:2a:ec:f2:e3:4a:
        57:2b:04:1a:fa:7f:91:ad:1b:6d:37:8e:86:da:30:07:92:0a:
        6b:eb:46:79:fb:2b:15:54:12:e5:8a:d8:57:0f:ed:5e:ee:c7:
        f2:4f:ef:7d:0f:bf:3e:30:cc:81:a0:7e:da:1f:f0:50:e2:ba:
        3f:46:80:ac:41:99:05:dc:1f:37:7f:40:c4:b9:72:71:57:b0:
        ac:ac:1f:70:4a:8e:42:e3:3c:ee:cc:97:3c:2a:14:8f:d5:eb:
        03:0a:a2:6c:19:96:9b:cd:f5:22:25:be:50:0d:1b:c4:02:12:
        a7:f0:fc:3b:bb:5d:32:ba:80:6a:12:c1:2a:bb:6a:0b:1e:25:
        e0:85:9c:56:61:4a:a4:bb:4f:7a:54:42:a7:61:3c:7c:bd:14:
        bf:c6:a7:ed:fe:f1:e7:e9:90:25:a1:81:37:31:92:3a:2c:f8:
        10:04:2a:41:88:f4:05:2d:8a:f9:a4:e9:28:05:76:53:a6:8c:
        19:92:e6:cc:a3:b7:80:1e:86:3c:93:a6:4c:27:be:08:76:41:
        4d:dc:8e:b9:74:9e:4b:5b:fa:6f:17:f7:44:1b:e1:d4:60:59:
        81:40:7b:bf:8f:36:36:4f:9b:1c:ad:a5:39:e9:f8:40:57:77:
        e3:dc:cf:bb:b2:82:d9:2d:b4:87:fc:55:eb:8f:71:0f:ca:5d:
        4a:61:dd:fc:e0:01:7f:f9:99:27:22:ae:22:34:f1:d6:9d:60:
        3a:78:43:0f:13:33:4c:0e:06:d1:ac:e3:18:17:62:38:92:c1:
        5a:f7:b4:35:df:ca:e5:8e:7c:5a:32:e9:85:a9:61:3c:9c:87:
        36:26:f1:2e:16:12
-----BEGIN CERTIFICATE-----
MIIF8TCCBFmgAwIBAgIJAMstgJlaaVJcMA0GCSqGSIb3DQEBCwUAME0xCzAJBgNV
BAYTAlhZMSYwJAYDVQQKDB1QeXRob24gU29mdHdhcmUgRm91bmRhdGlvbiBDQTEW
MBQGA1UEAwwNb3VyLWNhLXNlcnZlcjAeFw0xODA4MjkxNDIzMTZaFw0zNzEwMjgx
NDIzMTZaMF8xCzAJBgNVBAYTAlhZMRcwFQYDVQQHDA5DYXN0bGUgQW50aHJheDEj
MCEGA1UECgwaUHl0aG9uIFNvZnR3YXJlIEZvdW5kYXRpb24xEjAQBgNVBAMMCWxv
Y2FsaG9zdDCCAaIwDQYJKoZIhvcNAQEBBQADggGPADCCAYoCggGBAJXkjPKLZPN2
lbojxYqg2cBTqohWhxMiaKftJ1VPQsgdiq6RT5Rlm4uVUBp9TfAg64TgBPr/AGys
RjzrbywG5DulSKkormpvv2dNnfrI6od9r8JLstRkYxRB6UDo1xzcIhDGsXnXAlTQ
sfCkDUaTsWQ5Nv1q2fI/jukOKRwjbHehhnaxE8uRsGxdRXtgL+hAOIq+rrRw+rug
IL4mbtw81mJ3Oubbj64ussFSfC8I82wsayc51JEddsxv1DHE/XFlkirtExm+dv8M
cJnLnL07p2FPk9jnhH8EtC0mHpsVzFeNdaxHjO1HgABZwpbvzLVm2GtFKfPK9F42
KUqhPKC5lgRpP/lR14W5uIupmMtar8KyRNIMHbACOxjKNtoI9O73F5Ueuh2fDQCs
p/vsid7V2TBG40H8n5kHVbUud+/YYOWlxLZvNhWbBjL9/oqJ9R+KOsI0gS8WAHUX
W0HrethMtvGuDnZRrQUUOjVejB4rrGM9xAjxYWirJY32p8kHkEXDOwIDAQABo4IB
wDCCAbwwFAYDVR0RBA0wC4IJbG9jYWxob3N0MA4GA1UdDwEB/wQEAwIFoDAdBgNV
HSUEFjAUBggrBgEFBQcDAQYIKwYBBQUHAwIwDAYDVR0TAQH/BAIwADAdBgNVHQ4E
FgQUdUcEo6SmGgKTLOrxWSjsCDV4wi0wfQYDVR0jBHYwdIAUtJHae7aaZvU5k+Gf
rUZMUY5g+OihUaRPME0xCzAJBgNVBAYTAlhZMSYwJAYDVQQKDB1QeXRob24gU29m
dHdhcmUgRm91bmRhdGlvbiBDQTEWMBQGA1UEAwwNb3VyLWNhLXNlcnZlcoIJAMst
gJlaaVJbMIGDBggrBgEFBQcBAQR3MHUwPAYIKwYBBQUHMAKGMGh0dHA6Ly90ZXN0
Y2EucHl0aG9udGVzdC5uZXQvdGVzdGNhL3B5Y2FjZXJ0LmNlcjA1BggrBgEFBQcw
AYYpaHR0cDovL3Rlc3RjYS5weXRob250ZXN0Lm5ldC90ZXN0Y2Evb2NzcC8wQwYD
VR0fBDwwOjA4oDagNIYyaHR0cDovL3Rlc3RjYS5weXRob250ZXN0Lm5ldC90ZXN0
Y2EvcmV2b2NhdGlvbi5jcmwwDQYJKoZIhvcNAQELBQADggGBAEPND8L+dkC2b60o
5H8eCLx1dBpRAYiTuSB5vvn9tqoDjwDyxcgmw2x/GypvqxoiCkoeEGPoNus1HrEg
UpWtaDdD0Igq7PLjSlcrBBr6f5GtG203jobaMAeSCmvrRnn7KxVUEuWK2FcP7V7u
x/JP730Pvz4wzIGgftof8FDiuj9GgKxBmQXcHzd/QMS5cnFXsKysH3BKjkLjPO7M
lzwqFI/V6wMKomwZlpvN9SIlvlANG8QCEqfw/Du7XTK6gGoSwSq7agseJeCFnFZh
SqS7T3pUQqdhPHy9FL/Gp+3+8efpkCWhgTcxkjos+BAEKkGI9AUtivmk6SgFdlOm
jBmS5syjt4AehjyTpkwnvgh2QU3cjrl0nktb+m8X90Qb4dRgWYFAe7+PNjZPmxyt
pTnp+EBXd+Pcz7uygtkttIf8VeuPcQ/KXUph3fzgAX/5mSciriI08dadYDp4Qw8T
M0wOBtGs4xgXYjiSwVr3tDXfyuWOfFoy6YWpYTychzYm8S4WEg==
-----END CERTIFICATE-----
