-----BEGIN PRIVATE KEY-----
MIG2AgEAMBAGByqGSM49AgEGBSuBBAAiBIGeMIGbAgEBBDBuhPMBtySJ8hFhn5hU
1yvdDujmB8ajjXNlkQ9GhGdghQIAfKmP9vWtSY+1+BRjpAahZANiAAQKLvQoetPb
S5tbgExB5vSDUtgc7hK1j6AN++En6AkW8KkK+O/31jkItqBoSQz8ts+VCU5cloTf
H6i5AS9zUkHr4DEyn+XxfiutzcNQPdQIBmygWAsUpa1XlZf8ExMFf/A=
-----END PRIVATE KEY-----
Certificate:
    Data:
        Version: 3 (0x2)
        Serial Number:
            cb:2d:80:99:5a:69:52:5e
        Signature Algorithm: sha256WithRSAEncryption
        Issuer: C=XY, O=Python Software Foundation CA, CN=our-ca-server
        Validity
            Not Before: Aug 29 14:23:16 2018 GMT
            Not After : Oct 28 14:23:16 2525 GMT
        Subject: C=XY, L=Castle Anthrax, O=Python Software Foundation, CN=localhost-ecc
        Subject Public Key Info:
            Public Key Algorithm: id-ecPublicKey
                Public-Key: (384 bit)
                pub:
                    04:0a:2e:f4:28:7a:d3:db:4b:9b:5b:80:4c:41:e6:
                    f4:83:52:d8:1c:ee:12:b5:8f:a0:0d:fb:e1:27:e8:
                    09:16:f0:a9:0a:f8:ef:f7:d6:39:08:b6:a0:68:49:
                    0c:fc:b6:cf:95:09:4e:5c:96:84:df:1f:a8:b9:01:
                    2f:73:52:41:eb:e0:31:32:9f:e5:f1:7e:2b:ad:cd:
                    c3:50:3d:d4:08:06:6c:a0:58:0b:14:a5:ad:57:95:
                    97:fc:13:13:05:7f:f0
                ASN1 OID: secp384r1
                NIST CURVE: P-384
        X509v3 extensions:
            X509v3 Subject Alternative Name: 
                DNS:localhost-ecc
            X509v3 Key Usage: critical
                Digital Signature, Key Encipherment
            X509v3 Extended Key Usage: 
                TLS Web Server Authentication, TLS Web Client Authentication
            X509v3 Basic Constraints: critical
                CA:FALSE
            X509v3 Subject Key Identifier: 
                F3:39:E5:90:3F:58:6F:55:9D:91:D4:86:B8:1B:14:35:09:AC:06:97
            X509v3 Authority Key Identifier: 
                keyid:C0:0A:2B:28:43:DE:5F:C9:7D:47:E5:47:9B:36:F2:65:8C:67:3B:E2
                DirName:/C=XY/O=Python Software Foundation CA/CN=our-ca-server
                serial:CB:2D:80:99:5A:69:52:5B
            Authority Information Access: 
                CA Issuers - URI:http://testca.pythontest.net/testca/pycacert.cer
                OCSP - URI:http://testca.pythontest.net/testca/ocsp/
            X509v3 CRL Distribution Points: 
                Full Name:
                  URI:http://testca.pythontest.net/testca/revocation.crl
    Signature Algorithm: sha256WithRSAEncryption
    Signature Value:
        b8:d9:bf:b8:88:0a:01:2b:aa:64:32:e8:97:e1:0f:ee:34:40:
        ef:71:fc:e5:f4:a2:3b:26:00:e2:19:3b:3e:cb:8e:2b:51:4c:
        30:ff:ab:44:9d:28:8d:d2:9c:32:e3:6b:96:73:1c:9d:55:76:
        b2:bf:af:b8:51:ed:fd:04:e7:0d:fa:8c:2a:68:01:cb:92:90:
        7d:d1:31:d8:6c:f4:b8:4b:ea:62:59:1e:31:4e:f7:17:ae:3f:
        f0:b6:ff:f8:6e:64:e3:6e:e9:19:4f:d0:1e:84:1e:df:56:49:
        ae:90:a9:e0:7b:70:e6:97:7f:08:f2:03:49:82:7d:58:8e:a5:
        a0:88:59:f3:a1:ab:b7:dd:6b:9a:2b:79:64:9c:d3:07:7c:ec:
        a3:8d:56:77:28:10:c9:42:a5:fa:81:8e:35:ad:f7:28:da:58:
        cc:a0:61:fa:0d:75:fd:26:ab:07:88:c5:64:21:f1:98:1c:e3:
        13:51:38:a7:59:a5:59:88:b9:10:4d:c1:79:70:3f:36:9e:08:
        75:53:7f:77:a3:3d:5d:16:b7:3b:a2:f6:eb:41:9b:56:16:80:
        34:96:57:f0:3a:3d:91:43:17:51:2b:64:2c:d7:e2:25:45:85:
        f3:5f:73:f8:7d:aa:a3:6d:61:e8:ba:c5:90:5e:16:50:bc:79:
        b9:4e:df:66:db:ae:95:80:15:da:4e:bf:8f:4e:9d:e3:7d:b0:
        ab:8b:72:93:3c:56:1b:92:d3:67:07:d5:5a:ad:98:16:69:ea:
        46:fe:e0:d0:f4:ae:95:d3:b5:80:7d:f2:64:4d:14:c0:97:d2:
        f3:91:bb:e6:43:d0:7e:39:14:0b:95:ab:c1:56:fd:26:79:f8:
        8c:69:eb:bc:74:0e:ea:cd:94:62:7e:30:58:01:7f:84:ee:9d:
        58:9c:fc:8f:75:1e:d9:86:cb:f4:fd:4c:af:b2:f7:69:ea:58:
        cb:7c:93:ce:3d:86:f0:46:01:df:86:02:a1:6c:0f:fb:13:84:
        d6:75:23:f9:17:21
-----BEGIN CERTIFICATE-----
MIIEzTCCAzWgAwIBAgIJAMstgJlaaVJeMA0GCSqGSIb3DQEBCwUAME0xCzAJBgNV
BAYTAlhZMSYwJAYDVQQKDB1QeXRob24gU29mdHdhcmUgRm91bmRhdGlvbiBDQTEW
MBQGA1UEAwwNb3VyLWNhLXNlcnZlcjAgFw0xODA4MjkxNDIzMTZaGA8yNTI1MTAy
ODE0MjMxNlowYzELMAkGA1UEBhMCWFkxFzAVBgNVBAcMDkNhc3RsZSBBbnRocmF4
MSMwIQYDVQQKDBpQeXRob24gU29mdHdhcmUgRm91bmRhdGlvbjEWMBQGA1UEAwwN
bG9jYWxob3N0LWVjYzB2MBAGByqGSM49AgEGBSuBBAAiA2IABAou9Ch609tLm1uA
TEHm9INS2BzuErWPoA374SfoCRbwqQr47/fWOQi2oGhJDPy2z5UJTlyWhN8fqLkB
L3NSQevgMTKf5fF+K63Nw1A91AgGbKBYCxSlrVeVl/wTEwV/8KOCAcQwggHAMBgG
A1UdEQQRMA+CDWxvY2FsaG9zdC1lY2MwDgYDVR0PAQH/BAQDAgWgMB0GA1UdJQQW
MBQGCCsGAQUFBwMBBggrBgEFBQcDAjAMBgNVHRMBAf8EAjAAMB0GA1UdDgQWBBTz
OeWQP1hvVZ2R1Ia4GxQ1CawGlzB9BgNVHSMEdjB0gBTACisoQ95fyX1H5UebNvJl
jGc74qFRpE8wTTELMAkGA1UEBhMCWFkxJjAkBgNVBAoMHVB5dGhvbiBTb2Z0d2Fy
ZSBGb3VuZGF0aW9uIENBMRYwFAYDVQQDDA1vdXItY2Etc2VydmVyggkAyy2AmVpp
UlswgYMGCCsGAQUFBwEBBHcwdTA8BggrBgEFBQcwAoYwaHR0cDovL3Rlc3RjYS5w
eXRob250ZXN0Lm5ldC90ZXN0Y2EvcHljYWNlcnQuY2VyMDUGCCsGAQUFBzABhilo
dHRwOi8vdGVzdGNhLnB5dGhvbnRlc3QubmV0L3Rlc3RjYS9vY3NwLzBDBgNVHR8E
PDA6MDigNqA0hjJodHRwOi8vdGVzdGNhLnB5dGhvbnRlc3QubmV0L3Rlc3RjYS9y
ZXZvY2F0aW9uLmNybDANBgkqhkiG9w0BAQsFAAOCAYEAuNm/uIgKASuqZDLol+EP
7jRA73H85fSiOyYA4hk7PsuOK1FMMP+rRJ0ojdKcMuNrlnMcnVV2sr+vuFHt/QTn
DfqMKmgBy5KQfdEx2Gz0uEvqYlkeMU73F64/8Lb/+G5k427pGU/QHoQe31ZJrpCp
4Htw5pd/CPIDSYJ9WI6loIhZ86Grt91rmit5ZJzTB3zso41WdygQyUKl+oGONa33
KNpYzKBh+g11/SarB4jFZCHxmBzjE1E4p1mlWYi5EE3BeXA/Np4IdVN/d6M9XRa3
O6L260GbVhaANJZX8Do9kUMXUStkLNfiJUWF819z+H2qo21h6LrFkF4WULx5uU7f
ZtuulYAV2k6/j06d432wq4tykzxWG5LTZwfVWq2YFmnqRv7g0PSuldO1gH3yZE0U
wJfS85G75kPQfjkUC5WrwVb9Jnn4jGnrvHQO6s2UYn4wWAF/hO6dWJz8j3Ue2YbL
9P1Mr7L3aepYy3yTzj2G8EYB34YCoWwP+xOE1nUj+Rch
-----END CERTIFICATE-----
