-----BEGIN PRIVATE KEY-----
MIIG/QIBADANBgkqhkiG9w0BAQEFAASCBucwggbjAgEAAoIBgQCZyYYwXivf9Jj8
Faz6/l2z1prYcCZXSJjGZIA4nvrcf1FvLWQ1KCLytSYCVt2cgoYKtPbUbOKjVRlN
6mmEtz3MgyC7nB6Dxqi5xlpV9ep25tJ+tgNNoY+7O1OTJSKn1cnNJUTOxcHjQtTE
AyVHjzNWYh2yZBglEOIZieorRCff/RwEWhQhrnAqorACpnl9k23x7FXncw+ISTrc
2Be2WNJT3v4qasw5Yt56myCv+cKJmsEIn/2tn6aZ9vkFiX326dyKw+Uq9fsiBE8h
EF2ZdtBWm2OzjVcQLDc6Q9OSG/BbEDy8A+JClU1I+bt1KxCFQF91bO/t00GCKFsJ
X/VE4H9EzxntxvsTW6Okf5XSQG0zCyd6jdKn0ftdIm3rnOFdvMaKU0OJmsP19ld7
aO94K+//Jmm672NUyEQ0NVrI37Pyz+hlUEdsUtt0r8XhS4ueE9GkKrXjJzl10YPI
YGSveBUk15aR5728FXJWkC9HfgKiQmYiDdFDXdzExXYnr5pij3UCAwEAAQKCAYBi
UHQp7bos1WkMFytb1ku/EZ4yahgIys9oXY2fJPuJBRfhdGpQlVUqRmaDLldEnCjn
JWN60BVfh6LCre5BOwgV+2pspdTYN6NcCJNtyuXWl5/QA7o+4d9KOhYmxqHOHB2D
uaSwb7qQ+AOfP8eQZNrUCaukhNrur0lsPD/o4wx+5IgJvDCMi8EHcLQHLbgTcLHj
7EvKyEMQxIgN8VPPbh8gITnpkhb3RN6oEQ4nkgss/zMSuX1qhtryKPJv+ML/m+c1
UVKjb6fKwqIw1LQGz6q3uFO/MnfgxBzP1LsBwoHcLqgWDD/tJvF24GhyFE43gIKW
vn0VH00wY7UtXdfVvofQX90gsAIfzadjDvbO6uSK/ScT1NVXyRRM13/8UprdNMTU
Ovy9gREDPn4dCHPlH+AV4Ruhcn+azxvzZhbbwAxr/NczmBccDkXxrKY/vZ7pq9P0
bycWqIh7Wf+53EC93ajgrM30Sr4QT4VIO6FwRPe25Qc4l9U6MV5oLV3flXIrkA0C
gcEAyX+x/NE5hicGofEjstt5eA4/vgZ9rBQygBF4JUBCzrbVIk9i/rvpXVK8H/3F
E282DJEQNCLcLFuL/qDNOT+oCUQbL/oWcUapXxfunTr3ikpLss3QYo9MO0VzerAx
uBcnMy8WfnfFNiXbzYhNwE++tmEZmmCrteR7zON3EuLGfG0f6bqZFdI44Y6tcEpW
L93Mc0Wu96T68Ml7hWLEiypoUvFi2DIAZfYoFjWyFLytw98k4XuHPf3B8bz1y1QZ
N2U7AoHBAMNiJwpr4k1W3Vz6jCEI3KHI7qgKrUFjR9k1eW31/zm5QQ2FtIgQg1Jy
BRE25e43e6VCCbR39Cz8ACrva3r4/uHlTqXEnWnc9svQv/K4m8gWo7gVfvVE29wO
HJR7gVz/qAXlEdsqoTZLbLr6/dzp9rNxHGtI46rZZyy0SwYFMAPH6xtSjL/F7lwx
2zVgN/uY19uPAQ4n8k0rNVZwj6+uZsbBkUKXza5R2ThJ2+nW5QQL7UghJCGgHJ+f
iJj/29zTDwKBwQCynV07TIP/ZSy99LG+ZErin07ltX9FQIobeGDWNIaEExIPXevU
/uG4dhSJDzzZI2X38cc5UAV31JbeWdBRhRoBTLwE5V1rgEW3I9HC0niHv6Ammca0
922NxNy+ztzj4LJA7uazqJvKifiz0rWJWacmqCA39qV/kVAkqSXuOdPUjC8T0vLM
oxME7qLTvTF1MNmA/S5CG57OPuwdqxWqfycHDy6dkoVD3NZgCa0YMMCftnhM4GFc
FEsNbIE9ggjwT+0CgcARFGZ3ScEJo7tMInbXeG/ZELiUJgLJQYWJXlxUGXoLML+Y
EAUdE9x2+5Kn05W8AkujwacZiJbmy8yz9CQAJv4Y/zOl2A8urutAG+p7rFmp3xjG
wdJMXI2fqfgjnrxLReoJQeISt6JKHcPOgJxqkGVJgGzMkB2e1MxpIwWf7BoranGJ
/Ohi50mT86PHAbdDHjRYdCLSevl6d3l9Ke/VmrhPTaKGIMERKQSFICfCRE/Wz7gZ
YxRGgDmgVpDZVxyALE8CgcAOyBT3DYIPbMUc1nUw3Y3Y8rjKWh+BOSE+pxfmgFaJ
GY/8lpvBOdnCcOkFlVkSE8hPMKpf5iYEXeBhk0hYCHSMdmIe9Gb1t5Uru1L8RE3U
tj0KHuDD753j9DNuo/HOB/LL23kwdqbCsQF6GbjG2UB15kVh1p8xaGqD98JnSeG/
9QDB730ASespd9xdsrBfD8176xliqkxvXZ2WqkYaZAattrdWuSHJyBaRK9q0s9VL
aMDUfl1sAjUBVGdyR0GGeOk=
-----END PRIVATE KEY-----
Certificate:
    Data:
        Version: 3 (0x2)
        Serial Number:
            cb:2d:80:99:5a:69:52:5c
        Signature Algorithm: sha256WithRSAEncryption
        Issuer: C=XY, O=Python Software Foundation CA, CN=our-ca-server
        Validity
            Not Before: Aug 29 14:23:16 2018 GMT
            Not After : Oct 28 14:23:16 2525 GMT
        Subject: C=XY, L=Castle Anthrax, O=Python Software Foundation, CN=localhost
        Subject Public Key Info:
            Public Key Algorithm: rsaEncryption
                RSA Public-Key: (3072 bit)
                Modulus:
                    00:99:c9:86:30:5e:2b:df:f4:98:fc:15:ac:fa:fe:
                    5d:b3:d6:9a:d8:70:26:57:48:98:c6:64:80:38:9e:
                    fa:dc:7f:51:6f:2d:64:35:28:22:f2:b5:26:02:56:
                    dd:9c:82:86:0a:b4:f6:d4:6c:e2:a3:55:19:4d:ea:
                    69:84:b7:3d:cc:83:20:bb:9c:1e:83:c6:a8:b9:c6:
                    5a:55:f5:ea:76:e6:d2:7e:b6:03:4d:a1:8f:bb:3b:
                    53:93:25:22:a7:d5:c9:cd:25:44:ce:c5:c1:e3:42:
                    d4:c4:03:25:47:8f:33:56:62:1d:b2:64:18:25:10:
                    e2:19:89:ea:2b:44:27:df:fd:1c:04:5a:14:21:ae:
                    70:2a:a2:b0:02:a6:79:7d:93:6d:f1:ec:55:e7:73:
                    0f:88:49:3a:dc:d8:17:b6:58:d2:53:de:fe:2a:6a:
                    cc:39:62:de:7a:9b:20:af:f9:c2:89:9a:c1:08:9f:
                    fd:ad:9f:a6:99:f6:f9:05:89:7d:f6:e9:dc:8a:c3:
                    e5:2a:f5:fb:22:04:4f:21:10:5d:99:76:d0:56:9b:
                    63:b3:8d:57:10:2c:37:3a:43:d3:92:1b:f0:5b:10:
                    3c:bc:03:e2:42:95:4d:48:f9:bb:75:2b:10:85:40:
                    5f:75:6c:ef:ed:d3:41:82:28:5b:09:5f:f5:44:e0:
                    7f:44:cf:19:ed:c6:fb:13:5b:a3:a4:7f:95:d2:40:
                    6d:33:0b:27:7a:8d:d2:a7:d1:fb:5d:22:6d:eb:9c:
                    e1:5d:bc:c6:8a:53:43:89:9a:c3:f5:f6:57:7b:68:
                    ef:78:2b:ef:ff:26:69:ba:ef:63:54:c8:44:34:35:
                    5a:c8:df:b3:f2:cf:e8:65:50:47:6c:52:db:74:af:
                    c5:e1:4b:8b:9e:13:d1:a4:2a:b5:e3:27:39:75:d1:
                    83:c8:60:64:af:78:15:24:d7:96:91:e7:bd:bc:15:
                    72:56:90:2f:47:7e:02:a2:42:66:22:0d:d1:43:5d:
                    dc:c4:c5:76:27:af:9a:62:8f:75
                Exponent: 65537 (0x10001)
        X509v3 extensions:
            X509v3 Subject Alternative Name: 
                DNS:localhost
            X509v3 Key Usage: critical
                Digital Signature, Key Encipherment
            X509v3 Extended Key Usage: 
                TLS Web Server Authentication, TLS Web Client Authentication
            X509v3 Basic Constraints: critical
                CA:FALSE
            X509v3 Subject Key Identifier: 
                0F:17:6A:6B:E3:5A:AC:40:9E:9D:DA:C3:B9:2A:01:30:89:12:C0:72
            X509v3 Authority Key Identifier: 
                keyid:1F:D2:DD:83:47:7D:60:07:C3:9C:D5:BA:76:A6:F4:D4:86:9B:76:4B
                DirName:/C=XY/O=Python Software Foundation CA/CN=our-ca-server
                serial:CB:2D:80:99:5A:69:52:5B

            Authority Information Access: 
                CA Issuers - URI:http://testca.pythontest.net/testca/pycacert.cer
                OCSP - URI:http://testca.pythontest.net/testca/ocsp/

            X509v3 CRL Distribution Points: 

                Full Name:
                  URI:http://testca.pythontest.net/testca/revocation.crl

    Signature Algorithm: sha256WithRSAEncryption
         56:4b:49:fc:90:5e:df:d4:9d:a2:28:4e:3f:9f:5d:5d:85:64:
         a1:b8:b3:dc:be:ee:cf:d8:02:8e:fb:50:4c:ef:29:53:6c:97:
         90:5b:75:66:9e:58:dc:ed:31:4f:6f:f1:28:06:0c:9b:b4:1c:
         bc:11:8d:af:49:90:01:32:f0:c0:31:39:43:a4:55:57:e4:a6:
         84:b3:09:ca:ec:91:68:62:7d:85:60:61:84:a5:74:a6:e9:f1:
         10:83:35:ef:b3:a5:ec:4f:ba:f3:6f:93:03:bf:53:ac:97:6e:
         ce:0a:36:3d:1c:74:de:b3:b8:c7:09:47:44:13:75:a5:5a:ed:
         c3:78:3c:66:2e:3f:99:ed:b2:07:66:e1:30:4d:07:0c:44:76:
         18:98:af:3a:9a:ca:12:69:47:98:76:c6:f7:05:cb:92:7e:59:
         f6:5c:ef:31:aa:d4:64:4b:35:7c:ab:f9:55:8b:96:9a:c3:e0:
         2c:e8:37:34:50:79:48:44:14:5d:4b:52:53:e7:c1:a1:0d:4b:
         6b:83:ec:26:ba:6f:6f:52:54:e5:75:1a:f5:dc:46:ff:1f:56:
         06:d8:52:3a:a1:92:16:83:a2:a2:9d:ee:8f:81:69:ed:ab:06:
         75:33:ec:c8:0a:07:d7:da:04:05:b7:e6:aa:bd:14:ef:e2:82:
         dc:4e:1e:d0:ab:75:cb:76:de:e0:4d:2e:f8:fe:98:bc:5d:fb:
         41:9f:90:7b:80:e4:d9:e7:bd:62:91:77:70:3c:82:8b:60:ac:
         1a:e4:60:61:21:95:31:c4:8c:4f:33:a2:57:f9:06:d3:b3:35:
         c8:9d:69:21:13:15:ce:5c:24:ba:04:bd:36:7f:79:3c:b7:6c:
         8a:33:85:71:ce:07:69:a2:c9:ce:2d:c7:68:c8:9b:02:34:27:
         3a:b4:d2:56:91:d2:f1:10:f6:17:cb:b1:4d:66:ca:64:a4:d8:
         b9:87:89:7e:fd:7b:0f:f4:47:8b:3f:64:b1:16:e8:e2:0a:63:
         26:0a:e9:1d:c4:06
-----BEGIN CERTIFICATE-----
MIIF8zCCBFugAwIBAgIJAMstgJlaaVJcMA0GCSqGSIb3DQEBCwUAME0xCzAJBgNV
BAYTAlhZMSYwJAYDVQQKDB1QeXRob24gU29mdHdhcmUgRm91bmRhdGlvbiBDQTEW
MBQGA1UEAwwNb3VyLWNhLXNlcnZlcjAgFw0xODA4MjkxNDIzMTZaGA8yNTI1MTAy
ODE0MjMxNlowXzELMAkGA1UEBhMCWFkxFzAVBgNVBAcMDkNhc3RsZSBBbnRocmF4
MSMwIQYDVQQKDBpQeXRob24gU29mdHdhcmUgRm91bmRhdGlvbjESMBAGA1UEAwwJ
bG9jYWxob3N0MIIBojANBgkqhkiG9w0BAQEFAAOCAY8AMIIBigKCAYEAmcmGMF4r
3/SY/BWs+v5ds9aa2HAmV0iYxmSAOJ763H9Rby1kNSgi8rUmAlbdnIKGCrT21Gzi
o1UZTepphLc9zIMgu5weg8aoucZaVfXqdubSfrYDTaGPuztTkyUip9XJzSVEzsXB
40LUxAMlR48zVmIdsmQYJRDiGYnqK0Qn3/0cBFoUIa5wKqKwAqZ5fZNt8exV53MP
iEk63NgXtljSU97+KmrMOWLeepsgr/nCiZrBCJ/9rZ+mmfb5BYl99uncisPlKvX7
IgRPIRBdmXbQVptjs41XECw3OkPTkhvwWxA8vAPiQpVNSPm7dSsQhUBfdWzv7dNB
gihbCV/1ROB/RM8Z7cb7E1ujpH+V0kBtMwsneo3Sp9H7XSJt65zhXbzGilNDiZrD
9fZXe2jveCvv/yZpuu9jVMhENDVayN+z8s/oZVBHbFLbdK/F4UuLnhPRpCq14yc5
ddGDyGBkr3gVJNeWkee9vBVyVpAvR34CokJmIg3RQ13cxMV2J6+aYo91AgMBAAGj
ggHAMIIBvDAUBgNVHREEDTALgglsb2NhbGhvc3QwDgYDVR0PAQH/BAQDAgWgMB0G
A1UdJQQWMBQGCCsGAQUFBwMBBggrBgEFBQcDAjAMBgNVHRMBAf8EAjAAMB0GA1Ud
DgQWBBQPF2pr41qsQJ6d2sO5KgEwiRLAcjB9BgNVHSMEdjB0gBQf0t2DR31gB8Oc
1bp2pvTUhpt2S6FRpE8wTTELMAkGA1UEBhMCWFkxJjAkBgNVBAoMHVB5dGhvbiBT
b2Z0d2FyZSBGb3VuZGF0aW9uIENBMRYwFAYDVQQDDA1vdXItY2Etc2VydmVyggkA
yy2AmVppUlswgYMGCCsGAQUFBwEBBHcwdTA8BggrBgEFBQcwAoYwaHR0cDovL3Rl
c3RjYS5weXRob250ZXN0Lm5ldC90ZXN0Y2EvcHljYWNlcnQuY2VyMDUGCCsGAQUF
BzABhilodHRwOi8vdGVzdGNhLnB5dGhvbnRlc3QubmV0L3Rlc3RjYS9vY3NwLzBD
BgNVHR8EPDA6MDigNqA0hjJodHRwOi8vdGVzdGNhLnB5dGhvbnRlc3QubmV0L3Rl
c3RjYS9yZXZvY2F0aW9uLmNybDANBgkqhkiG9w0BAQsFAAOCAYEAVktJ/JBe39Sd
oihOP59dXYVkobiz3L7uz9gCjvtQTO8pU2yXkFt1Zp5Y3O0xT2/xKAYMm7QcvBGN
r0mQATLwwDE5Q6RVV+SmhLMJyuyRaGJ9hWBhhKV0punxEIM177Ol7E+682+TA79T
rJduzgo2PRx03rO4xwlHRBN1pVrtw3g8Zi4/me2yB2bhME0HDER2GJivOprKEmlH
mHbG9wXLkn5Z9lzvMarUZEs1fKv5VYuWmsPgLOg3NFB5SEQUXUtSU+fBoQ1La4Ps
Jrpvb1JU5XUa9dxG/x9WBthSOqGSFoOiop3uj4Fp7asGdTPsyAoH19oEBbfmqr0U
7+KC3E4e0Kt1y3be4E0u+P6YvF37QZ+Qe4Dk2ee9YpF3cDyCi2CsGuRgYSGVMcSM
TzOiV/kG07M1yJ1pIRMVzlwkugS9Nn95PLdsijOFcc4HaaLJzi3HaMibAjQnOrTS
VpHS8RD2F8uxTWbKZKTYuYeJfv17D/RHiz9ksRbo4gpjJgrpHcQG
-----END CERTIFICATE-----
