-----BEGIN PRIVATE KEY-----
MIG2AgEAMBAGByqGSM49AgEGBSuBBAAiBIGeMIGbAgEBBDDRUbCeT3hMph4Y/ahL
1sy9Qfy4DYotuAP06UetzG6syv+EoQ02kX3xvazqwiJDrEyhZANiAAQef97STEPn
4Nk6C153VEx24MNkJUcmLe771u6lr3Q8Em3J/YPaA1i9Ys7KZA3WvoKBPoWaaikn
4yLQbd/6YE6AAjMuaThlR1/cqH5QnmS3DXHUjmxnLjWy/dZl0CJG1qo=
-----END PRIVATE KEY-----
Certificate:
    Data:
        Version: 3 (0x2)
        Serial Number:
            cb:2d:80:99:5a:69:52:5e
        Signature Algorithm: sha256WithRSAEncryption
        Issuer: C=XY, O=Python Software Foundation CA, CN=our-ca-server
        Validity
            Not Before: Aug 29 14:23:16 2018 GMT
            Not After : Oct 28 14:23:16 2037 GMT
        Subject: C=XY, L=Castle Anthrax, O=Python Software Foundation, CN=localhost-ecc
        Subject Public Key Info:
            Public Key Algorithm: id-ecPublicKey
                Public-Key: (384 bit)
                pub:
                    04:1e:7f:de:d2:4c:43:e7:e0:d9:3a:0b:5e:77:54:
                    4c:76:e0:c3:64:25:47:26:2d:ee:fb:d6:ee:a5:af:
                    74:3c:12:6d:c9:fd:83:da:03:58:bd:62:ce:ca:64:
                    0d:d6:be:82:81:3e:85:9a:6a:29:27:e3:22:d0:6d:
                    df:fa:60:4e:80:02:33:2e:69:38:65:47:5f:dc:a8:
                    7e:50:9e:64:b7:0d:71:d4:8e:6c:67:2e:35:b2:fd:
                    d6:65:d0:22:46:d6:aa
                ASN1 OID: secp384r1
                NIST CURVE: P-384
        X509v3 extensions:
            X509v3 Subject Alternative Name: 
                DNS:localhost-ecc
            X509v3 Key Usage: critical
                Digital Signature, Key Encipherment
            X509v3 Extended Key Usage: 
                TLS Web Server Authentication, TLS Web Client Authentication
            X509v3 Basic Constraints: critical
                CA:FALSE
            X509v3 Subject Key Identifier: 
                45:ED:32:14:6D:51:A2:3B:B0:80:55:E0:A6:9B:74:4C:A5:56:88:B1
            X509v3 Authority Key Identifier: 
                keyid:F3:EC:94:8E:F2:8E:30:C4:8E:68:C2:BF:8E:6A:19:C0:C1:9F:76:65
                DirName:/C=XY/O=Python Software Foundation CA/CN=our-ca-server
                serial:CB:2D:80:99:5A:69:52:5B
            Authority Information Access: 
                CA Issuers - URI:http://testca.pythontest.net/testca/pycacert.cer
                OCSP - URI:http://testca.pythontest.net/testca/ocsp/
            X509v3 CRL Distribution Points: 
                Full Name:
                  URI:http://testca.pythontest.net/testca/revocation.crl
    Signature Algorithm: sha256WithRSAEncryption
    Signature Value:
        07:e4:91:0b:d3:ed:4b:52:7f:50:68:c7:8d:80:48:9f:b7:4a:
        13:66:bf:9d:4c:2d:18:19:68:a0:da:3b:12:85:05:16:fa:8d:
        9c:58:c6:81:b3:96:ba:11:62:65:d3:76:f1:1c:ab:95:e4:d8:
        2a:e0:1f:7b:c5:20:2e:7c:8f:de:87:7a:2b:52:54:ca:d1:41:
        b0:5e:20:72:df:44:00:4a:69:1a:ef:10:63:52:13:ed:49:02:
        ee:dc:9d:f3:c8:ba:c4:01:81:5a:a9:1c:15:12:b6:21:de:44:
        a5:fd:7e:f9:22:d1:3e:ee:22:dd:31:55:32:4e:41:68:27:c5:
        95:1b:7e:6b:18:74:f9:22:d6:b7:b9:31:72:51:a0:5a:2c:ff:
        62:76:e9:a0:55:8d:78:33:52:4a:58:b2:f4:4b:0c:43:82:2f:
        a9:84:68:05:dd:11:47:70:24:fe:5c:92:fd:17:21:63:bb:fa:
        93:fa:54:54:05:72:48:ed:81:48:ab:95:fc:6d:a8:62:96:f9:
        3b:e2:71:18:05:3e:76:bb:df:95:17:7b:81:4b:1f:7f:e1:67:
        76:c4:07:cb:65:a7:f2:cf:e6:b4:fb:75:7c:ee:df:a1:f5:34:
        20:2b:48:fd:2e:49:ff:f3:a6:3b:00:49:6c:88:79:ed:9c:16:
        2a:04:72:e2:93:e4:7e:3f:2a:dd:30:47:9a:99:84:2a:b9:c4:
        40:31:a6:68:f3:20:d1:75:f1:1e:c8:18:64:5b:f8:4c:ce:9a:
        3c:57:2c:e3:63:64:29:0a:c2:b6:8e:20:01:55:9f:fe:10:ba:
        12:42:38:0a:9b:53:01:a5:b4:08:76:ec:e8:a6:fc:69:2c:f7:
        7f:5e:0f:44:07:55:e1:7c:2e:58:e5:d6:fc:6f:c2:4d:83:65:
        bd:f3:32:e3:14:48:22:8d:80:18:ea:44:f8:24:79:ff:ff:c6:
        04:c2:e9:90:34:40:d6:59:3f:59:1e:4a:9a:58:60:ce:ab:f9:
        76:0e:ef:f7:05:17
-----BEGIN CERTIFICATE-----
MIIEyzCCAzOgAwIBAgIJAMstgJlaaVJeMA0GCSqGSIb3DQEBCwUAME0xCzAJBgNV
BAYTAlhZMSYwJAYDVQQKDB1QeXRob24gU29mdHdhcmUgRm91bmRhdGlvbiBDQTEW
MBQGA1UEAwwNb3VyLWNhLXNlcnZlcjAeFw0xODA4MjkxNDIzMTZaFw0zNzEwMjgx
NDIzMTZaMGMxCzAJBgNVBAYTAlhZMRcwFQYDVQQHDA5DYXN0bGUgQW50aHJheDEj
MCEGA1UECgwaUHl0aG9uIFNvZnR3YXJlIEZvdW5kYXRpb24xFjAUBgNVBAMMDWxv
Y2FsaG9zdC1lY2MwdjAQBgcqhkjOPQIBBgUrgQQAIgNiAAQef97STEPn4Nk6C153
VEx24MNkJUcmLe771u6lr3Q8Em3J/YPaA1i9Ys7KZA3WvoKBPoWaaikn4yLQbd/6
YE6AAjMuaThlR1/cqH5QnmS3DXHUjmxnLjWy/dZl0CJG1qqjggHEMIIBwDAYBgNV
HREEETAPgg1sb2NhbGhvc3QtZWNjMA4GA1UdDwEB/wQEAwIFoDAdBgNVHSUEFjAU
BggrBgEFBQcDAQYIKwYBBQUHAwIwDAYDVR0TAQH/BAIwADAdBgNVHQ4EFgQURe0y
FG1RojuwgFXgppt0TKVWiLEwfQYDVR0jBHYwdIAU8+yUjvKOMMSOaMK/jmoZwMGf
dmWhUaRPME0xCzAJBgNVBAYTAlhZMSYwJAYDVQQKDB1QeXRob24gU29mdHdhcmUg
Rm91bmRhdGlvbiBDQTEWMBQGA1UEAwwNb3VyLWNhLXNlcnZlcoIJAMstgJlaaVJb
MIGDBggrBgEFBQcBAQR3MHUwPAYIKwYBBQUHMAKGMGh0dHA6Ly90ZXN0Y2EucHl0
aG9udGVzdC5uZXQvdGVzdGNhL3B5Y2FjZXJ0LmNlcjA1BggrBgEFBQcwAYYpaHR0
cDovL3Rlc3RjYS5weXRob250ZXN0Lm5ldC90ZXN0Y2Evb2NzcC8wQwYDVR0fBDww
OjA4oDagNIYyaHR0cDovL3Rlc3RjYS5weXRob250ZXN0Lm5ldC90ZXN0Y2EvcmV2
b2NhdGlvbi5jcmwwDQYJKoZIhvcNAQELBQADggGBAAfkkQvT7UtSf1Box42ASJ+3
ShNmv51MLRgZaKDaOxKFBRb6jZxYxoGzlroRYmXTdvEcq5Xk2CrgH3vFIC58j96H
eitSVMrRQbBeIHLfRABKaRrvEGNSE+1JAu7cnfPIusQBgVqpHBUStiHeRKX9fvki
0T7uIt0xVTJOQWgnxZUbfmsYdPki1re5MXJRoFos/2J26aBVjXgzUkpYsvRLDEOC
L6mEaAXdEUdwJP5ckv0XIWO7+pP6VFQFckjtgUirlfxtqGKW+TvicRgFPna735UX
e4FLH3/hZ3bEB8tlp/LP5rT7dXzu36H1NCArSP0uSf/zpjsASWyIee2cFioEcuKT
5H4/Kt0wR5qZhCq5xEAxpmjzINF18R7IGGRb+EzOmjxXLONjZCkKwraOIAFVn/4Q
uhJCOAqbUwGltAh27Oim/Gks939eD0QHVeF8Lljl1vxvwk2DZb3zMuMUSCKNgBjq
RPgkef//xgTC6ZA0QNZZP1keSppYYM6r+XYO7/cFFw==
-----END CERTIFICATE-----
