-----BEGIN PRIVATE KEY-----
MIIG/QIBADANBgkqhkiG9w0BAQEFAASCBucwggbjAgEAAoIBgQDD5QDHBBTqG5g/
OW6kVb6oTHLM4q6wX42YofPGBjWFlIeMX78A1PzRvgKLo9RXbBOb/Q89rbtsL9dd
+FcUaNP7GNLnX+MpeOnMOL6M7LzihFi0OyRmvCytWIUMYkH8lqHuydwdUROsbqGk
2r7Sbe8XzDbf9dNnCYZnoOJMiGvp08D5FFGJL+K7N9xCEHCpHJ5mFyywzunoR3us
EgV+0b8nt287RcLoBNaORCLt6L1FSsSb6g3NS/AUNNDb1VLoa96HFLL3rBCqSt3y
SCGtz3lncEG5HXBRNEWoka4SKqHDOP8zDZZxtmNwWp6QtHaFj4rY/XnMGiekJgIG
crzeB8jAgwGC9u23Yo5/IX5OhgSIbqj0mtYVRwZwJbszXVQn7BNbQzNFNgnpJPpJ
xA4xDRr415IsAQHm7ugt3G0aX2PbbXYxOpF/Ud+3JQu5vYGbcMUxqOPaHi3C8QUT
rcvIRBm4W2L2fd3xANpC6RafRVXjfeGFfk0pyArlvIyYCGvxAeUCAwEAAQKCAYAE
A1FQwmMxHOhUbuAIRoUInwhMeLs7ZKJx8OsGPDSCTGRGGnAFD/rSP63cNy71T+AF
gggpiGQegz9KkeGfhQwM1GssLGk8WnCp2fnqbAwyhkZzpOs+WEJSCsKMFDc3S0GU
hChIYAJFtgRLJnAFM+b2V0uIfHCz26hGqKOdDb/Wumzd8zPhH+/SNI5hdM7xStez
2d/dlqVZ21c0ghiMLZ/M2qrz8EEvWccc4BEuYtqJYNpdgAauLIGF0SxByPt/oZMf
4fa0zOVfAL6F5cPFkycRzuz97Lx+ZdtLuUBx/3y8Sk24TR1QutwaFhbwpRSQSUrg
xT7ZmS24rQhaP8i7+ROLGy0CPlLMc/D3WvvtdLDWOUF30azURvAFcqKA87Bp05bR
HI/ewXaSB26J34MUmBHy5dBjld+HX6hQInPhCTZu7gNDOrPaEc8Ug50c1r7HkYRl
VBv/4BQo3YtNdoKhL08MVuNbcxrzge3kI0mbQu7qDSyrve02WnQ1zijJ916NbgEC
gcEA6oFNNtWzVw/7/MBxUZ1tE5VW5U2SjRvQZlcPTJ9Ub16byhOCdNvE17uyYLt5
diqoVAvSGWiJ+OKsmw3XTLdhxzWeZ1a9ZiCozsmIfHMQmL9t3MxzTnMEZCfcvxz0
DPvAN0REUtwRkMbt7vC+g01Eom9UpAH7hKXkc3pTgtkoyFeebC/YneGtdOTVATKU
WMfsY6Biye7P1D8V7btjLI8LTnv90ygoP0uSrX53hp7k4EFAeXyT9VN5wMXLw81a
5K69AoHBANXZsvSSIwe7fjspNUU9yELnEokDIdBn4ARX6x5PonL2KB0iVUzWgjHb
vs23GAzAgKKY+S8VLYptBLUBlsZ/pSLfZLWd1ywxeHmk/nkzuqlAw1jwuUlMq6Vr
BJmfhpOoXeSrQwvkL/uOejdrDSmLAFiIV3l9LtkmIJzfQSSy2QB8mfWwni0vxOJT
mIqZE01rfRTNLIqxO3+0d7pDqArVvWxYqF4C8kihUhNjkB5NaURUTzDQ3Y33aAvT
zAm697nGSQKBwQDEQ8ed9ykL2sLpfR7aUclytHBvpYbcNsUqgf66ADeopiP48m8i
4rRSYjMepok3jugmv2XuAgJHnV8cvm7NNEXPdl7G2l/V08u0lhN3JM5lKQIH4801
gSnRsVMdWFwhaaosFySfvLOu2e9VJYQtXEPvNwI96bLaCAW1aFHwl1N8qWhb34eK
S9DinopvYCesTlbX4uoLW6XxW4M83rJYHrg1zaxYR6m3n8Z5EflzYBTqY3JUuyES
F/U0k9bAX2SNNHkCgcALk8mYbADxfjkLQuPbZ8jbtl7OhBjki3sZQRk9ftowlxr8
2Mr9ae+Ke3cM9AidSB6urtFutxrMD7LdicR74pUyGh39pxnrDpKTI1eTgDVuzE7H
FeEyErCIOA77siM7AzZyFsN+dVATslbzgRwpT5kpMdhqf1h18RZ656tDLVuKJzS+
lF073QYvqo7rkfX1jwgqhCERMR8jfsWsk9UZIREsOHCFBmvPesxSuGUo/s/gHyBa
aDRWZzp+yWyWakTXDeECgcBaPIxLK0ky89Mv8jTSyIJIMhQj8+z8wFLJFQG5vF/Z
1taLIDY0stU8HzKflTJ5v72r2jpIvu5YgDEgl+kKjyqLMWSu4nBZ2OoJet49S6d3
X0YL2VzsIiSG+8cmVvBBf7iZCHDKiCM20dzzhZq8BCLiaPq+Zu2No2xEJyE0m8rc
I66z6fV1BWQXLe6vPC8EVvBWz3Ybje0czUdZnZ44qV6qyZzREXuqbC0qS5RanE4Z
+Ps9b3TezE7gDII6SbUwhZo=
-----END PRIVATE KEY-----
Certificate:
    Data:
        Version: 3 (0x2)
        Serial Number:
            cb:2d:80:99:5a:69:52:61
        Signature Algorithm: sha256WithRSAEncryption
        Issuer: C=XY, O=Python Software Foundation CA, CN=our-ca-server
        Validity
            Not Before: Aug 29 14:23:16 2018 GMT
            Not After : Oct 28 14:23:16 2525 GMT
        Subject: C=XY, L=Castle Anthrax, O=Python Software Foundation, CN=nosan
        Subject Public Key Info:
            Public Key Algorithm: rsaEncryption
                Public-Key: (3072 bit)
                Modulus:
                    00:c3:e5:00:c7:04:14:ea:1b:98:3f:39:6e:a4:55:
                    be:a8:4c:72:cc:e2:ae:b0:5f:8d:98:a1:f3:c6:06:
                    35:85:94:87:8c:5f:bf:00:d4:fc:d1:be:02:8b:a3:
                    d4:57:6c:13:9b:fd:0f:3d:ad:bb:6c:2f:d7:5d:f8:
                    57:14:68:d3:fb:18:d2:e7:5f:e3:29:78:e9:cc:38:
                    be:8c:ec:bc:e2:84:58:b4:3b:24:66:bc:2c:ad:58:
                    85:0c:62:41:fc:96:a1:ee:c9:dc:1d:51:13:ac:6e:
                    a1:a4:da:be:d2:6d:ef:17:cc:36:df:f5:d3:67:09:
                    86:67:a0:e2:4c:88:6b:e9:d3:c0:f9:14:51:89:2f:
                    e2:bb:37:dc:42:10:70:a9:1c:9e:66:17:2c:b0:ce:
                    e9:e8:47:7b:ac:12:05:7e:d1:bf:27:b7:6f:3b:45:
                    c2:e8:04:d6:8e:44:22:ed:e8:bd:45:4a:c4:9b:ea:
                    0d:cd:4b:f0:14:34:d0:db:d5:52:e8:6b:de:87:14:
                    b2:f7:ac:10:aa:4a:dd:f2:48:21:ad:cf:79:67:70:
                    41:b9:1d:70:51:34:45:a8:91:ae:12:2a:a1:c3:38:
                    ff:33:0d:96:71:b6:63:70:5a:9e:90:b4:76:85:8f:
                    8a:d8:fd:79:cc:1a:27:a4:26:02:06:72:bc:de:07:
                    c8:c0:83:01:82:f6:ed:b7:62:8e:7f:21:7e:4e:86:
                    04:88:6e:a8:f4:9a:d6:15:47:06:70:25:bb:33:5d:
                    54:27:ec:13:5b:43:33:45:36:09:e9:24:fa:49:c4:
                    0e:31:0d:1a:f8:d7:92:2c:01:01:e6:ee:e8:2d:dc:
                    6d:1a:5f:63:db:6d:76:31:3a:91:7f:51:df:b7:25:
                    0b:b9:bd:81:9b:70:c5:31:a8:e3:da:1e:2d:c2:f1:
                    05:13:ad:cb:c8:44:19:b8:5b:62:f6:7d:dd:f1:00:
                    da:42:e9:16:9f:45:55:e3:7d:e1:85:7e:4d:29:c8:
                    0a:e5:bc:8c:98:08:6b:f1:01:e5
                Exponent: 65537 (0x10001)
        X509v3 extensions:
            X509v3 Subject Key Identifier: 
                27:04:5B:37:51:0D:92:FD:2C:60:61:FE:4F:9C:66:20:41:2C:08:45
            X509v3 Authority Key Identifier: 
                C0:0A:2B:28:43:DE:5F:C9:7D:47:E5:47:9B:36:F2:65:8C:67:3B:E2
    Signature Algorithm: sha256WithRSAEncryption
    Signature Value:
        a0:b7:48:56:c6:b3:92:26:3f:d8:92:3c:ed:72:b5:89:ea:fd:
        c9:66:da:ba:6a:8e:0d:04:ea:b2:fd:1f:e4:29:da:1e:c7:8f:
        5a:f0:88:74:dd:b3:f0:5e:a7:c4:77:13:cf:a8:19:fb:f2:2d:
        ee:47:b4:0c:7c:5b:d3:dc:2f:2a:5c:bf:43:22:1c:91:d8:03:
        7d:44:90:c0:2d:fe:9e:7c:8b:ef:39:4e:b3:87:99:c8:eb:c2:
        b7:cf:86:65:05:52:8c:15:b9:6a:8d:cd:e3:2a:29:d1:f5:87:
        42:11:c3:2e:42:ec:ed:26:55:8d:f3:ad:66:f4:79:72:f7:9e:
        ed:bc:0c:5a:a7:74:ab:dc:57:e8:5c:99:b6:32:8f:7e:58:6e:
        70:48:ea:5d:a7:fa:b1:fc:c0:e9:50:3a:a4:53:21:e7:8b:77:
        54:2d:bb:64:1e:fc:88:86:90:c1:03:90:17:bb:3c:cf:ce:e8:
        48:32:c2:07:e5:8e:4f:93:a9:1a:e2:f5:93:a8:01:9f:30:26:
        1e:ed:b5:62:e9:25:c5:b0:32:e1:fc:bd:d6:48:b4:70:a9:e2:
        cd:f6:a9:42:cb:bb:24:39:b9:34:fc:b9:cb:09:01:f0:5e:7e:
        ef:b5:59:d6:88:31:a9:4c:be:7d:5b:de:4d:ec:84:1b:a1:1b:
        d8:7d:83:cb:f1:04:c9:f1:f3:a4:08:05:3c:b5:96:13:1d:37:
        8a:23:83:22:86:72:17:13:5e:e8:89:06:58:cd:89:42:71:12:
        e5:47:fc:f7:6e:96:28:8f:19:b9:d7:86:5b:c5:62:14:e1:5b:
        06:e7:e0:66:7e:fc:b7:9e:a9:99:14:e5:0a:d6:df:8f:b5:a2:
        1a:74:54:30:f6:f4:bf:1b:43:1d:be:4f:38:92:55:10:7b:d8:
        4f:e0:33:0f:40:2e:58:ec:9c:78:1b:43:17:b3:cb:0b:f5:34:
        e2:7e:11:a1:90:b6:3c:79:6a:0b:91:ce:0b:8d:d5:60:e4:6d:
        c8:2a:3d:40:6d:17
-----BEGIN CERTIFICATE-----
MIIEbzCCAtegAwIBAgIJAMstgJlaaVJhMA0GCSqGSIb3DQEBCwUAME0xCzAJBgNV
BAYTAlhZMSYwJAYDVQQKDB1QeXRob24gU29mdHdhcmUgRm91bmRhdGlvbiBDQTEW
MBQGA1UEAwwNb3VyLWNhLXNlcnZlcjAgFw0xODA4MjkxNDIzMTZaGA8yNTI1MTAy
ODE0MjMxNlowWzELMAkGA1UEBhMCWFkxFzAVBgNVBAcMDkNhc3RsZSBBbnRocmF4
MSMwIQYDVQQKDBpQeXRob24gU29mdHdhcmUgRm91bmRhdGlvbjEOMAwGA1UEAwwF
bm9zYW4wggGiMA0GCSqGSIb3DQEBAQUAA4IBjwAwggGKAoIBgQDD5QDHBBTqG5g/
OW6kVb6oTHLM4q6wX42YofPGBjWFlIeMX78A1PzRvgKLo9RXbBOb/Q89rbtsL9dd
+FcUaNP7GNLnX+MpeOnMOL6M7LzihFi0OyRmvCytWIUMYkH8lqHuydwdUROsbqGk
2r7Sbe8XzDbf9dNnCYZnoOJMiGvp08D5FFGJL+K7N9xCEHCpHJ5mFyywzunoR3us
EgV+0b8nt287RcLoBNaORCLt6L1FSsSb6g3NS/AUNNDb1VLoa96HFLL3rBCqSt3y
SCGtz3lncEG5HXBRNEWoka4SKqHDOP8zDZZxtmNwWp6QtHaFj4rY/XnMGiekJgIG
crzeB8jAgwGC9u23Yo5/IX5OhgSIbqj0mtYVRwZwJbszXVQn7BNbQzNFNgnpJPpJ
xA4xDRr415IsAQHm7ugt3G0aX2PbbXYxOpF/Ud+3JQu5vYGbcMUxqOPaHi3C8QUT
rcvIRBm4W2L2fd3xANpC6RafRVXjfeGFfk0pyArlvIyYCGvxAeUCAwEAAaNCMEAw
HQYDVR0OBBYEFCcEWzdRDZL9LGBh/k+cZiBBLAhFMB8GA1UdIwQYMBaAFMAKKyhD
3l/JfUflR5s28mWMZzviMA0GCSqGSIb3DQEBCwUAA4IBgQCgt0hWxrOSJj/Ykjzt
crWJ6v3JZtq6ao4NBOqy/R/kKdoex49a8Ih03bPwXqfEdxPPqBn78i3uR7QMfFvT
3C8qXL9DIhyR2AN9RJDALf6efIvvOU6zh5nI68K3z4ZlBVKMFblqjc3jKinR9YdC
EcMuQuztJlWN861m9Hly957tvAxap3Sr3FfoXJm2Mo9+WG5wSOpdp/qx/MDpUDqk
UyHni3dULbtkHvyIhpDBA5AXuzzPzuhIMsIH5Y5Pk6ka4vWTqAGfMCYe7bVi6SXF
sDLh/L3WSLRwqeLN9qlCy7skObk0/LnLCQHwXn7vtVnWiDGpTL59W95N7IQboRvY
fYPL8QTJ8fOkCAU8tZYTHTeKI4MihnIXE17oiQZYzYlCcRLlR/z3bpYojxm514Zb
xWIU4VsG5+Bmfvy3nqmZFOUK1t+PtaIadFQw9vS/G0Mdvk84klUQe9hP4DMPQC5Y
7Jx4G0MXs8sL9TTifhGhkLY8eWoLkc4LjdVg5G3IKj1AbRc=
-----END CERTIFICATE-----
