-----BEGIN PRIVATE KEY-----
MIIG/gIBADANBgkqhkiG9w0BAQEFAASCBugwggbkAgEAAoIBgQDKebhYIH1Vlwcz
5sh948+YkIbo1faQEexWLHun9bhQ4D9WXwBIPHnENXWAfsNi5OLm77dWHnZKFI1C
cNEe8UOo7uqdbPIs2MDaw7/uNq8cEEIvUX7qbsLMiqvSpLi7KKbbgj2Jc4D3f4sK
dFLy3XnIP0dP9oBy/wc7PUDbGbChfNFhVcB6Rlh0DGdrKKN8W6hrJ2+Cbt7CKdX5
T3V8Jhb15U0biZ8+/rfCVFyRhqys8r/hNO1HA7vKZTH2WtVq+G1Y0W7zCeydVg66
3sq+2GOO6Xpjm4EE3mLZVVqC/NlYnAZ0fUCSQ0zx2TfLkLBGl9GL7vJY4c9IvMuA
hts76J6ka7txa+z1jQWBP4GaB/obhRuGE5x++5OojLI4KntaJwf9A5ed4QOwUlpJ
g6Fof5dwiqtS+5U75FchPTJV3d99hzmh//ieBxYyuGrx3L1u9GxAY1NFsKIG+uha
uv5tnP56thpl9sDcPY2z068iBjd1c7PzO97bVIEl0kFRkYKrB08CAwEAAQKCAYA7
il+zSpqQuMDdelgq7Pr3GkkR3xmKdDrTfHFAivmQjuERPQ6QL3h/QlkzWBOM2VIA
Jy36nSqbzj9b8mEMgFYtL1S+xnLQzUypCDdAjcQgtIdB8u0nczrFe2Hbp6TLJMEs
e7gs21JpdZAlmt9pm8dcI3+M/Cf5qRUvTmvsAjn2wwWvYdAgJN+OALfIw0KQJ0P3
frlD2eaXokXR8pPR1kGaPbvXBTlXBQB0nOo7wSa2FQxn5XCBGY/3jJqMn1lzA2pe
ZmA92WcwwQP3GOz358U1ATOQhGAV/YxTY1QoqpalMTp3/Ue5XPGG/bCXMGeOCCD1
V7voQIDKmWqdS49HFo7zMAgh2KEUD3TFlQNxrf7usePHNNf69T9HXLVTyrqpyvHk
kTGUGZXRB/KWN5FxFy0LCN0znIY1BFRSpSefIGRKIRt937McaKIG2oECA7eLRWIR
1RzAbFcOL1i+n/Xhg50ym1v3X1lNaFJE5RFC7QkatIyI9CW/ZrZqe/oyt5T3YQEC
gcEA6oFk97KAncekmx+DZ2ZssXf0qy9DVmoAFdJqHz+jh41U3jdLiwTBev1zbMQU
UJvjbnjAeRlTL2aCFGMxKhdI//XEgwF9Swej0R1qsp7tkx157b2dJm0vuonAf5G4
TOJjMwJFfNb76wQXDTM3t6MnUj5NBGmSF3O3pFb6/1APPgLr1iD/1APksJMRQ9LV
xQW7KoRGmoozBAVXKhE3SGOznWlmh31EWTsD5w4Z87o2ugH1IYljXZEc7toiZhSn
qZ5xAoHBAN0IwEgmylXzGBVfy72cuPQZhlXOh+51oVfdzefY2V3CFDAL8EOmHisZ
g7HIDm61fN3ndceaCB6Dzny9zHceuUx7+k6UDfGARQjzGvWhk1MnTl9eMN6Y4ZVv
6b6MB79MkJrH9eybYTa5OgPANiRdyoXwBKnU7+MoV8U/jr1r3lkpeelDzqcAIeTP
D/nZ9REo2xJgE+1ybBvY45MqFwobBeuIO1Mc6veruLN9IeFGbGKio4qYQFvpJUm/
NIJ4m+VhvwKBwQCZf40pnYwWuyGB8ITA4AhxugVLMCqxm7zmi86vGabfCaHtuuAV
5U0IRnKRVV++y+t42k2SdwM+Waj3013RIWDFOoghAI6U2DFgphK7TNBRpc+z0JPX
HU1KmvSIDEhI+z7XmrsFVmubkBfOqiHkcEVCzkj3hGr+Mt6YEd9F04/GlX7tsLgE
fW/qLLn2XUFUL8YttFvKuH9gOGavwIkhNzHQ7bcRJOviRIDvcwmFwfQkmTdtdlK2
YlBAAETX8Nk2a+ECgcEA3F+GPimWoDz/rQfWvZSM/qqYOeLxuflDxLQbP+X/SjBf
Kkws33W3LGeC2vTIFu8RsLi9wCU9pRbq/4nIWpeiTbRqKoAIqtile7fOEEpo9YYB
6KmjdbvdZb2vwdAhRUSUBA4LjjyYnxPr2KOCF53/dqyIKb9o8QVfBQVKTmdGx4TH
zJ9TYUOLh3I+zm/Vm6ctTFPIanwjd1w2AZr8X5HzxBIOe94gEpD+VM4UwmMRWwIm
pd8Ig9qe17kwJEkVvYxHAoHAHlnRAhmtBtda+mgAnr7VQFwFl3wgufEQzmXRUGqP
aLtpQ9Y0La2OgaNh/QGqpJJP5LoakrPzQOoInUIIzgCBmudbFUZ29bC4+pBxDuU0
ZPvJlXpj17FMUa1qu/Gco1+5n7LVgZqDHQyWov/h3LwNfAMuKkJKyzrXlGd3NFCX
TSDJoxzHYFWLnYji88kxh0k0jq1oAr1KAQSOYuDHYmKZ+7lu+AbYHtPfgytGq23k
9rIlPMsVRYQdABZNQcaLJm6y
-----END PRIVATE KEY-----
Certificate:
    Data:
        Version: 1 (0x0)
        Serial Number:
            cb:2d:80:99:5a:69:52:61
        Signature Algorithm: sha256WithRSAEncryption
        Issuer: C=XY, O=Python Software Foundation CA, CN=our-ca-server
        Validity
            Not Before: Aug 29 14:23:16 2018 GMT
            Not After : Oct 28 14:23:16 2525 GMT
        Subject: C=XY, L=Castle Anthrax, O=Python Software Foundation, CN=nosan
        Subject Public Key Info:
            Public Key Algorithm: rsaEncryption
                RSA Public-Key: (3072 bit)
                Modulus:
                    00:ca:79:b8:58:20:7d:55:97:07:33:e6:c8:7d:e3:
                    cf:98:90:86:e8:d5:f6:90:11:ec:56:2c:7b:a7:f5:
                    b8:50:e0:3f:56:5f:00:48:3c:79:c4:35:75:80:7e:
                    c3:62:e4:e2:e6:ef:b7:56:1e:76:4a:14:8d:42:70:
                    d1:1e:f1:43:a8:ee:ea:9d:6c:f2:2c:d8:c0:da:c3:
                    bf:ee:36:af:1c:10:42:2f:51:7e:ea:6e:c2:cc:8a:
                    ab:d2:a4:b8:bb:28:a6:db:82:3d:89:73:80:f7:7f:
                    8b:0a:74:52:f2:dd:79:c8:3f:47:4f:f6:80:72:ff:
                    07:3b:3d:40:db:19:b0:a1:7c:d1:61:55:c0:7a:46:
                    58:74:0c:67:6b:28:a3:7c:5b:a8:6b:27:6f:82:6e:
                    de:c2:29:d5:f9:4f:75:7c:26:16:f5:e5:4d:1b:89:
                    9f:3e:fe:b7:c2:54:5c:91:86:ac:ac:f2:bf:e1:34:
                    ed:47:03:bb:ca:65:31:f6:5a:d5:6a:f8:6d:58:d1:
                    6e:f3:09:ec:9d:56:0e:ba:de:ca:be:d8:63:8e:e9:
                    7a:63:9b:81:04:de:62:d9:55:5a:82:fc:d9:58:9c:
                    06:74:7d:40:92:43:4c:f1:d9:37:cb:90:b0:46:97:
                    d1:8b:ee:f2:58:e1:cf:48:bc:cb:80:86:db:3b:e8:
                    9e:a4:6b:bb:71:6b:ec:f5:8d:05:81:3f:81:9a:07:
                    fa:1b:85:1b:86:13:9c:7e:fb:93:a8:8c:b2:38:2a:
                    7b:5a:27:07:fd:03:97:9d:e1:03:b0:52:5a:49:83:
                    a1:68:7f:97:70:8a:ab:52:fb:95:3b:e4:57:21:3d:
                    32:55:dd:df:7d:87:39:a1:ff:f8:9e:07:16:32:b8:
                    6a:f1:dc:bd:6e:f4:6c:40:63:53:45:b0:a2:06:fa:
                    e8:5a:ba:fe:6d:9c:fe:7a:b6:1a:65:f6:c0:dc:3d:
                    8d:b3:d3:af:22:06:37:75:73:b3:f3:3b:de:db:54:
                    81:25:d2:41:51:91:82:ab:07:4f
                Exponent: 65537 (0x10001)
    Signature Algorithm: sha256WithRSAEncryption
         40:b9:dd:36:05:93:6d:6d:08:1c:9c:f7:41:89:5c:c1:1c:b0:
         51:c7:11:4c:eb:a2:ae:87:15:eb:23:7b:12:c5:0d:46:60:a0:
         4a:13:1e:4d:98:6b:b7:ff:66:32:9a:bc:01:f7:61:b8:dc:8e:
         c5:a8:9b:86:f2:57:fd:e7:10:57:ea:e2:a8:40:1f:f6:a3:45:
         50:0f:14:6c:5b:24:b5:7b:a5:7e:c1:ac:37:16:fa:07:6a:ec:
         ca:58:88:1b:f7:16:d9:aa:c1:3e:0e:26:83:59:36:a3:a9:f6:
         00:ae:55:86:32:34:56:ea:34:c2:15:06:7a:b7:29:e7:b9:17:
         d6:89:9b:48:6d:74:18:c8:30:49:4e:aa:66:d2:07:e7:a6:87:
         c9:e9:a3:b9:b8:8b:e2:ee:8a:79:6c:2d:64:16:d0:de:aa:9c:
         01:89:ae:09:99:e6:6d:9f:af:09:61:ea:76:e8:ac:70:39:33:
         57:1c:57:9b:a0:88:ee:7a:e1:58:81:2f:df:ab:b0:38:3a:5e:
         b4:f3:1b:bd:0b:40:c1:cb:8b:70:9e:7e:9b:3a:ec:82:cc:2a:
         06:fd:44:ec:a5:da:17:95:a6:3a:28:b0:1f:5f:cd:32:83:b9:
         dc:07:ff:99:6b:67:bf:b9:3e:2f:4a:3c:be:44:7f:e4:23:ee:
         94:64:86:06:db:da:89:c8:98:34:c7:6a:94:5f:5f:a7:60:77:
         70:ec:2f:03:e7:b4:43:ce:34:1f:f8:e7:9a:9e:65:2b:48:29:
         a8:9e:d3:02:27:83:c6:bb:f9:cc:94:cd:71:ac:f1:8c:d3:e7:
         07:a8:46:5c:de:bb:08:dc:90:cf:57:79:94:48:91:47:76:d7:
         3a:a5:eb:2d:17:4d:2c:28:92:68:ca:50:9b:b0:2d:83:31:31:
         18:0f:d2:5e:0c:a7:41:87:8d:49:19:c7:45:d5:e2:64:78:f0:
         68:c5:97:cd:40:e7:85:2e:d3:1d:7b:3a:7c:a5:32:44:75:ec:
         b5:ef:ec:75:00:bb
-----BEGIN CERTIFICATE-----
MIIEJjCCAo4CCQDLLYCZWmlSYTANBgkqhkiG9w0BAQsFADBNMQswCQYDVQQGEwJY
WTEmMCQGA1UECgwdUHl0aG9uIFNvZnR3YXJlIEZvdW5kYXRpb24gQ0ExFjAUBgNV
BAMMDW91ci1jYS1zZXJ2ZXIwIBcNMTgwODI5MTQyMzE2WhgPMjUyNTEwMjgxNDIz
MTZaMFsxCzAJBgNVBAYTAlhZMRcwFQYDVQQHDA5DYXN0bGUgQW50aHJheDEjMCEG
A1UECgwaUHl0aG9uIFNvZnR3YXJlIEZvdW5kYXRpb24xDjAMBgNVBAMMBW5vc2Fu
MIIBojANBgkqhkiG9w0BAQEFAAOCAY8AMIIBigKCAYEAynm4WCB9VZcHM+bIfePP
mJCG6NX2kBHsVix7p/W4UOA/Vl8ASDx5xDV1gH7DYuTi5u+3Vh52ShSNQnDRHvFD
qO7qnWzyLNjA2sO/7javHBBCL1F+6m7CzIqr0qS4uyim24I9iXOA93+LCnRS8t15
yD9HT/aAcv8HOz1A2xmwoXzRYVXAekZYdAxnayijfFuoaydvgm7ewinV+U91fCYW
9eVNG4mfPv63wlRckYasrPK/4TTtRwO7ymUx9lrVavhtWNFu8wnsnVYOut7Kvthj
jul6Y5uBBN5i2VVagvzZWJwGdH1AkkNM8dk3y5CwRpfRi+7yWOHPSLzLgIbbO+ie
pGu7cWvs9Y0FgT+Bmgf6G4UbhhOcfvuTqIyyOCp7WicH/QOXneEDsFJaSYOhaH+X
cIqrUvuVO+RXIT0yVd3ffYc5of/4ngcWMrhq8dy9bvRsQGNTRbCiBvroWrr+bZz+
erYaZfbA3D2Ns9OvIgY3dXOz8zve21SBJdJBUZGCqwdPAgMBAAEwDQYJKoZIhvcN
AQELBQADggGBAEC53TYFk21tCByc90GJXMEcsFHHEUzroq6HFesjexLFDUZgoEoT
Hk2Ya7f/ZjKavAH3YbjcjsWom4byV/3nEFfq4qhAH/ajRVAPFGxbJLV7pX7BrDcW
+gdq7MpYiBv3FtmqwT4OJoNZNqOp9gCuVYYyNFbqNMIVBnq3Kee5F9aJm0htdBjI
MElOqmbSB+emh8npo7m4i+LuinlsLWQW0N6qnAGJrgmZ5m2frwlh6nborHA5M1cc
V5ugiO564ViBL9+rsDg6XrTzG70LQMHLi3Cefps67ILMKgb9ROyl2heVpjoosB9f
zTKDudwH/5lrZ7+5Pi9KPL5Ef+Qj7pRkhgbb2onImDTHapRfX6dgd3DsLwPntEPO
NB/455qeZStIKaie0wIng8a7+cyUzXGs8YzT5weoRlzeuwjckM9XeZRIkUd21zql
6y0XTSwokmjKUJuwLYMxMRgP0l4Mp0GHjUkZx0XV4mR48GjFl81A54Uu0x17Onyl
MkR17LXv7HUAuw==
-----END CERTIFICATE-----
