-----BEGIN PRIVATE KEY-----
MIIG/QIBADANBgkqhkiG9w0BAQEFAASCBucwggbjAgEAAoIBgQCv3sUoOE4F7Pye
AT2Q6XpXrGUOu1fYgdnItLLLhvn7ACuHMj7TA5UKXxsepJn5m2Ji9LvAbksr1IWd
LZAvNgjwsUR+E4HbY108BhVt9sk3HFkvE0OOFbAa14ICtYPe18P/4Hv6Zfu/GJDU
rwXHNCUu0p6i/mospZ5O3sx5MgVaShknGAEC3Kp7zOgusMmE8XSbkNQa3ARMkW4o
kTqWKAeAHDjVFVyyhzZQmo+gaLzhWfJVSZhlJsuiLoZGGrVTq85EiXsE4l8rPaI+
mKkVzWP13IZW+Fx1tiIktumdHWb1OQWrvm8AiT9b8PcFCUUrvhQFcLDSCZjKlQ0t
RWrSSKrrVsSldOreqRLtpjGzFJpGnTcvslL7rP5pg5DjBsYmVcDjrmRuJuhGq52X
/6HEC97GouVK8tT1LVMv1wufVPn+i9TzwxOuRWeUvVqLAJgWQ9N3yKdymH+VrpZk
/oB9ScyDakGezZBW5CeOQbNJ8WoX58jNxefGjtqKxmyztu43r3ECAwEAAQKCAYBQ
fVoqYCqFV8L95X9x1QljGsldhqxbsIIl811o/KtoDtndFEfgd2E8z+4vhhHaRR0w
QOW02kWZF7jXCMVWdhp9XgQE15S0/bLsB7TDERFiIZ1HiD+AxbhFcKBV8REbahCQ
CQN0xDwFZ47RaBDy7JCf71EfM+UP7fSYECvww83jVspQNBIyZx+3bT5OMCbqqz88
+3m3mT52dJDADEeN9WAJZ+Ey1IYKRwu6tCJLvePEF1BrbDVNBgZogXZ+mzalxpjr
4RpGPMMa+VWc8HmDVd+LtpwKJcQD00GvUP4fNywn+5jvNWl54FdQiTLPrieTWxas
XUQ2crxP7Aqr2/vsU5Ruru5uF7H+ssMHp9YQDhpJ2+SVhQ9P+/loXCuKGt+BrB2Z
MlitO3f+vfRtzATmJ8G0qFrOqZK1A/qsiyIze240C1hAl3oy2xpZqTDGp4gRWwoi
OIN0HmH9UbP7bbNQY1x/zstTbza4/7rGb1+DZKeZIMu7QjBCU0rtsJpGtUvcQGEC
gcEA42GMYSL/HljZMF1LsDhTX/cmP8FDNgONhWYxT+w0Csnj1usLNBaT63dYnEiW
QKydRR4casAR1Kdy4Yfcy2lCy1kCfwqkQYk8fxSsOSHRjUfwC1SnfdYlwKFMxw4a
oZF0R4oVCBYrfP+8kqrj+5gs/gXblsw72XkYtbCdIriKKdmUzTx7MegzSqh2PVRi
rJzuwCZQ/O0NfhwdOHxLQDo0dgD+vv9e+KOSoJ9FDv8HH1tnolpRMdkSA8AJR/Nk
DXt1AoHBAMYBfTKQZ2jqLKybe4tP+YKjvjVp8vJx0iNUXFN/P6hBaSBOgq85uxXL
X3s7N/pkOCjyE95B8QusIkbnbfdyEP89O4bTbUHPXyAkHyRkR7Vny49HYuaR/aXQ
mXC0J2z5bXVpCQ514l/R/Io3wBph+hbG3To7pp9pMOV4qzvibUZaTZFwH+q+xDwf
SKSFy3fcomgH4/K5/QuKVj0jOUQsYjQQWb8GukS2KZK3zYJIAG1bBcsCVpSuBdW0
eCZgqjnwjQKBwCUyUwWc9QEg5b68tGIKhNEhHDe3xOf0ItWcxxpc+JJ/Pm9tGfMW
cnJFntBKK5I+6qdg6qMn8oLINcnhMORxvsSHNhpUQlSaP7RGTHo4JxCmoQUpfxDd
1GUzvdyeWQrvQYdmdlRRVCHpsA6KOCtzVIDlsmtz06Ka5cjrMHl6mNeJyYbdiwW6
B5ICBv23bUDxlzkFy5/ko51qufkAlErYeraHKSVTn1SrZZQzGdf/LkoZ6NUtUzUF
XqYQZzRHA6oU9QKBwDslzLljC5D6ivfQxln6POV6dmJMUOd9erFVDPNgSqq/R2EA
MueXDjzXcKFGMlWYxHHuxmKZPiEnfWHC1kWZjFxCdVq0I6oKATd/stHTJtyYseUO
BQwtRiDXLE7PcguKgtkU1EC+lC3dc1vyhW8cH3HYW9N+aCqsaI/TuQr9e3kNlqhA
XzhnXgU7rx5+XSZkARukZ8JlLqLY4yQGNqAXxgoZbEW1A8VsyQRr5XbqfT4td5CK
FUT6qwGIlG+aZp9CLQKBwQCQkwdW9A/Q4Ffq8+XTL1hJ24m/q11OLAPODUypOhWw
OCbX2fkv59pSBe6niZDBls1NpHB9mzalBrJCfU+yKC667gKcKULOnWULIoOQvmcg
Ka3hkkW28gTnCjfDIYm3IdsLjc67zJplOixaKgxhO8NtJZGtg0oLIrofG8EYRInv
OmtGw+XE+s4TVs6WgXnEg9zWQ5ZYtqQVn6PT5jsz+Nrvipi61HWHVBd7g+78ojps
3suWxl0FvgzTW5HD16WRXeI=
-----END PRIVATE KEY-----
Certificate:
    Data:
        Version: 1 (0x0)
        Serial Number:
            cb:2d:80:99:5a:69:52:61
        Signature Algorithm: sha256WithRSAEncryption
        Issuer: C=XY, O=Python Software Foundation CA, CN=our-ca-server
        Validity
            Not Before: Aug 29 14:23:16 2018 GMT
            Not After : Oct 28 14:23:16 2037 GMT
        Subject: C=XY, L=Castle Anthrax, O=Python Software Foundation, CN=nosan
        Subject Public Key Info:
            Public Key Algorithm: rsaEncryption
                RSA Public-Key: (3072 bit)
                Modulus:
                    00:af:de:c5:28:38:4e:05:ec:fc:9e:01:3d:90:e9:
                    7a:57:ac:65:0e:bb:57:d8:81:d9:c8:b4:b2:cb:86:
                    f9:fb:00:2b:87:32:3e:d3:03:95:0a:5f:1b:1e:a4:
                    99:f9:9b:62:62:f4:bb:c0:6e:4b:2b:d4:85:9d:2d:
                    90:2f:36:08:f0:b1:44:7e:13:81:db:63:5d:3c:06:
                    15:6d:f6:c9:37:1c:59:2f:13:43:8e:15:b0:1a:d7:
                    82:02:b5:83:de:d7:c3:ff:e0:7b:fa:65:fb:bf:18:
                    90:d4:af:05:c7:34:25:2e:d2:9e:a2:fe:6a:2c:a5:
                    9e:4e:de:cc:79:32:05:5a:4a:19:27:18:01:02:dc:
                    aa:7b:cc:e8:2e:b0:c9:84:f1:74:9b:90:d4:1a:dc:
                    04:4c:91:6e:28:91:3a:96:28:07:80:1c:38:d5:15:
                    5c:b2:87:36:50:9a:8f:a0:68:bc:e1:59:f2:55:49:
                    98:65:26:cb:a2:2e:86:46:1a:b5:53:ab:ce:44:89:
                    7b:04:e2:5f:2b:3d:a2:3e:98:a9:15:cd:63:f5:dc:
                    86:56:f8:5c:75:b6:22:24:b6:e9:9d:1d:66:f5:39:
                    05:ab:be:6f:00:89:3f:5b:f0:f7:05:09:45:2b:be:
                    14:05:70:b0:d2:09:98:ca:95:0d:2d:45:6a:d2:48:
                    aa:eb:56:c4:a5:74:ea:de:a9:12:ed:a6:31:b3:14:
                    9a:46:9d:37:2f:b2:52:fb:ac:fe:69:83:90:e3:06:
                    c6:26:55:c0:e3:ae:64:6e:26:e8:46:ab:9d:97:ff:
                    a1:c4:0b:de:c6:a2:e5:4a:f2:d4:f5:2d:53:2f:d7:
                    0b:9f:54:f9:fe:8b:d4:f3:c3:13:ae:45:67:94:bd:
                    5a:8b:00:98:16:43:d3:77:c8:a7:72:98:7f:95:ae:
                    96:64:fe:80:7d:49:cc:83:6a:41:9e:cd:90:56:e4:
                    27:8e:41:b3:49:f1:6a:17:e7:c8:cd:c5:e7:c6:8e:
                    da:8a:c6:6c:b3:b6:ee:37:af:71
                Exponent: 65537 (0x10001)
    Signature Algorithm: sha256WithRSAEncryption
         91:42:c2:15:57:42:47:77:e7:0f:c5:55:26:b1:5b:c3:5e:ba:
         81:db:e1:a4:9f:b8:42:5a:21:c9:8c:18:ae:0f:90:ab:9a:24:
         e7:d2:78:fc:bd:97:29:b1:5c:46:1f:5b:b8:d2:a7:87:f1:50:
         53:5b:d3:be:57:74:bd:e5:75:db:50:81:f7:37:95:0b:69:ef:
         39:8c:5c:82:d5:64:62:d5:8b:e9:e0:31:e1:73:d2:5a:2c:de:
         43:5a:06:e5:d3:4d:d0:35:e0:9f:c2:73:31:bc:35:69:d4:fb:
         7d:f0:1a:33:f7:f6:25:72:9c:a6:84:05:08:f6:b5:e8:04:10:
         f1:1f:f2:95:ad:a1:f8:d8:80:a5:eb:75:43:99:33:90:0c:79:
         fc:c0:87:08:95:20:aa:c2:81:0b:22:6f:56:f4:8f:2a:23:f8:
         40:47:1c:03:a5:b1:04:0a:04:4a:df:d0:88:a8:bc:31:f2:42:
         9b:d8:11:14:9e:e3:68:ea:07:2c:15:de:d2:36:5a:15:38:ed:
         d2:af:0e:b4:b6:1d:a0:57:94:ea:c3:c7:4c:14:57:81:00:57:
         94:d3:b0:27:69:d7:48:02:6c:e5:97:f7:be:22:7c:38:24:af:
         b2:b0:7b:08:75:1e:ca:2e:c7:41:ef:8b:74:cf:c9:c3:6f:39:
         b9:52:41:18:c6:70:24:54:51:04:fe:5f:88:70:35:e5:1c:8e:
         d6:67:69:44:44:33:9b:8c:fe:a5:b9:95:48:66:84:f3:1a:04:
         ab:a3:57:c1:b6:b4:2f:28:12:45:2b:cb:42:d3:f4:a5:ce:7b:
         6c:1f:e4:c8:a9:e7:d4:6d:c8:27:2d:69:26:c5:e8:73:10:54:
         1f:c3:bf:fd:aa:f5:95:6f:f6:ca:d5:06:8f:1b:79:93:e3:86:
         ba:8d:fe:a8:10:8f:95:3e:14:09:bf:ca:88:59:e2:93:b6:ec:
         03:a9:7e:dd:1f:5f:13:d3:29:b3:a6:f3:6a:df:30:53:44:c8:
         cd:e5:82:57:bc:9c
-----BEGIN CERTIFICATE-----
MIIEJDCCAowCCQDLLYCZWmlSYTANBgkqhkiG9w0BAQsFADBNMQswCQYDVQQGEwJY
WTEmMCQGA1UECgwdUHl0aG9uIFNvZnR3YXJlIEZvdW5kYXRpb24gQ0ExFjAUBgNV
BAMMDW91ci1jYS1zZXJ2ZXIwHhcNMTgwODI5MTQyMzE2WhcNMzcxMDI4MTQyMzE2
WjBbMQswCQYDVQQGEwJYWTEXMBUGA1UEBwwOQ2FzdGxlIEFudGhyYXgxIzAhBgNV
BAoMGlB5dGhvbiBTb2Z0d2FyZSBGb3VuZGF0aW9uMQ4wDAYDVQQDDAVub3NhbjCC
AaIwDQYJKoZIhvcNAQEBBQADggGPADCCAYoCggGBAK/exSg4TgXs/J4BPZDpeles
ZQ67V9iB2ci0ssuG+fsAK4cyPtMDlQpfGx6kmfmbYmL0u8BuSyvUhZ0tkC82CPCx
RH4TgdtjXTwGFW32yTccWS8TQ44VsBrXggK1g97Xw//ge/pl+78YkNSvBcc0JS7S
nqL+aiylnk7ezHkyBVpKGScYAQLcqnvM6C6wyYTxdJuQ1BrcBEyRbiiROpYoB4Ac
ONUVXLKHNlCaj6BovOFZ8lVJmGUmy6IuhkYatVOrzkSJewTiXys9oj6YqRXNY/Xc
hlb4XHW2IiS26Z0dZvU5Bau+bwCJP1vw9wUJRSu+FAVwsNIJmMqVDS1FatJIqutW
xKV06t6pEu2mMbMUmkadNy+yUvus/mmDkOMGxiZVwOOuZG4m6EarnZf/ocQL3sai
5Ury1PUtUy/XC59U+f6L1PPDE65FZ5S9WosAmBZD03fIp3KYf5WulmT+gH1JzINq
QZ7NkFbkJ45Bs0nxahfnyM3F58aO2orGbLO27jevcQIDAQABMA0GCSqGSIb3DQEB
CwUAA4IBgQCRQsIVV0JHd+cPxVUmsVvDXrqB2+Gkn7hCWiHJjBiuD5CrmiTn0nj8
vZcpsVxGH1u40qeH8VBTW9O+V3S95XXbUIH3N5ULae85jFyC1WRi1Yvp4DHhc9Ja
LN5DWgbl003QNeCfwnMxvDVp1Pt98Boz9/YlcpymhAUI9rXoBBDxH/KVraH42ICl
63VDmTOQDHn8wIcIlSCqwoELIm9W9I8qI/hARxwDpbEECgRK39CIqLwx8kKb2BEU
nuNo6gcsFd7SNloVOO3Srw60th2gV5Tqw8dMFFeBAFeU07AnaddIAmzll/e+Inw4
JK+ysHsIdR7KLsdB74t0z8nDbzm5UkEYxnAkVFEE/l+IcDXlHI7WZ2lERDObjP6l
uZVIZoTzGgSro1fBtrQvKBJFK8tC0/SlzntsH+TIqefUbcgnLWkmxehzEFQfw7/9
qvWVb/bK1QaPG3mT44a6jf6oEI+VPhQJv8qIWeKTtuwDqX7dH18T0ymzpvNq3zBT
RMjN5YJXvJw=
-----END CERTIFICATE-----
