-----BEGIN PRIVATE KEY-----
MIIG/gIBADANBgkqhkiG9w0BAQEFAASCBugwggbkAgEAAoIBgQC99xEYPTwFN/ji
i0lm11ckEGhcxciSsIgTgior54CLgQy7JXllTYmAWFTTg2zNBvDMexGI0h+xtZ4q
1Renghgt33N3Y6CT3v/L7JkE1abQbFveKW/ydlxH0+jLlsENSWjySwC80+f9L3bX
TcD8T4Fu9Uty2Rg1a/Eyekng5RmfkmLNgxfnX5R5nWhh0Aia7h3Ax2zCALfxqZIm
fxwavEgHsW/yZi+T+eoJwe0i7a6LaUoLqsPV9ZhagziNDaappPHH42NW39WlRhx1
UjtiRm2Jihnzxcfs+90zLXSp5pxo/cE9Ia4d8ieq3Rxd/XgjlF6FXXFJjwfL36Dw
ehy8m3PKKAuO+fyMgPPPMQb7oaRy/MBG0NayRreTwyKILS2zafIW/iKpgICbxrWJ
r/H1b3S6PBKYUE2uQs0/ZPnRjjh0VeNnue7JcRoNbe27I2d56KUBsVEPdokjU59v
NYi6Se+ViZXtUbM1u/I0kvDMprAiobwtJFYgcE86N1lFJjHSwDMCAwEAAQKCAYBb
lvnJBA0iPwBiyeFUElNTcg2/XST9hNu2/DU1AeM6X7gxqznCnAXFudD8Qgt9NvF2
xYeIvjbFydk+sYs8Gj9qLqhPUdukMAqI2cRVTmWla/lHPhdZgbOwdf1x23es3k4Z
NAxg/pKFwhK8cCKyA+tWAjKkZwODDk42ljt0kUEvbLbye1hVGAJQOJKRRmo/uLrj
rcNELnCBtc5ffT2hrlHUU7qz1ozt/brXhYa+JnbXhKZMxcKyMD2KtmXXrFNEy99o
jXbrpDCos82bzQfPDo8IpCbVbEd2J00aFmrNjQWhZuXX5dXflrujW4J0nzeHrZ78
rNAz2/YuZ543BTB3XbogeFuLC5RqBgAMmw2WJ96Oa/UG8nZNvEw54N5r6dhfXj6A
VlJFLVwlfBQdAdaM3P4uZ6WECrH3EerQa27qyUdRrcDaGPLt7wG9FmMivnW1KQsy
5ow/gM0CsxFj2xNoGw1S5jtclbgSy8HNJaBsNk4XMQ+ORABZdG1MTTE+GMSjD/EC
gcEA+6JYiZEo+QrvItIZYB6Go4suu/F8df1pEjJlxwp2GmObitRhtV6r9g9IySFv
5SL7ZxARr4aQxvM7fNp57p9ssmkBtY0ofMjJAxhvs4T37bAcGK/2xCegNSmbqh24
FAWpRDMgE5PjtuWC5jTvSOYFeUxwI/cu0HxWdxJl2dPUSL1nI2jP+ok3pZobEQk9
E2+MlHpKmU+s/lAkuQiP+AW9a4M+ZJNWxocJjmtwj4OjJXPm7GddA/5x622DxFe6
4K2vAoHBAMFC0An25bwGoFrCV/96s45K4qZcZcJ660+aK3xXaq6/8KfiusJnWds2
nc0B6jYjKs8A7yTAGXke6fmyVsoLosZiXsbpW2m16g8jL79Tc85O9oDNmDIGk1uT
tRLZc2BvmHmy/dNrdbT/EHC3FKNWQVqWc2sHhPeB6F3hIEXDSUO/GB0njMZNXrPJ
547RlhN0xCLb3vTzzGHwNmwfI81YjV/XI4vpJjq1YceN8Xyd1r5ZOFfU8woIACO3
I4dvBQ1avQKBwQCLDs9wzohfAFzg2Exvos7y6AKemDgYmD8NcE5wbWaQ9MTLNsz8
RuIu64lkpRbKAMf/z5CGeI3fdCFGwRGq/e06tu7b3rMmKmtzS3jHM08zyiPsvKlZ
AzD00BaXLy8/2VUOPFaYmxy3QSRShaRKm9sgik5agcocKuo5iTBB7V8eB5VMqyps
IJJg8MXOZ1WaPQXqM56wFKjcLXvtyT6OaNWh6Xh8ajQFKDDuxI8CsFNjaiaONBzi
DSX1XaL4ySab7T8CgcEAsI+7xP6+EDP1mDVpc8zD8kHUI6zSgwUNqiHtjKHIo3JU
CO2JNkZ5v158eGlBcshaOdheozKlkxR9KlSWGezbf2crs4pKq585AS9iVeeGK3vU
lQRAAaQkSEv/6AKl9/q8UKMIZnkMhploibGZt0f8WSiOtb+e6QjUI8CjXVj2vF//
RdN2N01EMflKBh7Qf2H0NuytGxkJJojxD4K7kMVQE7lXjmEpPgWsGUZC01jYcfrN
EOFKUWXRys9sNDVnZjX5AoHAFRyOC1BlmVEtcOsgzum4+JEDWvRnO1hP1tm68eTZ
ijB/XppDtVESpq3+1+gx2YOmzlUNEhKlcn6eHPWEJwdVxJ87Gdh03rIV/ZQUKe46
3+j6l/5coN4WfCBloy4b+Tcj+ZTL4sKaLm33RoD2UEWS5mmItfZuoEFQB958h3JD
1Ka1tgsLnuYGjcrg+ALvbM5nQlefzPqPJh0C8UV3Ny/4Gd02YgHw7Yoe4m6OUqQv
hctFUL/gjIGg9PVqTWzVVKaI
-----END PRIVATE KEY-----
Certificate:
    Data:
        Version: 1 (0x0)
        Serial Number:
            cb:2d:80:99:5a:69:52:61
        Signature Algorithm: sha256WithRSAEncryption
        Issuer: C=XY, O=Python Software Foundation CA, CN=our-ca-server
        Validity
            Not Before: Aug 29 14:23:16 2018 GMT
            Not After : Oct 28 14:23:16 2037 GMT
        Subject: C=XY, L=Castle Anthrax, O=Python Software Foundation, CN=nosan
        Subject Public Key Info:
            Public Key Algorithm: rsaEncryption
                Public-Key: (3072 bit)
                Modulus:
                    00:bd:f7:11:18:3d:3c:05:37:f8:e2:8b:49:66:d7:
                    57:24:10:68:5c:c5:c8:92:b0:88:13:82:2a:2b:e7:
                    80:8b:81:0c:bb:25:79:65:4d:89:80:58:54:d3:83:
                    6c:cd:06:f0:cc:7b:11:88:d2:1f:b1:b5:9e:2a:d5:
                    17:a7:82:18:2d:df:73:77:63:a0:93:de:ff:cb:ec:
                    99:04:d5:a6:d0:6c:5b:de:29:6f:f2:76:5c:47:d3:
                    e8:cb:96:c1:0d:49:68:f2:4b:00:bc:d3:e7:fd:2f:
                    76:d7:4d:c0:fc:4f:81:6e:f5:4b:72:d9:18:35:6b:
                    f1:32:7a:49:e0:e5:19:9f:92:62:cd:83:17:e7:5f:
                    94:79:9d:68:61:d0:08:9a:ee:1d:c0:c7:6c:c2:00:
                    b7:f1:a9:92:26:7f:1c:1a:bc:48:07:b1:6f:f2:66:
                    2f:93:f9:ea:09:c1:ed:22:ed:ae:8b:69:4a:0b:aa:
                    c3:d5:f5:98:5a:83:38:8d:0d:a6:a9:a4:f1:c7:e3:
                    63:56:df:d5:a5:46:1c:75:52:3b:62:46:6d:89:8a:
                    19:f3:c5:c7:ec:fb:dd:33:2d:74:a9:e6:9c:68:fd:
                    c1:3d:21:ae:1d:f2:27:aa:dd:1c:5d:fd:78:23:94:
                    5e:85:5d:71:49:8f:07:cb:df:a0:f0:7a:1c:bc:9b:
                    73:ca:28:0b:8e:f9:fc:8c:80:f3:cf:31:06:fb:a1:
                    a4:72:fc:c0:46:d0:d6:b2:46:b7:93:c3:22:88:2d:
                    2d:b3:69:f2:16:fe:22:a9:80:80:9b:c6:b5:89:af:
                    f1:f5:6f:74:ba:3c:12:98:50:4d:ae:42:cd:3f:64:
                    f9:d1:8e:38:74:55:e3:67:b9:ee:c9:71:1a:0d:6d:
                    ed:bb:23:67:79:e8:a5:01:b1:51:0f:76:89:23:53:
                    9f:6f:35:88:ba:49:ef:95:89:95:ed:51:b3:35:bb:
                    f2:34:92:f0:cc:a6:b0:22:a1:bc:2d:24:56:20:70:
                    4f:3a:37:59:45:26:31:d2:c0:33
                Exponent: 65537 (0x10001)
    Signature Algorithm: sha256WithRSAEncryption
    Signature Value:
        7e:dd:64:64:92:6c:b9:41:ce:f3:e3:f8:e6:9f:c8:5b:32:39:
        8c:03:5b:5e:7e:b3:23:ca:6c:d1:99:2f:53:af:9d:3c:84:cd:
        c6:ce:0a:ee:94:de:ff:a7:06:81:7e:e2:38:a5:05:39:58:22:
        dc:13:83:53:e7:f8:16:cb:93:dc:cf:4b:e6:1b:9f:9e:71:ef:
        ee:ba:ea:b6:68:5c:32:22:7e:54:4f:46:a6:0b:11:8f:ef:05:
        6e:d3:0b:d0:a8:be:95:23:a2:e4:e7:a8:a2:a4:7d:98:52:86:
        a4:15:fb:74:7a:9a:89:23:43:20:26:3a:56:9e:a3:6e:54:02:
        76:4e:25:9c:a1:8c:03:99:e5:eb:a6:61:b4:9c:2a:b1:ed:eb:
        94:f9:14:aa:a4:c3:f0:f7:7a:03:a3:b1:f8:c0:83:79:ab:8a:
        93:7f:0a:95:08:50:ff:55:19:ac:28:a2:c8:9f:a6:77:72:a3:
        da:37:a9:ff:f3:57:70:c8:65:d9:55:14:84:b4:b3:78:86:82:
        da:84:2c:48:19:51:ec:9d:20:b1:4d:18:fb:82:9f:7b:a7:80:
        22:69:25:83:4d:bf:ac:31:64:f5:39:11:f1:ed:53:fb:67:ab:
        91:86:c5:4d:87:e8:6b:fe:9a:84:fe:6a:92:6b:62:c1:ae:d2:
        f0:cb:06:6e:f3:50:f4:8d:6d:fa:7d:6a:1c:64:c3:98:91:da:
        c9:8c:a9:79:e5:48:4c:a2:de:42:28:e8:0e:9f:52:6a:a4:e0:
        c7:ac:11:9c:ba:5d:d6:84:93:56:28:f1:6d:83:aa:62:b2:b7:
        56:c6:64:d9:96:4e:97:ab:4e:8f:ba:f6:ab:b9:17:52:98:32:
        7f:b5:12:fa:39:d7:34:2a:f3:ed:40:90:6f:66:7b:b6:c1:9d:
        b9:53:d0:e3:e9:69:8c:cf:7a:fd:08:0a:62:47:d4:ce:72:f7:
        6f:80:b4:1d:18:7a:ba:a2:a9:45:49:ef:9c:0b:99:89:03:ab:
        5f:7a:9d:c5:77:b7
-----BEGIN CERTIFICATE-----
MIIEJDCCAowCCQDLLYCZWmlSYTANBgkqhkiG9w0BAQsFADBNMQswCQYDVQQGEwJY
WTEmMCQGA1UECgwdUHl0aG9uIFNvZnR3YXJlIEZvdW5kYXRpb24gQ0ExFjAUBgNV
BAMMDW91ci1jYS1zZXJ2ZXIwHhcNMTgwODI5MTQyMzE2WhcNMzcxMDI4MTQyMzE2
WjBbMQswCQYDVQQGEwJYWTEXMBUGA1UEBwwOQ2FzdGxlIEFudGhyYXgxIzAhBgNV
BAoMGlB5dGhvbiBTb2Z0d2FyZSBGb3VuZGF0aW9uMQ4wDAYDVQQDDAVub3NhbjCC
AaIwDQYJKoZIhvcNAQEBBQADggGPADCCAYoCggGBAL33ERg9PAU3+OKLSWbXVyQQ
aFzFyJKwiBOCKivngIuBDLsleWVNiYBYVNODbM0G8Mx7EYjSH7G1nirVF6eCGC3f
c3djoJPe/8vsmQTVptBsW94pb/J2XEfT6MuWwQ1JaPJLALzT5/0vdtdNwPxPgW71
S3LZGDVr8TJ6SeDlGZ+SYs2DF+dflHmdaGHQCJruHcDHbMIAt/GpkiZ/HBq8SAex
b/JmL5P56gnB7SLtrotpSguqw9X1mFqDOI0Npqmk8cfjY1bf1aVGHHVSO2JGbYmK
GfPFx+z73TMtdKnmnGj9wT0hrh3yJ6rdHF39eCOUXoVdcUmPB8vfoPB6HLybc8oo
C475/IyA888xBvuhpHL8wEbQ1rJGt5PDIogtLbNp8hb+IqmAgJvGtYmv8fVvdLo8
EphQTa5CzT9k+dGOOHRV42e57slxGg1t7bsjZ3nopQGxUQ92iSNTn281iLpJ75WJ
le1RszW78jSS8MymsCKhvC0kViBwTzo3WUUmMdLAMwIDAQABMA0GCSqGSIb3DQEB
CwUAA4IBgQB+3WRkkmy5Qc7z4/jmn8hbMjmMA1tefrMjymzRmS9Tr508hM3Gzgru
lN7/pwaBfuI4pQU5WCLcE4NT5/gWy5Pcz0vmG5+ece/uuuq2aFwyIn5UT0amCxGP
7wVu0wvQqL6VI6Lk56iipH2YUoakFft0epqJI0MgJjpWnqNuVAJ2TiWcoYwDmeXr
pmG0nCqx7euU+RSqpMPw93oDo7H4wIN5q4qTfwqVCFD/VRmsKKLIn6Z3cqPaN6n/
81dwyGXZVRSEtLN4hoLahCxIGVHsnSCxTRj7gp97p4AiaSWDTb+sMWT1ORHx7VP7
Z6uRhsVNh+hr/pqE/mqSa2LBrtLwywZu81D0jW36fWocZMOYkdrJjKl55UhMot5C
KOgOn1JqpODHrBGcul3WhJNWKPFtg6pisrdWxmTZlk6Xq06PuvaruRdSmDJ/tRL6
Odc0KvPtQJBvZnu2wZ25U9Dj6WmMz3r9CApiR9TOcvdvgLQdGHq6oqlFSe+cC5mJ
A6tfep3Fd7c=
-----END CERTIFICATE-----
