-----BEGIN PRIVATE KEY-----
MIIG/AIBADANBgkqhkiG9w0BAQEFAASCBuYwggbiAgEAAoIBgQCqSTtlBvKB6DHV
FcKy5eUP4yGR9b2zGlUwqjWzW5xNNDDVIg3ITz/Qd4MU1LSZxEJUmoKpQbB+5fVB
V82to2mCf++RZsSIWVTEh+GqRSD7YhEtQpWw8px7HDxP5yaGwNhLTWIDHVt/lDBo
aPOUrAw46BoX75qPfOXNpaJf1ZBLinuNOIGqW2JBz6bKliayGqUP0pH652L89LpA
zcSZewL0WnlVk/KZoPErx7azhsJMnKLcLehQDblq/Hu+Vs+Awf1iaVIGJH06sBZf
KYgoI/XDYAXWuSMvJ7BNRox6M4iMuJO7E+9omxJp6zbfWZrkFh1RZRjugl3qpVMC
WVjZ4wEaFQO4EBzreZotLxyjazpyWN3UDKfDvtf1QQp8+Rmjifso36bWj0Kwez47
lm4JlWSNczSiho4x7b0cX/COQYsOECuD6+2hEHYlAih6cy9PpsXen82Wqd4i/mqu
n0lp32AXu8s0t0FWxy/INqGblyXPx6Qv0V9eEz66P+2CxZzmjakCAwEAAQKCAYAF
WfDgSRJtalNIlD+Xy0um6mlnaYf7b3Jy++JdNkJoX/zlTTN8LftiusdS0JVp7lzO
jlV9V9U9VfNVZJrP+4LtpHxlCB5rWvHj+xGfdON5j30lMxUDsVyzdwO6V890mdt9
q7/FlhJYku05O1UcAQCPLx2EzvnaprqfVqROfcHR7VcRI/SQo8nn38NfsM3tbwCR
bh46OrPKacFvYGpTNErS8PFbIKjMiac3J2QpfMgfArnZ7AFDgDN7v1W2C+Zr1MOi
aSrOzuuOsh3GJ1psH0I6E8hNqkwBcoA5NbcbECyf+Fzw58B9Wv/u0f4BAoPYUgnv
AO3jiSQKX0DWZ4W4ZIRWQ/6JhrTaPl/zIHS+qiT5iyRDkYOrkjawBRXS6nXfLEBH
bR2kiIYhNgaWvXM0mHzCg2AnVo71Nde4pnQAuZH7ztzYmoWoKhLNJdvjcWwEBb0U
ETKGdAXQIcyTXbXNjWwU1OUE8snZyyJZDhZelvALHfTo+B7Qbq9n6SIGwi89rzUC
gcEA25yWhJgDXN7AS/B9yR2Ep1xfbIrq37DrNeHJANMandv+fTBbi3a+iDpKgMNj
/iBITXrqkobTzMhLQ753XVlgzE5c0kkhKLt/cos9yyWcuUpHu1J2QKVKBwbiHhWq
3HfQiUg4Klzgl0gCrINFLwCpW5TTpWSOV/9GvfDNyNOYCbACvDCO1ZStmiSYO9lr
H1k2ONS6xYIZWPVKBVBiSfp76TQT3HGKb1HgpS6gbNYlfevOseJh1lyWRHnnXFDd
UwfNAoHBAMaAXg2o3Bflvi/ifwQwNAKCakzTDkw7OOvp/daX6Q5pwjomOWi1s1FD
lDx2z67qEUcW2WQyLXZ713ctODI5wvmY3PKcrclYvGzbnf+hjLJzPoqK4qoPYOVo
bhN7oz4CumzYiyZc5Chs3/zl11/A0WQhkZ8GV2enWD/O29hKsprdOKeicULjqZBz
zm/URto+F0z5LoRk7Bazj69b45AOPWtxypYfQDkcnxG3nTuAOFUOFCzGeSu9le6Q
46OxaUMJTQKBwC1MWUe0S01GrQd87ZUkP4594Tj0VooZZgrRLbK72IujKxULenaD
4b0buO5iXye15PQGXIgow1tEHTI2AU0B+JNrvn2pk+tg8WLhEbfrZC5cAfvDgJzI
+0IDy3RFJ98d36fRe7RRQAo0UkjfMtAFJOm9AwLkgO/pud/H4cqAyqWE5quGoI+x
gTWAQt5ldFEdB7AlQPkoYq4UulXqRLvZrOFnWoln6hQYIWww9+o7KbSVhSbv+RpM
MrqhInXKQDy2KQKBwGDO1g/fXIejGiAMXFnUkGjw5ZrWC9ENyPL1SUDREW5gEcN+
RN1WUD+/r5nVb/AkY4zCDf+ZoSZ5u1l6CkAkf3xvGsKPuwnJZwvIB8RWK2IUZln2
5hh+K4l2ZsjFsZVai0TuTt7EytkUUCDsjx850GT/Ih/mXdZFfPqRjhJsS7LPVQQc
axRuJ5I1iGZtpqhlQ8Pcet1CwwlHRToGnHLzHu05r82LLC0uUj23yMzt+YsxtJEp
soqsiWSx8PMyYN26uQKBwGUCAMyeDcOF0wBzA/zXDesuwcmdDlVwkg5vpXVpF1sB
bDu7CrwZ8psV/ERCudvuLCFYdp0xvf1AS96vdX4rs3Zx4cR2geQNgZrwv3lOC/I2
qh+w+27L1/VVoJaTPOL7VAAPbR7AydFJEtuRB7bYSlZ7hzbt1r+eWN+4K3+jJIJ1
d3aWV4DQuKjZiMkEGhQmFvA/MeYNiPBYywDRlO7QLQAtyHC2AxvDjM84ZxejU1RP
PPwOl115SzT/vpl70OOmsw==
-----END PRIVATE KEY-----
Certificate:
    Data:
        Version: 1 (0x0)
        Serial Number:
            cb:2d:80:99:5a:69:52:61
        Signature Algorithm: sha256WithRSAEncryption
        Issuer: C=XY, O=Python Software Foundation CA, CN=our-ca-server
        Validity
            Not Before: Aug 29 14:23:16 2018 GMT
            Not After : Oct 28 14:23:16 2525 GMT
        Subject: C=XY, L=Castle Anthrax, O=Python Software Foundation, CN=nosan
        Subject Public Key Info:
            Public Key Algorithm: rsaEncryption
                Public-Key: (3072 bit)
                Modulus:
                    00:aa:49:3b:65:06:f2:81:e8:31:d5:15:c2:b2:e5:
                    e5:0f:e3:21:91:f5:bd:b3:1a:55:30:aa:35:b3:5b:
                    9c:4d:34:30:d5:22:0d:c8:4f:3f:d0:77:83:14:d4:
                    b4:99:c4:42:54:9a:82:a9:41:b0:7e:e5:f5:41:57:
                    cd:ad:a3:69:82:7f:ef:91:66:c4:88:59:54:c4:87:
                    e1:aa:45:20:fb:62:11:2d:42:95:b0:f2:9c:7b:1c:
                    3c:4f:e7:26:86:c0:d8:4b:4d:62:03:1d:5b:7f:94:
                    30:68:68:f3:94:ac:0c:38:e8:1a:17:ef:9a:8f:7c:
                    e5:cd:a5:a2:5f:d5:90:4b:8a:7b:8d:38:81:aa:5b:
                    62:41:cf:a6:ca:96:26:b2:1a:a5:0f:d2:91:fa:e7:
                    62:fc:f4:ba:40:cd:c4:99:7b:02:f4:5a:79:55:93:
                    f2:99:a0:f1:2b:c7:b6:b3:86:c2:4c:9c:a2:dc:2d:
                    e8:50:0d:b9:6a:fc:7b:be:56:cf:80:c1:fd:62:69:
                    52:06:24:7d:3a:b0:16:5f:29:88:28:23:f5:c3:60:
                    05:d6:b9:23:2f:27:b0:4d:46:8c:7a:33:88:8c:b8:
                    93:bb:13:ef:68:9b:12:69:eb:36:df:59:9a:e4:16:
                    1d:51:65:18:ee:82:5d:ea:a5:53:02:59:58:d9:e3:
                    01:1a:15:03:b8:10:1c:eb:79:9a:2d:2f:1c:a3:6b:
                    3a:72:58:dd:d4:0c:a7:c3:be:d7:f5:41:0a:7c:f9:
                    19:a3:89:fb:28:df:a6:d6:8f:42:b0:7b:3e:3b:96:
                    6e:09:95:64:8d:73:34:a2:86:8e:31:ed:bd:1c:5f:
                    f0:8e:41:8b:0e:10:2b:83:eb:ed:a1:10:76:25:02:
                    28:7a:73:2f:4f:a6:c5:de:9f:cd:96:a9:de:22:fe:
                    6a:ae:9f:49:69:df:60:17:bb:cb:34:b7:41:56:c7:
                    2f:c8:36:a1:9b:97:25:cf:c7:a4:2f:d1:5f:5e:13:
                    3e:ba:3f:ed:82:c5:9c:e6:8d:a9
                Exponent: 65537 (0x10001)
    Signature Algorithm: sha256WithRSAEncryption
    Signature Value:
        89:f4:77:f9:e2:2c:b5:66:14:44:ad:8e:e0:1a:56:bf:2a:af:
        37:54:97:1c:fd:67:25:50:ef:94:a1:6c:56:ce:e3:98:6f:51:
        f4:05:42:b8:8d:41:8f:89:90:41:a4:49:5b:79:8d:70:0c:41:
        51:50:30:42:74:94:c6:82:43:1d:e9:26:dc:e3:29:01:cf:19:
        fd:96:06:06:72:96:dd:a0:85:e9:ea:ab:d4:c7:e9:82:af:4f:
        4b:c1:b2:ef:52:f0:91:34:b9:fa:76:c7:cc:f5:99:fd:e8:7b:
        b2:0d:fb:3d:7f:bb:71:7c:61:27:c8:e3:19:43:a1:b3:1c:2d:
        8e:1d:fd:2f:05:e0:58:71:f8:b0:93:3f:96:f0:45:82:7a:39:
        c2:df:21:0b:9f:4b:7c:83:45:81:3f:4b:af:b5:5e:2e:e7:f2:
        66:89:3a:02:47:3e:9a:e6:5a:30:22:95:a5:29:64:68:95:b0:
        28:de:8d:16:90:5e:cf:c9:35:9c:a0:fe:00:1f:f5:db:b2:67:
        0a:52:aa:03:04:ec:b4:49:03:73:19:c6:97:43:ea:f5:a1:d5:
        4d:21:68:11:ed:92:c3:2d:d1:fb:9d:18:1f:7d:14:2a:9c:ac:
        8e:28:e0:f9:a0:d4:de:fe:f8:6b:62:92:35:a4:a6:cd:8a:fd:
        cf:b7:f7:96:d8:35:c4:2a:41:ca:df:95:d5:5f:60:4d:53:e4:
        b5:83:49:97:22:3b:28:e8:5c:7a:57:82:ac:28:5f:de:c9:79:
        3c:22:ea:59:aa:db:38:2a:55:61:2e:29:e8:f7:74:5d:3a:fd:
        bb:e2:f2:d7:91:03:a7:46:26:e7:4f:da:50:e7:74:6f:24:aa:
        3b:b2:1d:54:29:51:a1:4d:68:05:cd:8a:1e:9e:50:9e:b4:ed:
        35:4a:20:f9:d4:31:15:c0:c6:29:94:bc:9b:d7:58:6a:c3:5d:
        2f:36:ad:d1:6c:09:da:a3:56:03:4e:5b:8e:13:9a:37:6f:22:
        2d:d1:21:01:e4:1f
-----BEGIN CERTIFICATE-----
MIIEJjCCAo4CCQDLLYCZWmlSYTANBgkqhkiG9w0BAQsFADBNMQswCQYDVQQGEwJY
WTEmMCQGA1UECgwdUHl0aG9uIFNvZnR3YXJlIEZvdW5kYXRpb24gQ0ExFjAUBgNV
BAMMDW91ci1jYS1zZXJ2ZXIwIBcNMTgwODI5MTQyMzE2WhgPMjUyNTEwMjgxNDIz
MTZaMFsxCzAJBgNVBAYTAlhZMRcwFQYDVQQHDA5DYXN0bGUgQW50aHJheDEjMCEG
A1UECgwaUHl0aG9uIFNvZnR3YXJlIEZvdW5kYXRpb24xDjAMBgNVBAMMBW5vc2Fu
MIIBojANBgkqhkiG9w0BAQEFAAOCAY8AMIIBigKCAYEAqkk7ZQbygegx1RXCsuXl
D+MhkfW9sxpVMKo1s1ucTTQw1SINyE8/0HeDFNS0mcRCVJqCqUGwfuX1QVfNraNp
gn/vkWbEiFlUxIfhqkUg+2IRLUKVsPKcexw8T+cmhsDYS01iAx1bf5QwaGjzlKwM
OOgaF++aj3zlzaWiX9WQS4p7jTiBqltiQc+mypYmshqlD9KR+udi/PS6QM3EmXsC
9Fp5VZPymaDxK8e2s4bCTJyi3C3oUA25avx7vlbPgMH9YmlSBiR9OrAWXymIKCP1
w2AF1rkjLyewTUaMejOIjLiTuxPvaJsSaes231ma5BYdUWUY7oJd6qVTAllY2eMB
GhUDuBAc63maLS8co2s6cljd1Aynw77X9UEKfPkZo4n7KN+m1o9CsHs+O5ZuCZVk
jXM0ooaOMe29HF/wjkGLDhArg+vtoRB2JQIoenMvT6bF3p/NlqneIv5qrp9Jad9g
F7vLNLdBVscvyDahm5clz8ekL9FfXhM+uj/tgsWc5o2pAgMBAAEwDQYJKoZIhvcN
AQELBQADggGBAIn0d/niLLVmFEStjuAaVr8qrzdUlxz9ZyVQ75ShbFbO45hvUfQF
QriNQY+JkEGkSVt5jXAMQVFQMEJ0lMaCQx3pJtzjKQHPGf2WBgZylt2ghenqq9TH
6YKvT0vBsu9S8JE0ufp2x8z1mf3oe7IN+z1/u3F8YSfI4xlDobMcLY4d/S8F4Fhx
+LCTP5bwRYJ6OcLfIQufS3yDRYE/S6+1Xi7n8maJOgJHPprmWjAilaUpZGiVsCje
jRaQXs/JNZyg/gAf9duyZwpSqgME7LRJA3MZxpdD6vWh1U0haBHtksMt0fudGB99
FCqcrI4o4Pmg1N7++GtikjWkps2K/c+395bYNcQqQcrfldVfYE1T5LWDSZciOyjo
XHpXgqwoX97JeTwi6lmq2zgqVWEuKej3dF06/bvi8teRA6dGJudP2lDndG8kqjuy
HVQpUaFNaAXNih6eUJ607TVKIPnUMRXAximUvJvXWGrDXS82rdFsCdqjVgNOW44T
mjdvIi3RIQHkHw==
-----END CERTIFICATE-----
