-----BEGIN PRIVATE KEY-----
MIIG/gIBADANBgkqhkiG9w0BAQEFAASCBugwggbkAgEAAoIBgQDNTJPVCiH8dXgo
MlptD9ichtglfLbByYh1qWodNoBZ6SNq7Tq4gqatVD2m68p/xG8N3ryi5dcvTsZ2
p3W0TVLqWXGWQsym2VaF/cdA7DwwbkLyO7UoJxP+OZg2YPccI9lotPMfUJmfLC76
fl4YZ9c0AGViWaZI2SINMUDdOKZx4BvMyNTDNn9wWmkvweSTsevaNF+AN42Sevxb
X0+LAUlju82MyTw3WoV2+fo9fXU8Piki5kYxoO3/vym/1M4g9a/HiFumW3DfTu1/
TkddWAl+qrCB/NyoiQfhy2cOjp1l4DuMm1xZY4tcfj8LyS1ilXHDgqpkk4Ca2Vib
PhlFF2ZTMSQbUUF4Ym27TLk6mCHxnRL6VZSZEBR2BN5b52CKrKnqj4Yz1+gMsAsq
JUz2bu5v5Kul8F33nqmD4B/snvGf7JMNY+AeUtgFljPaIM+Kuliz5zu/1+qeDx7p
wfJXPJatw1NZy4FDJw9tu7keZaADa6r8gm2iYfktDvY42GRzYaMCAwEAAQKCAYAY
1AXdkhFPJ2O7NMUT2IKWrNt6GSLpvSDy3eTBQ1nyxbZsqY5cScy050cM0gpWOQrs
j1SakhexQc0lr2tAPXO6zMtnDo1n256nq2vhXFCL04yRdWAbdYe+S00vEmYAMg5f
0ovD7JWk7DfYP9fLCs/kxZbSoKCdbHO+SwfFrqK5NeRsIpj8l4bXryTLy56vBVRO
j4lB3TYSvNXv36R5Mql4qs9D6K25d19EZsdOkBwmsiZ7xoPptO/jlJpiIpnf3uZw
uCaSbbrrhQFdllRIC00bPh+5bChpOGDX51BzBhPO8NOgl8EPDVehsOY89HSzGzQt
n7JXYn+yLyOTuwRJlK8unrxXPdgF5jLRhvcjx7GkZzXBmyJDwaMmNcTbx8IJ/gkA
ksDGuHsO+XUHt2H7CvxaDkLorbGBgp3iLZA/i4iSOnwMBoEDQRZ3cYE7sWYdJoor
rd3MyHLAgo5rVyH7EBQVqJFpEVMz4d8iRK3uLUj8SUZhpby0ZWBLHGZI0MaBGWkC
gcEA/V5ePLTAnggnB7a1Sb01eTmJwwo8DTaDui/x1QuSjx3OAZk4Pmx9Fijq3tvE
kugZkdmsirnKAnCT3hs2hs146Q4HBkYsAgcwQVQMDI9Ht86F7XHjuxWoHSiWIQ4q
sK5nNooj37yVdaF1AlbeOJ4vJm97pCQvncDWbNAdYO0twdx+nTaBPA6xOVuxQuRG
tZWwgXZsPaj1tiL0w1oiEYekGXMxJH2vXnf6Ysned04H0rlEGQnUpHKFs5Weoi5+
YeaLAoHBAM9uaCeHoG+0NaDKAqvQMVq+Jh60CVNRSWt6vOnCIOo8sJrI+3Z2OTc8
2n9YCoFwstDNs3fWaoY1XcRbiHESjsMTioj0Y+ur7YnvLjEoJzKXunFAsihBAuZV
rWljYefAGFbHyz5NO331td+STQHRThpcjLE1CQW/2UbUahreZM/+nlRfA364smv/
qQPs2kYna0SQmWsU0IQ/S4CmAw0s7gtdJIeGfybNyaVdF7Vrt/GTSskA1KfNB6ds
qwFy9pJsSQKBwQD38szYLa8+OA4yD0xUUFSvQG6frzlbWNkKcPcBnaScZ/d9Ovt+
o166O+q1k25IsdisEdA3pl+ZiaA7QHhY7WWA9RhMvIk+pthDZkOwWts9dl88IjNR
l30ApAJfcOS4KMSa7A71WjENf6bpVid8UtkjjP/7fuoWQGvW6seFXjZkPCqwIXHR
WzN2RVQweQL1mvqzhzegE+P5jTXooyEp9IrT2RXjdxgSo+klmhYavQMM5f9NXYB6
OhS7zRUD8+n8VscCgcEAgzpw8BkwmZqjls5WNEYpAyRqz1/MyoYRccqbezNSSX4N
qE7gL0iJ1/VKseeL9enLZqfME1N13uQiJxhVUFuSL73MFequ0CjbxTiou3aQncQ5
sm5gh3DhmcC4TYUPKmNvwm7xmL+ZlI1++yr+RtkYlTrZ0z4fMCD4H4RAgDEUDDYk
CnJ1rpTAY+zBC3ere1hy11S3inQHmrLEXGYqZgp3qn7JnmerR2xHVrN3TVIRc+Zg
GJvK7UGbxwLLiMYnUejpAoHAT6qODZS9CclDimC+i62JydRnA+Km0+lzqs1CmDRR
fRCF9QLe74RYe+YniB8rEC/ha3763kJ50+zmOFyUr/SsI2zAwMaePrTQkt+icavu
tQdWYTYR7jOs5HPLnVaMqv8ItubWhlRZvfEZLsvhhY/B9wVx60+04/Bi8R35csvQ
nyDibVK59yn7sscnY0dMUlLaGOq6pDqbHJoutUSgFIhxRLJyY+ujtsDN6Vzbh0Eb
QpBKZcQlEVMbq875JcO5il3P
-----END PRIVATE KEY-----
Certificate:
    Data:
        Version: 1 (0x0)
        Serial Number:
            cb:2d:80:99:5a:69:52:61
        Signature Algorithm: sha256WithRSAEncryption
        Issuer: C=XY, O=Python Software Foundation CA, CN=our-ca-server
        Validity
            Not Before: Aug 29 14:23:16 2018 GMT
            Not After : Oct 28 14:23:16 2037 GMT
        Subject: C=XY, L=Castle Anthrax, O=Python Software Foundation, CN=nosan
        Subject Public Key Info:
            Public Key Algorithm: rsaEncryption
                Public-Key: (3072 bit)
                Modulus:
                    00:cd:4c:93:d5:0a:21:fc:75:78:28:32:5a:6d:0f:
                    d8:9c:86:d8:25:7c:b6:c1:c9:88:75:a9:6a:1d:36:
                    80:59:e9:23:6a:ed:3a:b8:82:a6:ad:54:3d:a6:eb:
                    ca:7f:c4:6f:0d:de:bc:a2:e5:d7:2f:4e:c6:76:a7:
                    75:b4:4d:52:ea:59:71:96:42:cc:a6:d9:56:85:fd:
                    c7:40:ec:3c:30:6e:42:f2:3b:b5:28:27:13:fe:39:
                    98:36:60:f7:1c:23:d9:68:b4:f3:1f:50:99:9f:2c:
                    2e:fa:7e:5e:18:67:d7:34:00:65:62:59:a6:48:d9:
                    22:0d:31:40:dd:38:a6:71:e0:1b:cc:c8:d4:c3:36:
                    7f:70:5a:69:2f:c1:e4:93:b1:eb:da:34:5f:80:37:
                    8d:92:7a:fc:5b:5f:4f:8b:01:49:63:bb:cd:8c:c9:
                    3c:37:5a:85:76:f9:fa:3d:7d:75:3c:3e:29:22:e6:
                    46:31:a0:ed:ff:bf:29:bf:d4:ce:20:f5:af:c7:88:
                    5b:a6:5b:70:df:4e:ed:7f:4e:47:5d:58:09:7e:aa:
                    b0:81:fc:dc:a8:89:07:e1:cb:67:0e:8e:9d:65:e0:
                    3b:8c:9b:5c:59:63:8b:5c:7e:3f:0b:c9:2d:62:95:
                    71:c3:82:aa:64:93:80:9a:d9:58:9b:3e:19:45:17:
                    66:53:31:24:1b:51:41:78:62:6d:bb:4c:b9:3a:98:
                    21:f1:9d:12:fa:55:94:99:10:14:76:04:de:5b:e7:
                    60:8a:ac:a9:ea:8f:86:33:d7:e8:0c:b0:0b:2a:25:
                    4c:f6:6e:ee:6f:e4:ab:a5:f0:5d:f7:9e:a9:83:e0:
                    1f:ec:9e:f1:9f:ec:93:0d:63:e0:1e:52:d8:05:96:
                    33:da:20:cf:8a:ba:58:b3:e7:3b:bf:d7:ea:9e:0f:
                    1e:e9:c1:f2:57:3c:96:ad:c3:53:59:cb:81:43:27:
                    0f:6d:bb:b9:1e:65:a0:03:6b:aa:fc:82:6d:a2:61:
                    f9:2d:0e:f6:38:d8:64:73:61:a3
                Exponent: 65537 (0x10001)
    Signature Algorithm: sha256WithRSAEncryption
    Signature Value:
        21:67:42:a3:20:80:df:4c:3f:3c:3f:64:89:03:a9:35:a7:e3:
        c8:6d:c5:d3:c9:f8:25:fe:9f:4a:84:22:e7:dc:21:d7:2e:35:
        57:3b:19:1c:28:71:46:a8:9e:9e:5b:a9:4d:e7:1a:4c:3a:28:
        4e:28:a4:aa:10:5c:5a:13:06:0e:43:7d:fe:09:dd:46:c3:7f:
        45:33:88:3c:cd:5a:a4:2a:60:64:66:ce:31:ac:53:15:e0:f4:
        1d:c1:7d:15:03:43:0b:c9:61:72:0e:1c:15:29:b1:25:52:93:
        71:a4:b8:8b:78:52:89:48:70:fc:8a:0c:af:5b:75:0f:82:a6:
        d3:d8:9c:df:7f:30:74:1b:b0:04:0e:9c:99:29:8d:36:40:77:
        9c:b4:0d:a3:6a:c1:81:97:99:5d:0e:ad:24:de:df:68:b7:2a:
        be:ac:f2:d6:e8:ec:46:d1:bd:37:67:3d:e3:0f:30:ff:41:9d:
        f8:a1:1c:8a:73:88:76:58:6d:f9:8d:07:32:70:de:61:8c:73:
        2d:9e:97:e0:12:ba:78:7a:f4:c0:94:c6:ae:44:4a:ba:1a:22:
        5f:73:a7:a9:53:8e:3d:2e:a8:b6:df:c8:71:11:68:41:5d:84:
        39:80:96:e1:69:7e:93:c3:a7:ea:d0:25:25:73:a6:de:df:6d:
        a9:d6:46:d5:e2:e0:d3:03:64:78:73:b3:86:ec:a1:f3:a4:48:
        c0:bd:91:6b:39:c8:ab:be:6c:18:5e:5f:a7:93:b9:2e:2e:7a:
        3d:88:59:89:51:af:e5:a8:1b:9a:21:25:0f:57:39:bd:2b:6b:
        18:c4:17:dd:ca:6f:12:9a:53:f4:d0:d0:e7:2f:9c:7a:e4:3e:
        3f:79:cd:d2:74:5c:b6:4d:a3:38:79:00:c4:2a:fa:65:c8:46:
        fe:0f:f5:33:bf:ee:79:39:37:3e:4a:86:23:67:34:a6:55:df:
        41:82:a9:60:7a:c5:66:61:e7:df:4b:2a:aa:f6:e2:c0:93:72:
        0a:96:a3:7c:80:ba
-----BEGIN CERTIFICATE-----
MIIEJDCCAowCCQDLLYCZWmlSYTANBgkqhkiG9w0BAQsFADBNMQswCQYDVQQGEwJY
WTEmMCQGA1UECgwdUHl0aG9uIFNvZnR3YXJlIEZvdW5kYXRpb24gQ0ExFjAUBgNV
BAMMDW91ci1jYS1zZXJ2ZXIwHhcNMTgwODI5MTQyMzE2WhcNMzcxMDI4MTQyMzE2
WjBbMQswCQYDVQQGEwJYWTEXMBUGA1UEBwwOQ2FzdGxlIEFudGhyYXgxIzAhBgNV
BAoMGlB5dGhvbiBTb2Z0d2FyZSBGb3VuZGF0aW9uMQ4wDAYDVQQDDAVub3NhbjCC
AaIwDQYJKoZIhvcNAQEBBQADggGPADCCAYoCggGBAM1Mk9UKIfx1eCgyWm0P2JyG
2CV8tsHJiHWpah02gFnpI2rtOriCpq1UPabryn/Ebw3evKLl1y9OxnandbRNUupZ
cZZCzKbZVoX9x0DsPDBuQvI7tSgnE/45mDZg9xwj2Wi08x9QmZ8sLvp+Xhhn1zQA
ZWJZpkjZIg0xQN04pnHgG8zI1MM2f3BaaS/B5JOx69o0X4A3jZJ6/FtfT4sBSWO7
zYzJPDdahXb5+j19dTw+KSLmRjGg7f+/Kb/UziD1r8eIW6ZbcN9O7X9OR11YCX6q
sIH83KiJB+HLZw6OnWXgO4ybXFlji1x+PwvJLWKVccOCqmSTgJrZWJs+GUUXZlMx
JBtRQXhibbtMuTqYIfGdEvpVlJkQFHYE3lvnYIqsqeqPhjPX6AywCyolTPZu7m/k
q6XwXfeeqYPgH+ye8Z/skw1j4B5S2AWWM9ogz4q6WLPnO7/X6p4PHunB8lc8lq3D
U1nLgUMnD227uR5loANrqvyCbaJh+S0O9jjYZHNhowIDAQABMA0GCSqGSIb3DQEB
CwUAA4IBgQAhZ0KjIIDfTD88P2SJA6k1p+PIbcXTyfgl/p9KhCLn3CHXLjVXOxkc
KHFGqJ6eW6lN5xpMOihOKKSqEFxaEwYOQ33+Cd1Gw39FM4g8zVqkKmBkZs4xrFMV
4PQdwX0VA0MLyWFyDhwVKbElUpNxpLiLeFKJSHD8igyvW3UPgqbT2JzffzB0G7AE
DpyZKY02QHectA2jasGBl5ldDq0k3t9otyq+rPLW6OxG0b03Zz3jDzD/QZ34oRyK
c4h2WG35jQcycN5hjHMtnpfgErp4evTAlMauREq6GiJfc6epU449Lqi238hxEWhB
XYQ5gJbhaX6Tw6fq0CUlc6be322p1kbV4uDTA2R4c7OG7KHzpEjAvZFrOcirvmwY
Xl+nk7kuLno9iFmJUa/lqBuaISUPVzm9K2sYxBfdym8SmlP00NDnL5x65D4/ec3S
dFy2TaM4eQDEKvplyEb+D/Uzv+55OTc+SoYjZzSmVd9BgqlgesVmYeffSyqq9uLA
k3IKlqN8gLo=
-----END CERTIFICATE-----
