Certificate:
    Data:
        Version: 3 (0x2)
        Serial Number:
            cb:2d:80:99:5a:69:52:5b
        Signature Algorithm: sha256WithRSAEncryption
        Issuer: C=XY, O=Python Software Foundation CA, CN=our-ca-server
        Validity
            Not Before: Aug 29 14:23:16 2018 GMT
            Not After : Oct 28 14:23:16 2525 GMT
        Subject: C=XY, O=Python Software Foundation CA, CN=our-ca-server
        Subject Public Key Info:
            Public Key Algorithm: rsaEncryption
                RSA Public-Key: (3072 bit)
                Modulus:
                    00:c2:4c:79:af:d3:63:c6:f8:9a:2e:35:ac:f5:a6:
                    fe:1e:68:de:53:af:1e:63:06:5d:f3:ac:66:8b:96:
                    11:60:c1:c1:38:a0:a8:af:50:de:30:02:9b:48:91:
                    22:6a:e5:5e:77:3a:44:73:0d:3e:be:3d:90:23:89:
                    86:d6:f0:17:ce:26:56:7e:57:c0:fd:a3:b9:a7:e8:
                    80:e4:6c:19:63:bf:a0:af:ad:37:28:52:d8:f3:d8:
                    c9:d7:58:66:c3:70:90:6d:75:c1:14:38:2a:b6:e3:
                    d2:1c:a0:b3:dc:9b:35:68:85:ff:bb:24:e2:66:fd:
                    c3:2c:86:f1:c0:1e:ce:0f:57:ca:c3:4d:d3:49:a1:
                    42:60:2d:30:64:ce:81:d0:c7:63:5f:4b:64:8e:45:
                    cb:c4:67:64:cb:16:c9:cc:03:7a:51:bc:b6:82:0c:
                    b0:a3:f9:e8:44:92:c9:75:29:3f:85:d4:0d:29:d5:
                    e5:d9:55:bd:f6:db:ad:44:a6:a1:79:a4:08:6d:42:
                    aa:10:82:ae:3a:fe:b2:21:ae:55:12:63:43:2c:8e:
                    50:47:eb:26:59:9d:ca:15:d2:dc:7d:b2:c9:38:ab:
                    1e:a0:d8:a9:f7:5d:5b:b7:9e:b8:ee:3e:5c:36:7c:
                    62:76:04:e3:b8:dd:8b:33:a0:7a:c7:3b:e4:5b:81:
                    5b:30:30:14:c8:36:e9:8c:13:28:77:79:5e:d0:97:
                    c3:8d:6a:66:f2:6d:ba:1c:d2:45:96:2f:b7:cf:fc:
                    ea:f7:d1:68:43:ee:9e:88:53:cf:2b:bc:e3:4c:ca:
                    13:5b:c3:e8:6d:4c:61:5b:79:5d:d6:68:b3:0c:d4:
                    86:69:ff:b1:1c:3a:70:71:74:79:3a:21:c0:26:34:
                    46:ae:d4:68:ca:8b:a0:0f:26:82:46:c2:42:71:91:
                    66:5d:28:89:7b:8b:fd:43:69:2d:f1:13:94:7a:40:
                    9e:62:7e:53:d8:7f:b8:ab:f5:b8:6b:cd:87:c2:6a:
                    19:8d:95:84:51:08:64:2e:eb:2d
                Exponent: 65537 (0x10001)
        X509v3 extensions:
            X509v3 Subject Key Identifier: 
                1F:D2:DD:83:47:7D:60:07:C3:9C:D5:BA:76:A6:F4:D4:86:9B:76:4B
            X509v3 Authority Key Identifier: 
                keyid:1F:D2:DD:83:47:7D:60:07:C3:9C:D5:BA:76:A6:F4:D4:86:9B:76:4B

            X509v3 Basic Constraints: 
                CA:TRUE
    Signature Algorithm: sha256WithRSAEncryption
         51:63:6a:d7:5c:bc:c1:3b:65:82:e3:97:94:3c:7f:3f:39:87:
         41:0f:31:2f:c9:ab:5c:d0:e3:f6:1a:b9:2e:c7:98:82:21:4e:
         2e:bd:7e:58:7b:a6:47:7e:27:8f:87:53:2e:92:08:af:5c:e8:
         c9:38:df:a7:f5:07:9f:33:ce:be:b8:51:c1:fd:74:86:b7:a8:
         05:41:26:01:28:69:05:46:e2:1a:b1:0b:e6:84:db:66:13:20:
         1a:17:4b:44:cc:57:3b:37:20:93:01:dd:2a:b9:49:66:dc:92:
         d5:20:66:04:70:77:57:9e:3f:ff:a3:81:53:a0:b3:62:2a:32:
         08:35:45:3d:9f:aa:89:ec:b7:13:af:dc:9e:a5:4d:49:dd:ad:
         bb:49:0e:e1:4a:a3:f7:75:b5:b9:d8:cb:09:21:bd:92:ca:46:
         bd:d6:b5:d7:8f:a3:32:5c:2c:a3:24:82:b4:5f:20:78:7d:58:
         74:b7:97:ff:3e:88:6b:b9:b4:d8:a4:5c:64:cd:92:19:18:67:
         bc:63:63:6f:d2:22:8b:87:36:f9:07:8c:e6:ed:60:4d:ef:3e:
         d4:e0:47:5d:ef:c5:60:77:2c:cd:80:5a:e7:cd:a3:29:e2:6a:
         48:e2:f4:a9:20:48:44:d9:d1:e8:cc:48:5d:45:56:d6:c2:fa:
         1a:5a:5a:ab:61:12:0a:b5:23:db:15:27:d9:8e:de:05:df:52:
         00:bf:c9:e5:44:1b:d2:69:20:7f:b6:1c:bd:52:8f:5a:f2:83:
         46:32:fe:69:3c:5a:e7:49:01:25:31:e3:5c:7f:33:75:d3:4b:
         86:a5:cb:27:ea:f4:f0:b7:e0:e8:d8:e6:9a:8f:36:43:3b:18:
         ab:de:9d:94:b3:4d:3e:d0:33:65:bb:7b:0b:a5:5a:0d:07:47:
         d7:42:ab:57:89:4a:36:5f:b5:0c:86:62:74:e3:46:bd:b5:b7:
         7e:0d:8a:e9:5c:7e:10:18:e6:24:d3:ee:65:32:cf:c3:cc:df:
         76:b3:40:a4:ab:b7
-----BEGIN CERTIFICATE-----
MIIEbzCCAtegAwIBAgIJAMstgJlaaVJbMA0GCSqGSIb3DQEBCwUAME0xCzAJBgNV
BAYTAlhZMSYwJAYDVQQKDB1QeXRob24gU29mdHdhcmUgRm91bmRhdGlvbiBDQTEW
MBQGA1UEAwwNb3VyLWNhLXNlcnZlcjAgFw0xODA4MjkxNDIzMTZaGA8yNTI1MTAy
ODE0MjMxNlowTTELMAkGA1UEBhMCWFkxJjAkBgNVBAoMHVB5dGhvbiBTb2Z0d2Fy
ZSBGb3VuZGF0aW9uIENBMRYwFAYDVQQDDA1vdXItY2Etc2VydmVyMIIBojANBgkq
hkiG9w0BAQEFAAOCAY8AMIIBigKCAYEAwkx5r9NjxviaLjWs9ab+HmjeU68eYwZd
86xmi5YRYMHBOKCor1DeMAKbSJEiauVedzpEcw0+vj2QI4mG1vAXziZWflfA/aO5
p+iA5GwZY7+gr603KFLY89jJ11hmw3CQbXXBFDgqtuPSHKCz3Js1aIX/uyTiZv3D
LIbxwB7OD1fKw03TSaFCYC0wZM6B0MdjX0tkjkXLxGdkyxbJzAN6Uby2ggywo/no
RJLJdSk/hdQNKdXl2VW99tutRKaheaQIbUKqEIKuOv6yIa5VEmNDLI5QR+smWZ3K
FdLcfbLJOKseoNip911bt5647j5cNnxidgTjuN2LM6B6xzvkW4FbMDAUyDbpjBMo
d3le0JfDjWpm8m26HNJFli+3z/zq99FoQ+6eiFPPK7zjTMoTW8PobUxhW3ld1miz
DNSGaf+xHDpwcXR5OiHAJjRGrtRoyougDyaCRsJCcZFmXSiJe4v9Q2kt8ROUekCe
Yn5T2H+4q/W4a82HwmoZjZWEUQhkLustAgMBAAGjUDBOMB0GA1UdDgQWBBQf0t2D
R31gB8Oc1bp2pvTUhpt2SzAfBgNVHSMEGDAWgBQf0t2DR31gB8Oc1bp2pvTUhpt2
SzAMBgNVHRMEBTADAQH/MA0GCSqGSIb3DQEBCwUAA4IBgQBRY2rXXLzBO2WC45eU
PH8/OYdBDzEvyatc0OP2Grkux5iCIU4uvX5Ye6ZHfiePh1MukgivXOjJON+n9Qef
M86+uFHB/XSGt6gFQSYBKGkFRuIasQvmhNtmEyAaF0tEzFc7NyCTAd0quUlm3JLV
IGYEcHdXnj//o4FToLNiKjIINUU9n6qJ7LcTr9yepU1J3a27SQ7hSqP3dbW52MsJ
Ib2Syka91rXXj6MyXCyjJIK0XyB4fVh0t5f/PohrubTYpFxkzZIZGGe8Y2Nv0iKL
hzb5B4zm7WBN7z7U4Edd78VgdyzNgFrnzaMp4mpI4vSpIEhE2dHozEhdRVbWwvoa
WlqrYRIKtSPbFSfZjt4F31IAv8nlRBvSaSB/thy9Uo9a8oNGMv5pPFrnSQElMeNc
fzN100uGpcsn6vTwt+Do2OaajzZDOxir3p2Us00+0DNlu3sLpVoNB0fXQqtXiUo2
X7UMhmJ040a9tbd+DYrpXH4QGOYk0+5lMs/DzN92s0Ckq7c=
-----END CERTIFICATE-----
