Certificate:
    Data:
        Version: 3 (0x2)
        Serial Number:
            cb:2d:80:99:5a:69:52:5b
        Signature Algorithm: sha256WithRSAEncryption
        Issuer: C=XY, O=Python Software Foundation CA, CN=our-ca-server
        Validity
            Not Before: Aug 29 14:23:16 2018 GMT
            Not After : Oct 28 14:23:16 2037 GMT
        Subject: C=XY, O=Python Software Foundation CA, CN=our-ca-server
        Subject Public Key Info:
            Public Key Algorithm: rsaEncryption
                Public-Key: (3072 bit)
                Modulus:
                    00:9b:e4:d8:83:c5:5b:29:db:a0:33:24:65:b7:6a:
                    5a:27:b0:80:21:19:3a:b7:59:1a:a4:87:92:86:bb:
                    58:15:4e:fb:6e:e2:c6:90:88:9f:88:cb:74:7b:35:
                    f1:e2:8a:3c:7a:68:ea:f9:a3:7e:9b:59:3e:39:10:
                    89:b0:1d:ac:9a:07:2e:03:ee:e0:03:c0:5f:c9:90:
                    b6:5d:60:d0:ce:e9:5e:7f:31:45:96:84:b7:20:f5:
                    aa:92:ad:60:72:78:a9:ea:26:f6:0e:d7:7c:15:ad:
                    0f:00:8a:80:32:1b:0e:06:99:7d:8b:71:fc:15:69:
                    ed:ef:6d:f8:b2:ec:a3:e7:9b:b7:6c:7b:58:c9:43:
                    f1:15:ba:6f:58:42:b2:e8:e6:6a:c0:52:ab:22:55:
                    76:09:84:f9:ef:4b:cd:d1:97:c5:14:36:9a:e6:6c:
                    58:a2:6c:87:b9:46:10:49:e9:38:fd:c0:aa:a6:1a:
                    78:2c:a1:4f:0f:ba:8e:85:fb:ed:ef:31:81:96:eb:
                    65:3a:67:3f:69:6e:71:a8:66:0b:f1:9d:84:85:a5:
                    69:1c:c4:8f:d7:62:af:a3:43:1f:11:25:e3:0b:34:
                    7f:61:75:c6:c6:e2:99:15:6d:7f:be:1d:e4:db:44:
                    e1:b9:5a:38:e1:67:da:5d:62:2c:27:b1:dd:64:6c:
                    3e:e6:7d:32:5e:c6:81:e7:52:22:f2:41:7a:3e:75:
                    ff:a8:38:2c:26:ce:8e:d4:b7:b1:56:d2:1f:3e:c7:
                    81:c9:cb:a2:6b:dc:88:d6:96:03:be:14:db:69:4d:
                    ef:eb:68:47:44:d8:d4:13:df:ee:d8:4b:ca:68:25:
                    ce:17:8c:8d:67:6c:6d:3e:4d:3e:ee:a6:7b:52:77:
                    91:b2:29:f1:88:25:0e:c0:5b:f0:fb:13:e5:69:d7:
                    4a:b3:75:f7:4a:98:7e:28:59:dc:d1:41:46:95:92:
                    30:2d:66:3e:64:da:1c:11:29:ff:32:9b:bf:20:5f:
                    69:3e:63:49:27:f6:99:02:c5:f1
                Exponent: 65537 (0x10001)
        X509v3 extensions:
            X509v3 Subject Key Identifier: 
                B4:91:DA:7B:B6:9A:66:F5:39:93:E1:9F:AD:46:4C:51:8E:60:F8:E8
            X509v3 Authority Key Identifier: 
                B4:91:DA:7B:B6:9A:66:F5:39:93:E1:9F:AD:46:4C:51:8E:60:F8:E8
            X509v3 Basic Constraints: critical
                CA:TRUE
            X509v3 Key Usage: critical
                Digital Signature, Certificate Sign, CRL Sign
    Signature Algorithm: sha256WithRSAEncryption
    Signature Value:
        5e:48:98:b2:60:1a:79:e2:e5:f4:9b:cf:bf:62:c4:24:e6:6f:
        7c:7f:0e:ba:c9:c6:e5:05:a3:7a:72:76:2c:7d:38:b0:6d:b0:
        54:8f:d7:6b:c4:75:d5:47:7e:fd:a3:c8:93:4a:4f:71:d4:10:
        be:5d:3e:88:1c:5c:92:07:22:e2:89:31:46:39:c3:91:75:87:
        29:eb:95:de:3c:60:20:9b:21:d7:35:22:54:2a:a7:00:94:b0:
        64:9e:a7:38:8c:b9:bd:c8:0a:62:74:cf:f3:2c:68:86:02:95:
        e0:2a:ee:3a:60:d8:7a:bc:f4:56:16:df:87:e5:56:ea:04:8f:
        55:e1:a3:a7:9c:b1:15:34:d9:b9:cc:d2:69:5c:fc:10:50:23:
        5b:89:c5:df:dc:8f:42:9f:3e:b3:ae:6c:e7:2e:b9:e9:b1:81:
        65:1e:eb:8c:d6:10:e6:cd:dd:11:46:d0:f2:a9:6f:18:ca:ea:
        3e:9b:2f:5a:75:5d:c6:9b:f7:ff:72:0d:ec:2b:86:81:ae:62:
        2d:b2:cd:12:75:98:5e:5c:bf:0d:ca:8c:32:df:5c:3d:ea:17:
        54:bb:7a:8a:fb:82:2d:4c:8b:66:de:b5:ec:ce:e9:7a:d5:d4:
        79:c1:3d:0c:3f:4a:ed:45:d6:0c:83:d0:0c:a3:7f:6a:84:66:
        73:4f:04:d4:01:48:30:f2:bb:67:9f:2e:54:bb:b3:14:83:81:
        63:13:55:2b:45:c8:27:d1:57:c6:ba:d3:e7:0c:48:e9:c7:27:
        7c:2f:46:16:2a:0e:a4:96:b5:e5:ac:36:e8:e1:2f:33:12:56:
        e1:fe:c8:4f:e8:5e:6e:f9:80:7b:1e:48:dd:79:9d:5e:c8:b6:
        18:21:4f:ed:3e:50:52:4a:c2:5f:b9:76:1e:51:c8:93:08:e0:
        4e:22:bf:a0:2f:9d:9b:1d:81:b9:2a:cb:ad:f9:ce:18:eb:8c:
        bc:b7:34:49:2e:e1:90:41:c1:ed:27:6f:39:c0:58:23:1c:56:
        4d:50:74:9a:b3:c3
-----BEGIN CERTIFICATE-----
MIIEgDCCAuigAwIBAgIJAMstgJlaaVJbMA0GCSqGSIb3DQEBCwUAME0xCzAJBgNV
BAYTAlhZMSYwJAYDVQQKDB1QeXRob24gU29mdHdhcmUgRm91bmRhdGlvbiBDQTEW
MBQGA1UEAwwNb3VyLWNhLXNlcnZlcjAeFw0xODA4MjkxNDIzMTZaFw0zNzEwMjgx
NDIzMTZaME0xCzAJBgNVBAYTAlhZMSYwJAYDVQQKDB1QeXRob24gU29mdHdhcmUg
Rm91bmRhdGlvbiBDQTEWMBQGA1UEAwwNb3VyLWNhLXNlcnZlcjCCAaIwDQYJKoZI
hvcNAQEBBQADggGPADCCAYoCggGBAJvk2IPFWynboDMkZbdqWiewgCEZOrdZGqSH
koa7WBVO+27ixpCIn4jLdHs18eKKPHpo6vmjfptZPjkQibAdrJoHLgPu4APAX8mQ
tl1g0M7pXn8xRZaEtyD1qpKtYHJ4qeom9g7XfBWtDwCKgDIbDgaZfYtx/BVp7e9t
+LLso+ebt2x7WMlD8RW6b1hCsujmasBSqyJVdgmE+e9LzdGXxRQ2muZsWKJsh7lG
EEnpOP3AqqYaeCyhTw+6joX77e8xgZbrZTpnP2lucahmC/GdhIWlaRzEj9dir6ND
HxEl4ws0f2F1xsbimRVtf74d5NtE4blaOOFn2l1iLCex3WRsPuZ9Ml7GgedSIvJB
ej51/6g4LCbOjtS3sVbSHz7HgcnLomvciNaWA74U22lN7+toR0TY1BPf7thLymgl
zheMjWdsbT5NPu6me1J3kbIp8YglDsBb8PsT5WnXSrN190qYfihZ3NFBRpWSMC1m
PmTaHBEp/zKbvyBfaT5jSSf2mQLF8QIDAQABo2MwYTAdBgNVHQ4EFgQUtJHae7aa
ZvU5k+GfrUZMUY5g+OgwHwYDVR0jBBgwFoAUtJHae7aaZvU5k+GfrUZMUY5g+Ogw
DwYDVR0TAQH/BAUwAwEB/zAOBgNVHQ8BAf8EBAMCAYYwDQYJKoZIhvcNAQELBQAD
ggGBAF5ImLJgGnni5fSbz79ixCTmb3x/DrrJxuUFo3pydix9OLBtsFSP12vEddVH
fv2jyJNKT3HUEL5dPogcXJIHIuKJMUY5w5F1hynrld48YCCbIdc1IlQqpwCUsGSe
pziMub3ICmJ0z/MsaIYCleAq7jpg2Hq89FYW34flVuoEj1Xho6ecsRU02bnM0mlc
/BBQI1uJxd/cj0KfPrOubOcuuemxgWUe64zWEObN3RFG0PKpbxjK6j6bL1p1Xcab
9/9yDewrhoGuYi2yzRJ1mF5cvw3KjDLfXD3qF1S7eor7gi1Mi2betezO6XrV1HnB
PQw/Su1F1gyD0Ayjf2qEZnNPBNQBSDDyu2efLlS7sxSDgWMTVStFyCfRV8a60+cM
SOnHJ3wvRhYqDqSWteWsNujhLzMSVuH+yE/oXm75gHseSN15nV7IthghT+0+UFJK
wl+5dh5RyJMI4E4iv6AvnZsdgbkqy635zhjrjLy3NEku4ZBBwe0nbznAWCMcVk1Q
dJqzww==
-----END CERTIFICATE-----
