Certificate:
    Data:
        Version: 3 (0x2)
        Serial Number:
            cb:2d:80:99:5a:69:52:5b
        Signature Algorithm: sha256WithRSAEncryption
        Issuer: C=XY, O=Python Software Foundation CA, CN=our-ca-server
        Validity
            Not Before: Aug 29 14:23:16 2018 GMT
            Not After : Oct 28 14:23:16 2037 GMT
        Subject: C=XY, O=Python Software Foundation CA, CN=our-ca-server
        Subject Public Key Info:
            Public Key Algorithm: rsaEncryption
                RSA Public-Key: (3072 bit)
                Modulus:
                    00:b1:84:d3:4f:5c:04:80:91:4f:82:49:ba:30:0b:
                    f7:e8:cb:f9:14:ef:3d:9f:0b:3f:0a:62:fc:1b:20:
                    a5:20:d1:60:5f:87:5a:1f:16:d1:ed:97:70:a6:da:
                    1b:03:2c:7e:a0:5b:3c:4e:2f:16:7e:0e:89:29:89:
                    e1:10:0d:38:da:6a:77:5f:37:13:b3:28:8f:7b:5c:
                    76:ad:9e:e8:d3:f5:9e:f5:83:aa:10:07:8d:e6:51:
                    98:f0:7c:0d:52:f2:0c:21:1e:d8:b9:99:26:a9:25:
                    03:27:bb:5c:ab:2e:33:27:a2:d6:23:a8:83:87:44:
                    29:9f:97:b5:24:6f:d7:b9:0a:fd:28:ee:bb:fb:41:
                    58:ea:1d:99:dd:44:86:ab:98:be:1c:dc:cb:a9:89:
                    1d:36:5c:a9:e8:47:b5:f4:52:48:aa:b5:a4:67:ef:
                    3e:d7:e2:d3:33:de:98:29:d8:7a:b0:59:5c:e7:b1:
                    0e:cc:fd:9f:eb:f6:d5:3a:0e:0b:cf:fe:0b:3d:a2:
                    bf:45:18:ce:94:e7:a9:55:60:88:d4:d8:84:50:79:
                    05:2e:41:03:74:ae:67:26:f6:5b:12:08:98:ce:0a:
                    97:ed:01:0f:89:4f:17:5c:fa:3e:1d:35:24:47:92:
                    32:bf:f7:a4:18:2b:3c:d0:48:99:e1:a2:cd:a3:cc:
                    50:53:20:b5:c6:e3:66:85:7b:57:10:ec:33:4f:c1:
                    77:e7:1b:7e:81:c6:c4:f3:45:20:c0:91:dd:13:76:
                    7b:03:af:f6:76:8e:a2:83:63:57:dd:63:bc:bb:5a:
                    1c:17:52:8a:d6:06:48:cc:0f:c7:d3:4f:e8:da:22:
                    6c:86:f9:4e:5c:a6:29:07:3b:d8:56:4c:59:b3:20:
                    49:07:7b:94:84:cf:2b:c3:1c:1a:4e:87:64:92:ba:
                    42:e1:e6:ad:7d:1d:f6:54:90:6f:2b:e9:b3:cc:4b:
                    2b:33:26:23:fd:65:c0:3c:f0:79:ad:c9:c1:81:ef:
                    37:04:e0:27:3e:b0:ee:15:be:51
                Exponent: 65537 (0x10001)
        X509v3 extensions:
            X509v3 Subject Key Identifier: 
                B3:8A:A0:A2:BA:71:F1:A8:24:79:D4:A4:5B:25:36:15:1E:49:C8:CD
            X509v3 Authority Key Identifier: 
                keyid:B3:8A:A0:A2:BA:71:F1:A8:24:79:D4:A4:5B:25:36:15:1E:49:C8:CD

            X509v3 Basic Constraints: 
                CA:TRUE
    Signature Algorithm: sha256WithRSAEncryption
         6b:32:2f:e7:05:18:ea:5c:c9:95:f4:e0:c2:0c:41:5f:1a:0a:
         95:c9:c7:7d:05:ee:8a:56:29:35:50:40:b7:fe:9f:7b:5b:1c:
         c3:69:2f:a0:cb:d2:b8:91:2f:50:19:62:f7:27:18:6d:95:7b:
         53:16:15:a2:5a:dc:14:e3:fb:b1:32:a9:69:db:a6:33:47:3c:
         bb:1f:d2:dc:70:f9:6a:2e:0c:d8:8c:6d:e5:5d:1d:43:3c:4e:
         91:de:a0:c8:da:a0:4b:0e:9d:5e:b6:0f:4a:49:f0:7b:b6:53:
         9e:fd:35:14:5b:e3:4d:b4:18:a6:36:61:e8:8f:33:9b:d4:05:
         f9:54:66:df:e0:cb:18:a3:4e:dc:17:a8:a0:b3:c1:a8:f4:d6:
         9d:ca:7f:68:53:1a:d7:95:da:e8:d3:9e:48:00:71:95:99:11:
         07:cf:96:c0:7d:ce:7d:30:e8:4f:e1:83:16:33:a1:ff:59:9b:
         3e:4c:e7:3a:38:01:9f:0f:67:4c:fd:2d:8b:4a:d4:01:46:37:
         33:e8:13:6b:15:a9:1d:68:76:45:a2:82:33:69:26:30:60:05:
         c8:8f:bd:b4:75:ab:be:7a:8b:48:68:70:40:b4:1b:51:c5:e6:
         7a:ad:6b:4f:db:17:c0:60:67:2e:63:61:9b:2c:48:99:b8:76:
         45:a0:9e:cc:ef:33:1e:50:4e:ab:72:c3:65:c8:b2:79:b3:35:
         83:21:78:d3:8b:6c:3a:18:e8:65:32:39:b8:c0:9d:71:2f:35:
         36:8a:c0:17:62:d8:8b:3e:e1:22:18:2b:4c:63:a6:0e:9d:0a:
         fa:ab:5b:35:fb:88:91:77:4c:8d:8c:9d:a9:cf:fc:ab:c2:e6:
         5a:05:7b:7e:04:6e:39:cf:93:ce:67:3b:7a:cb:af:b6:36:e1:
         fb:71:64:45:d4:a6:f0:ce:ef:75:04:99:69:9a:e5:88:0a:10:
         02:74:89:ec:75:84:44:80:48:df:c1:f7:e9:37:ce:ce:92:92:
         5c:89:22:08:73:1f
-----BEGIN CERTIFICATE-----
MIIEbTCCAtWgAwIBAgIJAMstgJlaaVJbMA0GCSqGSIb3DQEBCwUAME0xCzAJBgNV
BAYTAlhZMSYwJAYDVQQKDB1QeXRob24gU29mdHdhcmUgRm91bmRhdGlvbiBDQTEW
MBQGA1UEAwwNb3VyLWNhLXNlcnZlcjAeFw0xODA4MjkxNDIzMTZaFw0zNzEwMjgx
NDIzMTZaME0xCzAJBgNVBAYTAlhZMSYwJAYDVQQKDB1QeXRob24gU29mdHdhcmUg
Rm91bmRhdGlvbiBDQTEWMBQGA1UEAwwNb3VyLWNhLXNlcnZlcjCCAaIwDQYJKoZI
hvcNAQEBBQADggGPADCCAYoCggGBALGE009cBICRT4JJujAL9+jL+RTvPZ8LPwpi
/BsgpSDRYF+HWh8W0e2XcKbaGwMsfqBbPE4vFn4OiSmJ4RANONpqd183E7Moj3tc
dq2e6NP1nvWDqhAHjeZRmPB8DVLyDCEe2LmZJqklAye7XKsuMyei1iOog4dEKZ+X
tSRv17kK/Sjuu/tBWOodmd1EhquYvhzcy6mJHTZcqehHtfRSSKq1pGfvPtfi0zPe
mCnYerBZXOexDsz9n+v21ToOC8/+Cz2iv0UYzpTnqVVgiNTYhFB5BS5BA3SuZyb2
WxIImM4Kl+0BD4lPF1z6Ph01JEeSMr/3pBgrPNBImeGizaPMUFMgtcbjZoV7VxDs
M0/Bd+cbfoHGxPNFIMCR3RN2ewOv9naOooNjV91jvLtaHBdSitYGSMwPx9NP6Noi
bIb5TlymKQc72FZMWbMgSQd7lITPK8McGk6HZJK6QuHmrX0d9lSQbyvps8xLKzMm
I/1lwDzwea3JwYHvNwTgJz6w7hW+UQIDAQABo1AwTjAdBgNVHQ4EFgQUs4qgorpx
8agkedSkWyU2FR5JyM0wHwYDVR0jBBgwFoAUs4qgorpx8agkedSkWyU2FR5JyM0w
DAYDVR0TBAUwAwEB/zANBgkqhkiG9w0BAQsFAAOCAYEAazIv5wUY6lzJlfTgwgxB
XxoKlcnHfQXuilYpNVBAt/6fe1scw2kvoMvSuJEvUBli9ycYbZV7UxYVolrcFOP7
sTKpadumM0c8ux/S3HD5ai4M2Ixt5V0dQzxOkd6gyNqgSw6dXrYPSknwe7ZTnv01
FFvjTbQYpjZh6I8zm9QF+VRm3+DLGKNO3BeooLPBqPTWncp/aFMa15Xa6NOeSABx
lZkRB8+WwH3OfTDoT+GDFjOh/1mbPkznOjgBnw9nTP0ti0rUAUY3M+gTaxWpHWh2
RaKCM2kmMGAFyI+9tHWrvnqLSGhwQLQbUcXmeq1rT9sXwGBnLmNhmyxImbh2RaCe
zO8zHlBOq3LDZciyebM1gyF404tsOhjoZTI5uMCdcS81NorAF2LYiz7hIhgrTGOm
Dp0K+qtbNfuIkXdMjYydqc/8q8LmWgV7fgRuOc+Tzmc7esuvtjbh+3FkRdSm8M7v
dQSZaZrliAoQAnSJ7HWERIBI38H36TfOzpKSXIkiCHMf
-----END CERTIFICATE-----
