Certificate:
    Data:
        Version: 3 (0x2)
        Serial Number:
            cb:2d:80:99:5a:69:52:5b
        Signature Algorithm: sha256WithRSAEncryption
        Issuer: C=XY, O=Python Software Foundation CA, CN=our-ca-server
        Validity
            Not Before: Aug 29 14:23:16 2018 GMT
            Not After : Oct 28 14:23:16 2525 GMT
        Subject: C=XY, O=Python Software Foundation CA, CN=our-ca-server
        Subject Public Key Info:
            Public Key Algorithm: rsaEncryption
                Public-Key: (3072 bit)
                Modulus:
                    00:e6:ba:e2:e4:c1:c2:0c:1c:3e:62:d8:b9:5c:57:
                    2e:52:b8:83:c5:88:3a:e6:9a:7a:f5:64:16:33:eb:
                    37:6e:2f:7b:f3:68:03:45:65:47:5d:71:10:59:ca:
                    2b:1b:00:6c:81:14:61:f4:86:59:3f:ea:fd:78:37:
                    16:9d:43:f1:c4:f6:69:8c:c5:29:06:88:9e:26:22:
                    04:ac:04:d8:87:34:48:39:eb:6b:f2:0b:92:aa:c3:
                    6e:63:51:51:6b:c2:ad:ff:5c:c8:2f:b2:1b:9c:20:
                    8a:40:3e:a2:2f:6a:ea:c8:d9:37:43:5c:dc:ed:92:
                    e2:d9:40:d2:61:9f:71:8a:f5:ed:39:ba:a8:5e:3e:
                    b5:21:63:10:d8:6f:b4:e2:11:01:0b:10:e8:bb:fb:
                    62:ef:48:55:bc:f5:d2:9c:ab:68:ae:95:25:19:f2:
                    97:7d:1a:dc:66:ea:88:5e:86:e4:cb:cb:69:4d:5e:
                    b0:a3:fb:6c:31:e4:28:60:5e:90:f1:d4:2e:10:50:
                    e1:85:f0:0d:5c:bd:dd:45:24:08:19:3e:1c:93:66:
                    8f:2b:da:53:7d:04:1c:0e:42:c4:68:5e:a6:cd:a9:
                    18:ed:a7:cd:6a:d0:d1:86:ba:90:ff:b7:4c:de:c7:
                    43:24:6d:c7:1c:6b:9c:81:e7:e1:1b:57:25:90:a9:
                    0e:c9:56:f3:f6:6b:5e:2d:b4:2e:40:50:9b:42:63:
                    d2:d6:99:1c:38:dc:cf:2b:2c:a7:72:f1:c7:5e:63:
                    34:76:48:f4:3e:88:13:9e:86:16:53:2f:74:fb:87:
                    01:8d:22:a4:68:33:ee:13:6c:7a:06:14:54:56:17:
                    57:57:98:34:d0:0b:66:09:e3:88:09:f8:a5:15:1c:
                    10:73:d0:88:50:99:5e:18:65:3b:ff:31:27:1b:5e:
                    c6:aa:41:fd:2d:2f:18:a7:c0:f2:ab:c7:22:b5:0b:
                    69:d2:73:d1:bb:d0:1c:3d:fa:a4:35:62:cd:33:86:
                    c7:a0:23:0f:b9:6a:d5:d2:6d:8d
                Exponent: 65537 (0x10001)
        X509v3 extensions:
            X509v3 Subject Key Identifier: 
                C0:0A:2B:28:43:DE:5F:C9:7D:47:E5:47:9B:36:F2:65:8C:67:3B:E2
            X509v3 Authority Key Identifier: 
                C0:0A:2B:28:43:DE:5F:C9:7D:47:E5:47:9B:36:F2:65:8C:67:3B:E2
            X509v3 Basic Constraints: critical
                CA:TRUE
            X509v3 Key Usage: critical
                Digital Signature, Certificate Sign, CRL Sign
    Signature Algorithm: sha256WithRSAEncryption
    Signature Value:
        bc:e3:56:22:03:e4:5c:b9:67:ff:94:bc:75:9c:00:85:b0:d5:
        9c:c4:c3:29:66:5e:8b:b2:a9:a6:30:86:71:1a:6b:f2:00:c5:
        82:ab:5f:50:04:2a:fb:ed:b8:4c:b9:00:1b:49:57:92:11:cd:
        a2:bc:cb:0f:a8:b4:61:f8:14:ca:a0:ec:40:17:ba:55:a1:c4:
        bc:a6:b2:5a:ef:f4:20:10:77:47:d0:a0:c5:58:b9:6c:b5:10:
        7b:85:4a:43:a3:fb:2c:01:b9:77:17:b0:be:a0:ee:ae:ae:4d:
        67:86:48:89:57:86:78:ea:3c:ed:f0:41:35:8d:71:68:55:f9:
        f2:e9:ac:32:d4:c6:a2:ef:ec:54:e6:c4:8e:2c:fd:bd:aa:60:
        56:65:33:95:ea:10:c6:74:04:eb:2a:6e:9b:11:f6:61:00:aa:
        fd:ec:f2:0b:b1:4b:11:cd:93:eb:df:98:ae:4c:b4:07:04:4a:
        e5:ef:ff:52:58:75:f5:3e:a4:71:e1:4a:72:5c:a9:8f:d4:aa:
        88:f0:6a:71:b4:c3:00:5f:99:6e:d7:91:af:6c:98:0d:64:c2:
        24:c7:9e:05:11:68:5e:24:62:e3:2e:45:ec:a3:34:f2:a3:9d:
        4d:e5:32:18:2f:74:fc:11:f1:36:50:4f:a0:40:29:68:5c:43:
        4c:23:6c:5d:72:c4:ec:52:76:eb:dc:b2:bc:1f:a6:c4:06:66:
        9b:5c:c7:cc:ca:f2:d1:25:4f:de:a5:1f:8d:e4:0c:49:b6:cf:
        85:40:a1:b9:1f:c6:c7:19:15:07:63:34:93:d0:57:a0:5a:70:
        ec:af:4a:1c:72:17:1d:74:a3:6c:31:45:0b:33:7a:a1:b8:46:
        db:c7:0e:64:4c:6f:b7:99:04:82:43:1f:e0:59:d6:99:21:27:
        28:09:40:ae:fc:c4:23:aa:a0:0c:08:05:2a:92:1c:db:23:9e:
        d1:d5:63:ae:39:13:a3:12:88:5a:43:3c:4a:6e:32:f0:84:9f:
        f9:09:0c:91:e7:b8
-----BEGIN CERTIFICATE-----
MIIEgjCCAuqgAwIBAgIJAMstgJlaaVJbMA0GCSqGSIb3DQEBCwUAME0xCzAJBgNV
BAYTAlhZMSYwJAYDVQQKDB1QeXRob24gU29mdHdhcmUgRm91bmRhdGlvbiBDQTEW
MBQGA1UEAwwNb3VyLWNhLXNlcnZlcjAgFw0xODA4MjkxNDIzMTZaGA8yNTI1MTAy
ODE0MjMxNlowTTELMAkGA1UEBhMCWFkxJjAkBgNVBAoMHVB5dGhvbiBTb2Z0d2Fy
ZSBGb3VuZGF0aW9uIENBMRYwFAYDVQQDDA1vdXItY2Etc2VydmVyMIIBojANBgkq
hkiG9w0BAQEFAAOCAY8AMIIBigKCAYEA5rri5MHCDBw+Yti5XFcuUriDxYg65pp6
9WQWM+s3bi9782gDRWVHXXEQWcorGwBsgRRh9IZZP+r9eDcWnUPxxPZpjMUpBoie
JiIErATYhzRIOetr8guSqsNuY1FRa8Kt/1zIL7IbnCCKQD6iL2rqyNk3Q1zc7ZLi
2UDSYZ9xivXtObqoXj61IWMQ2G+04hEBCxDou/ti70hVvPXSnKtorpUlGfKXfRrc
ZuqIXobky8tpTV6wo/tsMeQoYF6Q8dQuEFDhhfANXL3dRSQIGT4ck2aPK9pTfQQc
DkLEaF6mzakY7afNatDRhrqQ/7dM3sdDJG3HHGucgefhG1clkKkOyVbz9mteLbQu
QFCbQmPS1pkcONzPKyyncvHHXmM0dkj0PogTnoYWUy90+4cBjSKkaDPuE2x6BhRU
VhdXV5g00AtmCeOICfilFRwQc9CIUJleGGU7/zEnG17GqkH9LS8Yp8Dyq8citQtp
0nPRu9AcPfqkNWLNM4bHoCMPuWrV0m2NAgMBAAGjYzBhMB0GA1UdDgQWBBTACiso
Q95fyX1H5UebNvJljGc74jAfBgNVHSMEGDAWgBTACisoQ95fyX1H5UebNvJljGc7
4jAPBgNVHRMBAf8EBTADAQH/MA4GA1UdDwEB/wQEAwIBhjANBgkqhkiG9w0BAQsF
AAOCAYEAvONWIgPkXLln/5S8dZwAhbDVnMTDKWZei7KppjCGcRpr8gDFgqtfUAQq
++24TLkAG0lXkhHNorzLD6i0YfgUyqDsQBe6VaHEvKayWu/0IBB3R9CgxVi5bLUQ
e4VKQ6P7LAG5dxewvqDurq5NZ4ZIiVeGeOo87fBBNY1xaFX58umsMtTGou/sVObE
jiz9vapgVmUzleoQxnQE6ypumxH2YQCq/ezyC7FLEc2T69+Yrky0BwRK5e//Ulh1
9T6kceFKclypj9SqiPBqcbTDAF+ZbteRr2yYDWTCJMeeBRFoXiRi4y5F7KM08qOd
TeUyGC90/BHxNlBPoEApaFxDTCNsXXLE7FJ269yyvB+mxAZmm1zHzMry0SVP3qUf
jeQMSbbPhUChuR/GxxkVB2M0k9BXoFpw7K9KHHIXHXSjbDFFCzN6obhG28cOZExv
t5kEgkMf4FnWmSEnKAlArvzEI6qgDAgFKpIc2yOe0dVjrjkToxKIWkM8Sm4y8ISf
+QkMkee4
-----END CERTIFICATE-----
