Certificate:
    Data:
        Version: 3 (0x2)
        Serial Number:
            cb:2d:80:99:5a:69:52:5b
        Signature Algorithm: sha256WithRSAEncryption
        Issuer: C=XY, O=Python Software Foundation CA, CN=our-ca-server
        Validity
            Not Before: Aug 29 14:23:16 2018 GMT
            Not After : Oct 28 14:23:16 2525 GMT
        Subject: C=XY, O=Python Software Foundation CA, CN=our-ca-server
        Subject Public Key Info:
            Public Key Algorithm: rsaEncryption
                Public-Key: (3072 bit)
                Modulus:
                    00:bd:33:92:3e:dd:77:a2:da:4d:d3:6b:c3:48:3d:
                    da:2b:1d:a8:c0:1b:c0:8a:a5:1b:cc:54:c2:a2:75:
                    73:1d:06:51:d1:fd:c0:39:ee:26:a1:37:23:ec:cb:
                    be:37:6f:c8:a3:ab:91:65:e4:fb:8b:ed:75:6b:a6:
                    5f:d9:68:f1:4f:c8:50:2d:d1:e3:a4:1e:ef:00:bd:
                    e7:75:15:c7:26:de:57:e6:32:df:cb:2a:78:90:d0:
                    be:f1:3d:94:4a:5d:c2:82:64:d3:29:94:a4:3e:da:
                    4c:b3:e5:00:01:10:da:d9:fd:37:6c:0a:ed:7a:13:
                    24:6a:67:46:91:a2:23:55:48:ae:81:b9:f2:89:0d:
                    2c:86:04:ff:81:4a:7c:b1:cb:04:66:18:2b:7b:9e:
                    1e:78:04:6d:e7:4a:85:fb:b5:02:65:08:9f:28:1e:
                    94:23:cc:1b:aa:0a:2e:e7:e1:43:cd:50:12:e7:9f:
                    53:69:7a:da:72:5a:0e:b3:e3:93:34:f5:bf:52:aa:
                    e3:2c:fe:c1:70:23:22:1d:90:c4:8e:83:0f:c8:a6:
                    92:96:61:49:4a:aa:a0:86:b6:2b:e5:8d:31:f9:c7:
                    26:da:5c:93:f6:67:db:ac:e0:99:de:5d:16:b4:b8:
                    ab:cf:c4:f3:e6:eb:3e:ae:8a:dc:41:4c:1a:bd:79:
                    b9:c2:41:be:e3:71:11:32:1c:fa:23:78:c7:be:63:
                    69:0f:12:7b:c8:9a:c3:b8:f2:bc:1d:7c:fa:0c:54:
                    9a:48:19:45:5f:67:5c:e0:20:8a:ce:c4:10:72:92:
                    11:81:a4:82:f7:a8:08:ff:56:b8:d3:20:18:0b:53:
                    7b:c8:35:be:e9:10:0d:f9:1a:0c:ad:39:d5:74:9e:
                    3b:ae:dc:eb:81:68:af:93:aa:96:a2:70:15:f0:40:
                    b7:27:15:12:1f:16:5a:20:e1:5c:21:76:da:83:cb:
                    34:cb:65:e8:fa:d1:80:0b:a3:ed:cc:21:b4:fb:db:
                    79:96:37:52:22:9d:09:04:48:5f
                Exponent: 65537 (0x10001)
        X509v3 extensions:
            X509v3 Subject Key Identifier: 
                B6:58:71:40:A1:55:C5:4E:2E:65:84:44:A4:C6:5B:B6:44:9B:D9:E0
            X509v3 Authority Key Identifier: 
                B6:58:71:40:A1:55:C5:4E:2E:65:84:44:A4:C6:5B:B6:44:9B:D9:E0
            X509v3 Basic Constraints: critical
                CA:TRUE
            X509v3 Key Usage: critical
                Digital Signature, Certificate Sign, CRL Sign
    Signature Algorithm: sha256WithRSAEncryption
    Signature Value:
        78:02:cf:ff:af:17:bf:b0:17:ae:1b:b8:f9:51:3a:74:63:ee:
        0d:cb:67:00:3c:cc:df:15:eb:45:80:6f:ee:78:b3:ed:52:78:
        b6:40:23:58:87:90:0d:59:bd:51:63:85:91:1e:1f:9f:ee:d1:
        a7:bd:96:6e:81:7d:d9:7d:16:73:ad:25:c9:97:3a:5f:9e:8a:
        9b:86:7e:46:99:17:e2:14:46:8e:ee:42:d9:ea:90:3c:91:ad:
        59:4d:28:83:d9:0e:1a:f1:d4:53:d6:e2:f4:8b:84:a8:42:15:
        73:7d:91:db:17:46:a5:14:4b:16:ce:93:4a:59:82:ae:cb:84:
        19:c6:45:cc:86:89:06:a1:9f:ef:f0:1f:3c:4e:c3:c3:c6:04:
        53:8b:13:f3:90:ed:39:66:de:d2:a9:ea:c9:90:d4:17:30:43:
        bd:22:45:91:08:b9:ae:3f:8c:96:21:e7:ec:35:f4:b4:8b:7c:
        20:06:e7:42:99:bc:75:0c:0a:cc:82:1a:97:85:85:3b:97:53:
        06:45:c7:0a:d5:3b:ab:0f:13:0e:c5:94:69:d1:a4:ff:b4:b0:
        d4:c8:be:be:d0:fd:db:0b:09:64:4b:84:51:90:46:70:ac:d9:
        5f:83:37:32:47:da:ea:99:af:d8:b7:a8:35:8b:aa:ab:bb:f4:
        1f:59:94:94:a2:88:37:b0:7e:46:e1:00:89:c2:b0:2b:9e:ee:
        ba:bb:0d:6e:c7:bd:94:0e:b2:00:a2:11:03:e3:11:74:a5:ed:
        c2:bd:48:21:18:ab:7f:18:1d:31:c2:ef:66:1c:31:b7:2e:c5:
        87:a3:13:26:8e:d7:06:38:35:3e:ec:66:27:11:fc:ff:8c:e2:
        03:f9:3c:0c:d3:e2:0c:f9:43:28:a1:df:1b:a3:b2:ad:b6:3d:
        55:8c:51:72:ea:5c:e4:37:4c:48:31:64:62:2a:f8:e7:90:bc:
        e4:01:d8:44:80:43:fc:ee:37:b3:3c:55:3b:d2:f9:5f:b1:05:
        5c:7f:af:bb:84:3f
-----BEGIN CERTIFICATE-----
MIIEgjCCAuqgAwIBAgIJAMstgJlaaVJbMA0GCSqGSIb3DQEBCwUAME0xCzAJBgNV
BAYTAlhZMSYwJAYDVQQKDB1QeXRob24gU29mdHdhcmUgRm91bmRhdGlvbiBDQTEW
MBQGA1UEAwwNb3VyLWNhLXNlcnZlcjAgFw0xODA4MjkxNDIzMTZaGA8yNTI1MTAy
ODE0MjMxNlowTTELMAkGA1UEBhMCWFkxJjAkBgNVBAoMHVB5dGhvbiBTb2Z0d2Fy
ZSBGb3VuZGF0aW9uIENBMRYwFAYDVQQDDA1vdXItY2Etc2VydmVyMIIBojANBgkq
hkiG9w0BAQEFAAOCAY8AMIIBigKCAYEAvTOSPt13otpN02vDSD3aKx2owBvAiqUb
zFTConVzHQZR0f3AOe4moTcj7Mu+N2/Io6uRZeT7i+11a6Zf2WjxT8hQLdHjpB7v
AL3ndRXHJt5X5jLfyyp4kNC+8T2USl3CgmTTKZSkPtpMs+UAARDa2f03bArtehMk
amdGkaIjVUiugbnyiQ0shgT/gUp8scsEZhgre54eeARt50qF+7UCZQifKB6UI8wb
qgou5+FDzVAS559TaXracloOs+OTNPW/UqrjLP7BcCMiHZDEjoMPyKaSlmFJSqqg
hrYr5Y0x+ccm2lyT9mfbrOCZ3l0WtLirz8Tz5us+rorcQUwavXm5wkG+43ERMhz6
I3jHvmNpDxJ7yJrDuPK8HXz6DFSaSBlFX2dc4CCKzsQQcpIRgaSC96gI/1a40yAY
C1N7yDW+6RAN+RoMrTnVdJ47rtzrgWivk6qWonAV8EC3JxUSHxZaIOFcIXbag8s0
y2Xo+tGAC6PtzCG0+9t5ljdSIp0JBEhfAgMBAAGjYzBhMB0GA1UdDgQWBBS2WHFA
oVXFTi5lhESkxlu2RJvZ4DAfBgNVHSMEGDAWgBS2WHFAoVXFTi5lhESkxlu2RJvZ
4DAPBgNVHRMBAf8EBTADAQH/MA4GA1UdDwEB/wQEAwIBhjANBgkqhkiG9w0BAQsF
AAOCAYEAeALP/68Xv7AXrhu4+VE6dGPuDctnADzM3xXrRYBv7niz7VJ4tkAjWIeQ
DVm9UWOFkR4fn+7Rp72WboF92X0Wc60lyZc6X56Km4Z+RpkX4hRGju5C2eqQPJGt
WU0og9kOGvHUU9bi9IuEqEIVc32R2xdGpRRLFs6TSlmCrsuEGcZFzIaJBqGf7/Af
PE7Dw8YEU4sT85DtOWbe0qnqyZDUFzBDvSJFkQi5rj+MliHn7DX0tIt8IAbnQpm8
dQwKzIIal4WFO5dTBkXHCtU7qw8TDsWUadGk/7Sw1Mi+vtD92wsJZEuEUZBGcKzZ
X4M3Mkfa6pmv2LeoNYuqq7v0H1mUlKKIN7B+RuEAicKwK57uursNbse9lA6yAKIR
A+MRdKXtwr1IIRirfxgdMcLvZhwxty7Fh6MTJo7XBjg1PuxmJxH8/4ziA/k8DNPi
DPlDKKHfG6OyrbY9VYxRcupc5DdMSDFkYir455C85AHYRIBD/O43szxVO9L5X7EF
XH+vu4Q/
-----END CERTIFICATE-----
