Certificate:
    Data:
        Version: 3 (0x2)
        Serial Number:
            cb:2d:80:99:5a:69:52:5b
        Signature Algorithm: sha256WithRSAEncryption
        Issuer: C=XY, O=Python Software Foundation CA, CN=our-ca-server
        Validity
            Not Before: Aug 29 14:23:16 2018 GMT
            Not After : Oct 28 14:23:16 2037 GMT
        Subject: C=XY, O=Python Software Foundation CA, CN=our-ca-server
        Subject Public Key Info:
            Public Key Algorithm: rsaEncryption
                Public-Key: (3072 bit)
                Modulus:
                    00:d0:a0:9b:b1:b9:3b:79:ee:31:2f:b8:51:1c:01:
                    75:ed:09:59:4c:ac:c8:bf:6a:0a:f8:7a:08:f0:25:
                    e3:25:7b:6a:f8:c4:d8:aa:a0:60:07:25:b0:cf:73:
                    71:05:52:68:bf:06:93:ae:10:61:96:bc:b3:69:81:
                    1a:7d:19:fc:20:86:8f:9a:68:1b:ed:cd:e2:6c:61:
                    67:c7:4e:55:ea:43:06:21:1b:e9:b9:be:84:5f:c2:
                    da:eb:89:88:e0:42:a6:45:49:2a:d0:b9:6b:8c:93:
                    c9:44:3b:ca:fc:3c:94:7f:dd:70:c5:ad:d8:4b:3b:
                    dc:1e:f8:55:4b:b5:27:86:f8:df:b0:83:cf:f7:16:
                    37:bf:13:17:34:d4:c9:55:ed:6b:16:c9:7f:ad:20:
                    4e:f0:1e:d9:1b:bf:8d:ba:cd:ca:96:ef:1e:69:cb:
                    51:66:61:48:0d:e8:79:a3:59:61:d4:10:8d:e0:0d:
                    3b:0b:85:b6:d5:85:12:dd:a5:07:c5:4b:fa:23:fa:
                    54:39:f7:97:0b:c9:44:47:1e:56:77:3c:3c:13:01:
                    0b:6d:77:d6:14:ba:44:f4:53:35:56:d9:3d:b9:3e:
                    35:5f:db:33:9a:4f:5a:b9:38:44:c9:32:49:fe:66:
                    f6:1f:1a:97:aa:ca:4c:4a:f6:b8:5e:40:7f:fb:0b:
                    1d:f8:5b:a1:dc:f8:c0:2e:d0:6d:49:f5:d2:46:d4:
                    90:57:fe:92:81:34:ae:2d:38:bb:a8:17:0c:e1:e5:
                    3f:e2:f7:26:05:54:50:f5:64:b3:1c:6e:44:ff:6f:
                    a9:b4:03:96:e9:0e:c2:88:d8:72:52:90:99:c6:41:
                    0f:46:90:59:b8:3e:6f:d2:e2:9e:1d:36:82:95:d3:
                    58:8a:12:f3:e2:d8:0d:20:51:23:f0:90:2d:9a:3e:
                    7d:26:86:b2:a7:d7:f9:28:60:03:e3:77:c7:88:04:
                    c9:fe:89:77:70:10:4f:c3:a0:8a:3b:f4:ab:42:7b:
                    e3:14:92:d8:ae:16:d6:a1:de:7d
                Exponent: 65537 (0x10001)
        X509v3 extensions:
            X509v3 Subject Key Identifier: 
                F3:EC:94:8E:F2:8E:30:C4:8E:68:C2:BF:8E:6A:19:C0:C1:9F:76:65
            X509v3 Authority Key Identifier: 
                F3:EC:94:8E:F2:8E:30:C4:8E:68:C2:BF:8E:6A:19:C0:C1:9F:76:65
            X509v3 Basic Constraints: critical
                CA:TRUE
            X509v3 Key Usage: critical
                Digital Signature, Certificate Sign, CRL Sign
    Signature Algorithm: sha256WithRSAEncryption
    Signature Value:
        8b:00:54:72:b3:8d:eb:f3:af:34:9f:d6:60:ea:de:84:3f:8c:
        04:8f:19:a6:be:02:67:c4:63:c5:74:e3:47:37:59:83:94:06:
        f1:45:19:e8:07:2f:d6:4e:4b:4f:a8:3d:c7:07:07:27:92:f4:
        7e:73:4f:8b:32:19:94:46:7a:25:c4:d9:c4:27:b0:11:63:3a:
        60:8b:85:e1:73:4f:34:3b:6b:a4:34:8c:49:8e:cd:cf:4f:b2:
        65:27:41:19:b0:fc:80:31:78:f2:73:6a:9b:7d:71:34:50:fc:
        78:a8:da:05:b4:9c:5b:3a:99:7a:6b:5d:ef:3b:d3:e9:3b:33:
        01:12:65:cf:5e:07:d8:19:af:d5:53:ea:f0:10:ac:c4:b6:26:
        3c:34:2e:74:ee:64:dd:1d:36:75:89:44:00:b0:0d:fd:2f:b3:
        01:cc:1a:8b:02:cd:6c:e8:80:82:ca:bf:82:d7:00:9d:d8:36:
        15:d2:07:37:fc:6c:73:1d:da:a8:1c:e8:20:8e:32:7a:fe:6d:
        27:16:e4:58:6c:eb:3e:f0:fe:24:52:29:71:b8:96:7b:53:4b:
        45:20:55:40:5e:86:1b:ec:c9:46:91:92:ee:ac:93:65:91:2e:
        94:b6:b6:ac:e8:a3:34:89:a4:1a:12:0d:4d:44:a5:52:ed:8b:
        91:ee:2f:a6:af:a4:95:25:f9:ce:c7:5b:a7:00:d3:93:ca:b4:
        3c:5d:4d:f7:b1:3c:cc:6d:b4:45:be:82:ed:18:90:c8:86:d1:
        75:51:50:04:4c:e8:4f:d2:d6:50:aa:75:e7:5e:ff:a1:7b:27:
        19:1c:6b:49:2c:6c:4d:6b:63:cc:3b:73:00:f3:99:26:d0:82:
        87:d3:a9:36:9c:b4:3d:b9:48:68:a8:92:f0:27:8e:0c:cd:15:
        76:42:84:80:c9:3f:a3:7e:b4:dd:d7:f8:ac:76:ba:60:97:3c:
        5a:1f:4e:de:71:ee:09:39:10:dd:31:d5:68:57:5d:1a:e5:42:
        ba:0e:68:e6:45:d3
-----BEGIN CERTIFICATE-----
MIIEgDCCAuigAwIBAgIJAMstgJlaaVJbMA0GCSqGSIb3DQEBCwUAME0xCzAJBgNV
BAYTAlhZMSYwJAYDVQQKDB1QeXRob24gU29mdHdhcmUgRm91bmRhdGlvbiBDQTEW
MBQGA1UEAwwNb3VyLWNhLXNlcnZlcjAeFw0xODA4MjkxNDIzMTZaFw0zNzEwMjgx
NDIzMTZaME0xCzAJBgNVBAYTAlhZMSYwJAYDVQQKDB1QeXRob24gU29mdHdhcmUg
Rm91bmRhdGlvbiBDQTEWMBQGA1UEAwwNb3VyLWNhLXNlcnZlcjCCAaIwDQYJKoZI
hvcNAQEBBQADggGPADCCAYoCggGBANCgm7G5O3nuMS+4URwBde0JWUysyL9qCvh6
CPAl4yV7avjE2KqgYAclsM9zcQVSaL8Gk64QYZa8s2mBGn0Z/CCGj5poG+3N4mxh
Z8dOVepDBiEb6bm+hF/C2uuJiOBCpkVJKtC5a4yTyUQ7yvw8lH/dcMWt2Es73B74
VUu1J4b437CDz/cWN78TFzTUyVXtaxbJf60gTvAe2Ru/jbrNypbvHmnLUWZhSA3o
eaNZYdQQjeANOwuFttWFEt2lB8VL+iP6VDn3lwvJREceVnc8PBMBC2131hS6RPRT
NVbZPbk+NV/bM5pPWrk4RMkySf5m9h8al6rKTEr2uF5Af/sLHfhbodz4wC7QbUn1
0kbUkFf+koE0ri04u6gXDOHlP+L3JgVUUPVksxxuRP9vqbQDlukOwojYclKQmcZB
D0aQWbg+b9Linh02gpXTWIoS8+LYDSBRI/CQLZo+fSaGsqfX+ShgA+N3x4gEyf6J
d3AQT8Ogijv0q0J74xSS2K4W1qHefQIDAQABo2MwYTAdBgNVHQ4EFgQU8+yUjvKO
MMSOaMK/jmoZwMGfdmUwHwYDVR0jBBgwFoAU8+yUjvKOMMSOaMK/jmoZwMGfdmUw
DwYDVR0TAQH/BAUwAwEB/zAOBgNVHQ8BAf8EBAMCAYYwDQYJKoZIhvcNAQELBQAD
ggGBAIsAVHKzjevzrzSf1mDq3oQ/jASPGaa+AmfEY8V040c3WYOUBvFFGegHL9ZO
S0+oPccHByeS9H5zT4syGZRGeiXE2cQnsBFjOmCLheFzTzQ7a6Q0jEmOzc9PsmUn
QRmw/IAxePJzapt9cTRQ/Hio2gW0nFs6mXprXe870+k7MwESZc9eB9gZr9VT6vAQ
rMS2Jjw0LnTuZN0dNnWJRACwDf0vswHMGosCzWzogILKv4LXAJ3YNhXSBzf8bHMd
2qgc6CCOMnr+bScW5Fhs6z7w/iRSKXG4lntTS0UgVUBehhvsyUaRku6sk2WRLpS2
tqzoozSJpBoSDU1EpVLti5HuL6avpJUl+c7HW6cA05PKtDxdTfexPMxttEW+gu0Y
kMiG0XVRUARM6E/S1lCqdede/6F7Jxkca0ksbE1rY8w7cwDzmSbQgofTqTactD25
SGiokvAnjgzNFXZChIDJP6N+tN3X+Kx2umCXPFofTt5x7gk5EN0x1WhXXRrlQroO
aOZF0w==
-----END CERTIFICATE-----
