; Listing generated by Microsoft (R) Optimizing Compiler Version 19.00.24210.0 

include listing.inc

INCLUDELIB OLDNAMES

EXTRN	longest_match:PROC
EXTRN	match_init:PROC
?my_version@?1??deflateInit2_@@9@9 DB '1.2.11', 00H	; `deflateInit2_'::`2'::my_version
	ORG $+9
configuration_table DW 00H
	DW	00H
	DW	00H
	DW	00H
	DQ	FLAT:deflate_stored
	DW	04H
	DW	04H
	DW	08H
	DW	04H
	DQ	FLAT:deflate_fast
	DW	04H
	DW	05H
	DW	010H
	DW	08H
	DQ	FLAT:deflate_fast
	DW	04H
	DW	06H
	DW	020H
	DW	020H
	DQ	FLAT:deflate_fast
	DW	04H
	DW	04H
	DW	010H
	DW	010H
	DQ	FLAT:deflate_slow
	DW	08H
	DW	010H
	DW	020H
	DW	020H
	DQ	FLAT:deflate_slow
	DW	08H
	DW	010H
	DW	080H
	DW	080H
	DQ	FLAT:deflate_slow
	DW	08H
	DW	020H
	DW	080H
	DW	0100H
	DQ	FLAT:deflate_slow
	DW	020H
	DW	080H
	DW	0102H
	DW	0400H
	DQ	FLAT:deflate_slow
	DW	020H
	DW	0102H
	DW	0102H
	DW	01000H
	DQ	FLAT:deflate_slow
PUBLIC	deflateCopy
PUBLIC	deflateBound
PUBLIC	deflateTune
PUBLIC	deflateParams
PUBLIC	deflatePrime
PUBLIC	deflatePending
PUBLIC	deflateSetHeader
PUBLIC	deflateReset
PUBLIC	deflateResetKeep
PUBLIC	deflateGetDictionary
PUBLIC	deflateSetDictionary
PUBLIC	deflateInit2_
PUBLIC	deflateInit_
PUBLIC	deflateEnd
PUBLIC	deflate
;	COMDAT pdata
pdata	SEGMENT
$pdata$deflate_huff DD imagerel deflate_huff
	DD	imagerel deflate_huff+452
	DD	imagerel $unwind$deflate_huff
pdata	ENDS
;	COMDAT pdata
pdata	SEGMENT
$pdata$deflate_rle DD imagerel deflate_rle
	DD	imagerel deflate_rle+828
	DD	imagerel $unwind$deflate_rle
pdata	ENDS
;	COMDAT pdata
pdata	SEGMENT
$pdata$deflate_slow DD imagerel deflate_slow
	DD	imagerel deflate_slow+1294
	DD	imagerel $unwind$deflate_slow
pdata	ENDS
;	COMDAT pdata
pdata	SEGMENT
$pdata$deflate_fast DD imagerel deflate_fast
	DD	imagerel deflate_fast+1009
	DD	imagerel $unwind$deflate_fast
pdata	ENDS
;	COMDAT pdata
pdata	SEGMENT
$pdata$deflate_stored DD imagerel deflate_stored
	DD	imagerel deflate_stored+16
	DD	imagerel $unwind$deflate_stored
pdata	ENDS
;	COMDAT pdata
pdata	SEGMENT
$pdata$0$deflate_stored DD imagerel deflate_stored+16
	DD	imagerel deflate_stored+24
	DD	imagerel $chain$0$deflate_stored
pdata	ENDS
;	COMDAT pdata
pdata	SEGMENT
$pdata$4$deflate_stored DD imagerel deflate_stored+24
	DD	imagerel deflate_stored+434
	DD	imagerel $chain$4$deflate_stored
pdata	ENDS
;	COMDAT pdata
pdata	SEGMENT
$pdata$5$deflate_stored DD imagerel deflate_stored+434
	DD	imagerel deflate_stored+633
	DD	imagerel $chain$5$deflate_stored
pdata	ENDS
;	COMDAT pdata
pdata	SEGMENT
$pdata$6$deflate_stored DD imagerel deflate_stored+633
	DD	imagerel deflate_stored+1038
	DD	imagerel $chain$6$deflate_stored
pdata	ENDS
;	COMDAT pdata
pdata	SEGMENT
$pdata$fill_window DD imagerel fill_window
	DD	imagerel fill_window+516
	DD	imagerel $unwind$fill_window
pdata	ENDS
;	COMDAT pdata
pdata	SEGMENT
$pdata$lm_init DD imagerel lm_init
	DD	imagerel lm_init+180
	DD	imagerel $unwind$lm_init
pdata	ENDS
;	COMDAT pdata
pdata	SEGMENT
$pdata$read_buf DD imagerel read_buf
	DD	imagerel read_buf+160
	DD	imagerel $unwind$read_buf
pdata	ENDS
;	COMDAT pdata
pdata	SEGMENT
$pdata$deflateCopy DD imagerel $LN13@deflateCop
	DD	imagerel $LN13@deflateCop+41
	DD	imagerel $unwind$deflateCopy
pdata	ENDS
;	COMDAT pdata
pdata	SEGMENT
$pdata$1$deflateCopy DD imagerel $LN13@deflateCop+41
	DD	imagerel $LN13@deflateCop+148
	DD	imagerel $chain$1$deflateCopy
pdata	ENDS
;	COMDAT pdata
pdata	SEGMENT
$pdata$4$deflateCopy DD imagerel $LN13@deflateCop+148
	DD	imagerel $LN13@deflateCop+597
	DD	imagerel $chain$4$deflateCopy
pdata	ENDS
;	COMDAT pdata
pdata	SEGMENT
$pdata$6$deflateCopy DD imagerel $LN13@deflateCop+597
	DD	imagerel $LN13@deflateCop+612
	DD	imagerel $chain$6$deflateCopy
pdata	ENDS
;	COMDAT pdata
pdata	SEGMENT
$pdata$7$deflateCopy DD imagerel $LN13@deflateCop+612
	DD	imagerel $LN13@deflateCop+623
	DD	imagerel $chain$7$deflateCopy
pdata	ENDS
;	COMDAT pdata
pdata	SEGMENT
$pdata$flush_pending DD imagerel flush_pending
	DD	imagerel flush_pending+52
	DD	imagerel $unwind$flush_pending
pdata	ENDS
;	COMDAT pdata
pdata	SEGMENT
$pdata$0$flush_pending DD imagerel flush_pending+52
	DD	imagerel flush_pending+91
	DD	imagerel $chain$0$flush_pending
pdata	ENDS
;	COMDAT pdata
pdata	SEGMENT
$pdata$1$flush_pending DD imagerel flush_pending+91
	DD	imagerel flush_pending+115
	DD	imagerel $chain$1$flush_pending
pdata	ENDS
;	COMDAT pdata
pdata	SEGMENT
$pdata$deflateBound DD imagerel $LN30@deflateBou
	DD	imagerel $LN30@deflateBou+273
	DD	imagerel $unwind$deflateBound
pdata	ENDS
;	COMDAT pdata
pdata	SEGMENT
$pdata$deflateTune DD imagerel $LN5@deflateTun
	DD	imagerel $LN5@deflateTun+71
	DD	imagerel $unwind$deflateTune
pdata	ENDS
;	COMDAT pdata
pdata	SEGMENT
$pdata$deflateParams DD imagerel $LN19@deflatePar
	DD	imagerel $LN19@deflatePar+44
	DD	imagerel $unwind$deflateParams
pdata	ENDS
;	COMDAT pdata
pdata	SEGMENT
$pdata$1$deflateParams DD imagerel $LN19@deflatePar+44
	DD	imagerel $LN19@deflatePar+89
	DD	imagerel $chain$1$deflateParams
pdata	ENDS
;	COMDAT pdata
pdata	SEGMENT
$pdata$2$deflateParams DD imagerel $LN19@deflatePar+89
	DD	imagerel $LN19@deflatePar+169
	DD	imagerel $chain$2$deflateParams
pdata	ENDS
;	COMDAT pdata
pdata	SEGMENT
$pdata$3$deflateParams DD imagerel $LN19@deflatePar+169
	DD	imagerel $LN19@deflatePar+190
	DD	imagerel $chain$3$deflateParams
pdata	ENDS
;	COMDAT pdata
pdata	SEGMENT
$pdata$5$deflateParams DD imagerel $LN19@deflatePar+190
	DD	imagerel $LN19@deflatePar+360
	DD	imagerel $chain$5$deflateParams
pdata	ENDS
;	COMDAT pdata
pdata	SEGMENT
$pdata$6$deflateParams DD imagerel $LN19@deflatePar+360
	DD	imagerel $LN19@deflatePar+370
	DD	imagerel $chain$6$deflateParams
pdata	ENDS
;	COMDAT pdata
pdata	SEGMENT
$pdata$deflatePrime DD imagerel $LN16@deflatePri
	DD	imagerel $LN16@deflatePri+175
	DD	imagerel $unwind$deflatePrime
pdata	ENDS
;	COMDAT pdata
pdata	SEGMENT
$pdata$deflatePending DD imagerel $LN7@deflatePen
	DD	imagerel $LN7@deflatePen+69
	DD	imagerel $unwind$deflatePending
pdata	ENDS
;	COMDAT pdata
pdata	SEGMENT
$pdata$deflateSetHeader DD imagerel $LN6@deflateSet
	DD	imagerel $LN6@deflateSet+50
	DD	imagerel $unwind$deflateSetHeader
pdata	ENDS
;	COMDAT pdata
pdata	SEGMENT
$pdata$deflateReset DD imagerel $LN6@deflateRes
	DD	imagerel $LN6@deflateRes+46
	DD	imagerel $unwind$deflateReset
pdata	ENDS
;	COMDAT pdata
pdata	SEGMENT
$pdata$deflateResetKeep DD imagerel $LN10@deflateRes
	DD	imagerel $LN10@deflateRes+174
	DD	imagerel $unwind$deflateResetKeep
pdata	ENDS
;	COMDAT pdata
pdata	SEGMENT
$pdata$deflateGetDictionary DD imagerel $LN8@deflateGet
	DD	imagerel $LN8@deflateGet+121
	DD	imagerel $unwind$deflateGetDictionary
pdata	ENDS
;	COMDAT pdata
pdata	SEGMENT
$pdata$deflateSetDictionary DD imagerel $LN27@deflateSet
	DD	imagerel $LN27@deflateSet+39
	DD	imagerel $unwind$deflateSetDictionary
pdata	ENDS
;	COMDAT pdata
pdata	SEGMENT
$pdata$1$deflateSetDictionary DD imagerel $LN27@deflateSet+39
	DD	imagerel $LN27@deflateSet+96
	DD	imagerel $chain$1$deflateSetDictionary
pdata	ENDS
;	COMDAT pdata
pdata	SEGMENT
$pdata$4$deflateSetDictionary DD imagerel $LN27@deflateSet+96
	DD	imagerel $LN27@deflateSet+501
	DD	imagerel $chain$4$deflateSetDictionary
pdata	ENDS
;	COMDAT pdata
pdata	SEGMENT
$pdata$5$deflateSetDictionary DD imagerel $LN27@deflateSet+501
	DD	imagerel $LN27@deflateSet+519
	DD	imagerel $chain$5$deflateSetDictionary
pdata	ENDS
;	COMDAT pdata
pdata	SEGMENT
$pdata$7$deflateSetDictionary DD imagerel $LN27@deflateSet+519
	DD	imagerel $LN27@deflateSet+526
	DD	imagerel $chain$7$deflateSetDictionary
pdata	ENDS
;	COMDAT pdata
pdata	SEGMENT
$pdata$8$deflateSetDictionary DD imagerel $LN27@deflateSet+526
	DD	imagerel $LN27@deflateSet+539
	DD	imagerel $chain$8$deflateSetDictionary
pdata	ENDS
;	COMDAT pdata
pdata	SEGMENT
$pdata$deflateInit2_ DD imagerel $LN25@deflateIni
	DD	imagerel $LN25@deflateIni+87
	DD	imagerel $unwind$deflateInit2_
pdata	ENDS
;	COMDAT pdata
pdata	SEGMENT
$pdata$2$deflateInit2_ DD imagerel $LN25@deflateIni+87
	DD	imagerel $LN25@deflateIni+275
	DD	imagerel $chain$2$deflateInit2_
pdata	ENDS
;	COMDAT pdata
pdata	SEGMENT
$pdata$3$deflateInit2_ DD imagerel $LN25@deflateIni+275
	DD	imagerel $LN25@deflateIni+575
	DD	imagerel $chain$3$deflateInit2_
pdata	ENDS
;	COMDAT pdata
pdata	SEGMENT
$pdata$4$deflateInit2_ DD imagerel $LN25@deflateIni+575
	DD	imagerel $LN25@deflateIni+601
	DD	imagerel $chain$4$deflateInit2_
pdata	ENDS
;	COMDAT pdata
pdata	SEGMENT
$pdata$6$deflateInit2_ DD imagerel $LN25@deflateIni+601
	DD	imagerel $LN25@deflateIni+634
	DD	imagerel $chain$6$deflateInit2_
pdata	ENDS
;	COMDAT pdata
pdata	SEGMENT
$pdata$7$deflateInit2_ DD imagerel $LN25@deflateIni+634
	DD	imagerel $LN25@deflateIni+641
	DD	imagerel $chain$7$deflateInit2_
pdata	ENDS
;	COMDAT pdata
pdata	SEGMENT
$pdata$8$deflateInit2_ DD imagerel $LN25@deflateIni+641
	DD	imagerel $LN25@deflateIni+657
	DD	imagerel $chain$8$deflateInit2_
pdata	ENDS
;	COMDAT pdata
pdata	SEGMENT
$pdata$deflateInit_ DD imagerel $LN4@deflateIni
	DD	imagerel $LN4@deflateIni+50
	DD	imagerel $unwind$deflateInit_
pdata	ENDS
;	COMDAT pdata
pdata	SEGMENT
$pdata$deflateEnd DD imagerel $LN9@deflateEnd
	DD	imagerel $LN9@deflateEnd+156
	DD	imagerel $unwind$deflateEnd
pdata	ENDS
;	COMDAT pdata
pdata	SEGMENT
$pdata$deflate DD imagerel $LN139@deflate
	DD	imagerel $LN139@deflate+42
	DD	imagerel $unwind$deflate
pdata	ENDS
;	COMDAT pdata
pdata	SEGMENT
$pdata$0$deflate DD imagerel $LN139@deflate+42
	DD	imagerel $LN139@deflate+126
	DD	imagerel $chain$0$deflate
pdata	ENDS
;	COMDAT pdata
pdata	SEGMENT
$pdata$3$deflate DD imagerel $LN139@deflate+126
	DD	imagerel $LN139@deflate+185
	DD	imagerel $chain$3$deflate
pdata	ENDS
;	COMDAT pdata
pdata	SEGMENT
$pdata$5$deflate DD imagerel $LN139@deflate+185
	DD	imagerel $LN139@deflate+284
	DD	imagerel $chain$5$deflate
pdata	ENDS
;	COMDAT pdata
pdata	SEGMENT
$pdata$7$deflate DD imagerel $LN139@deflate+284
	DD	imagerel $LN139@deflate+731
	DD	imagerel $chain$7$deflate
pdata	ENDS
;	COMDAT pdata
pdata	SEGMENT
$pdata$9$deflate DD imagerel $LN139@deflate+731
	DD	imagerel $LN139@deflate+1050
	DD	imagerel $chain$9$deflate
pdata	ENDS
;	COMDAT pdata
pdata	SEGMENT
$pdata$12$deflate DD imagerel $LN139@deflate+1050
	DD	imagerel $LN139@deflate+2131
	DD	imagerel $chain$12$deflate
pdata	ENDS
;	COMDAT pdata
pdata	SEGMENT
$pdata$14$deflate DD imagerel $LN139@deflate+2131
	DD	imagerel $LN139@deflate+2352
	DD	imagerel $chain$14$deflate
pdata	ENDS
;	COMDAT pdata
pdata	SEGMENT
$pdata$15$deflate DD imagerel $LN139@deflate+2352
	DD	imagerel $LN139@deflate+2381
	DD	imagerel $chain$15$deflate
pdata	ENDS
;	COMDAT pdata
pdata	SEGMENT
$pdata$16$deflate DD imagerel $LN139@deflate+2381
	DD	imagerel $LN139@deflate+2394
	DD	imagerel $chain$16$deflate
;	COMDAT xdata
xdata	SEGMENT
$chain$16$deflate DD 021H
	DD	imagerel $LN139@deflate
	DD	imagerel $LN139@deflate+42
	DD	imagerel $unwind$deflate
xdata	ENDS
;	COMDAT xdata
xdata	SEGMENT
$chain$15$deflate DD 020021H
	DD	083400H
	DD	imagerel $LN139@deflate
	DD	imagerel $LN139@deflate+42
	DD	imagerel $unwind$deflate
xdata	ENDS
;	COMDAT xdata
xdata	SEGMENT
$chain$14$deflate DD 0a0021H
	DD	04f400H
	DD	0be400H
	DD	0a6400H
	DD	095400H
	DD	083400H
	DD	imagerel $LN139@deflate
	DD	imagerel $LN139@deflate+42
	DD	imagerel $unwind$deflate
xdata	ENDS
;	COMDAT xdata
xdata	SEGMENT
$chain$12$deflate DD 060f21H
	DD	04f40fH
	DD	0be40aH
	DD	095405H
	DD	imagerel $LN139@deflate+731
	DD	imagerel $LN139@deflate+1050
	DD	imagerel $chain$9$deflate
xdata	ENDS
;	COMDAT xdata
xdata	SEGMENT
$chain$9$deflate DD 040021H
	DD	0a6400H
	DD	083400H
	DD	imagerel $LN139@deflate
	DD	imagerel $LN139@deflate+42
	DD	imagerel $unwind$deflate
xdata	ENDS
;	COMDAT xdata
xdata	SEGMENT
$chain$7$deflate DD 040021H
	DD	0a6400H
	DD	083400H
	DD	imagerel $LN139@deflate
	DD	imagerel $LN139@deflate+42
	DD	imagerel $unwind$deflate
xdata	ENDS
;	COMDAT xdata
xdata	SEGMENT
$chain$5$deflate DD 040021H
	DD	0a6400H
	DD	083400H
	DD	imagerel $LN139@deflate
	DD	imagerel $LN139@deflate+42
	DD	imagerel $unwind$deflate
xdata	ENDS
;	COMDAT xdata
xdata	SEGMENT
$chain$3$deflate DD 040821H
	DD	0a6408H
	DD	083400H
	DD	imagerel $LN139@deflate
	DD	imagerel $LN139@deflate+42
	DD	imagerel $unwind$deflate
xdata	ENDS
;	COMDAT xdata
xdata	SEGMENT
$chain$0$deflate DD 020521H
	DD	083405H
	DD	imagerel $LN139@deflate
	DD	imagerel $LN139@deflate+42
	DD	imagerel $unwind$deflate
xdata	ENDS
;	COMDAT xdata
xdata	SEGMENT
$unwind$deflate DD 030801H
	DD	0c0044208H
	DD	07002H
xdata	ENDS
;	COMDAT xdata
xdata	SEGMENT
$unwind$deflateEnd DD 042601H
	DD	067426H
	DD	030023206H
xdata	ENDS
;	COMDAT xdata
xdata	SEGMENT
$unwind$deflateInit_ DD 010401H
	DD	08204H
xdata	ENDS
;	COMDAT xdata
xdata	SEGMENT
$chain$8$deflateInit2_ DD 021H
	DD	imagerel $LN25@deflateIni
	DD	imagerel $LN25@deflateIni+87
	DD	imagerel $unwind$deflateInit2_
xdata	ENDS
;	COMDAT xdata
xdata	SEGMENT
$chain$7$deflateInit2_ DD 060021H
	DD	04d400H
	DD	0cc400H
	DD	0a5400H
	DD	imagerel $LN25@deflateIni
	DD	imagerel $LN25@deflateIni+87
	DD	imagerel $unwind$deflateInit2_
xdata	ENDS
;	COMDAT xdata
xdata	SEGMENT
$chain$6$deflateInit2_ DD 080021H
	DD	04d400H
	DD	0cc400H
	DD	0b6400H
	DD	0a5400H
	DD	imagerel $LN25@deflateIni
	DD	imagerel $LN25@deflateIni+87
	DD	imagerel $unwind$deflateInit2_
xdata	ENDS
;	COMDAT xdata
xdata	SEGMENT
$chain$4$deflateInit2_ DD 021H
	DD	imagerel $LN25@deflateIni+87
	DD	imagerel $LN25@deflateIni+275
	DD	imagerel $chain$2$deflateInit2_
xdata	ENDS
;	COMDAT xdata
xdata	SEGMENT
$chain$3$deflateInit2_ DD 020521H
	DD	0b6405H
	DD	imagerel $LN25@deflateIni+87
	DD	imagerel $LN25@deflateIni+275
	DD	imagerel $chain$2$deflateInit2_
xdata	ENDS
;	COMDAT xdata
xdata	SEGMENT
$chain$2$deflateInit2_ DD 066221H
	DD	0cc462H
	DD	04d40aH
	DD	0a5405H
	DD	imagerel $LN25@deflateIni
	DD	imagerel $LN25@deflateIni+87
	DD	imagerel $unwind$deflateInit2_
xdata	ENDS
;	COMDAT xdata
xdata	SEGMENT
$unwind$deflateInit2_ DD 050b01H
	DD	0f007420bH
	DD	07003e005H
	DD	03002H
xdata	ENDS
;	COMDAT xdata
xdata	SEGMENT
$chain$8$deflateSetDictionary DD 021H
	DD	imagerel $LN27@deflateSet
	DD	imagerel $LN27@deflateSet+39
	DD	imagerel $unwind$deflateSetDictionary
xdata	ENDS
;	COMDAT xdata
xdata	SEGMENT
$chain$7$deflateSetDictionary DD 040021H
	DD	05e400H
	DD	0a3400H
	DD	imagerel $LN27@deflateSet
	DD	imagerel $LN27@deflateSet+39
	DD	imagerel $unwind$deflateSetDictionary
xdata	ENDS
;	COMDAT xdata
xdata	SEGMENT
$chain$5$deflateSetDictionary DD 021H
	DD	imagerel $LN27@deflateSet+39
	DD	imagerel $LN27@deflateSet+96
	DD	imagerel $chain$1$deflateSetDictionary
xdata	ENDS
;	COMDAT xdata
xdata	SEGMENT
$chain$4$deflateSetDictionary DD 060f21H
	DD	04f40fH
	DD	0cd40aH
	DD	0bc405H
	DD	imagerel $LN27@deflateSet+39
	DD	imagerel $LN27@deflateSet+96
	DD	imagerel $chain$1$deflateSetDictionary
xdata	ENDS
;	COMDAT xdata
xdata	SEGMENT
$chain$1$deflateSetDictionary DD 040e21H
	DD	05e40eH
	DD	0a3405H
	DD	imagerel $LN27@deflateSet
	DD	imagerel $LN27@deflateSet+39
	DD	imagerel $unwind$deflateSetDictionary
xdata	ENDS
;	COMDAT xdata
xdata	SEGMENT
$unwind$deflateSetDictionary DD 040801H
	DD	070045208H
	DD	050026003H
xdata	ENDS
;	COMDAT xdata
xdata	SEGMENT
$unwind$deflateGetDictionary DD 042c01H
	DD	06342cH
	DD	070023206H
xdata	ENDS
;	COMDAT xdata
xdata	SEGMENT
$unwind$deflateResetKeep DD 063201H
	DD	076432H
	DD	063429H
	DD	070023206H
xdata	ENDS
;	COMDAT xdata
xdata	SEGMENT
$unwind$deflateReset DD 040a01H
	DD	06340aH
	DD	07006320aH
xdata	ENDS
;	COMDAT xdata
xdata	SEGMENT
$unwind$deflateSetHeader DD 010401H
	DD	04204H
xdata	ENDS
;	COMDAT xdata
xdata	SEGMENT
$unwind$deflatePending DD 010401H
	DD	04204H
xdata	ENDS
;	COMDAT xdata
xdata	SEGMENT
$unwind$deflatePrime DD 040a01H
	DD	06340aH
	DD	07006320aH
xdata	ENDS
;	COMDAT xdata
xdata	SEGMENT
$chain$6$deflateParams DD 040021H
	DD	077400H
	DD	063400H
	DD	imagerel $LN19@deflatePar
	DD	imagerel $LN19@deflatePar+44
	DD	imagerel $unwind$deflateParams
xdata	ENDS
;	COMDAT xdata
xdata	SEGMENT
$chain$5$deflateParams DD 060021H
	DD	08e400H
	DD	077400H
	DD	063400H
	DD	imagerel $LN19@deflatePar
	DD	imagerel $LN19@deflatePar+44
	DD	imagerel $unwind$deflateParams
xdata	ENDS
;	COMDAT xdata
xdata	SEGMENT
$chain$3$deflateParams DD 021H
	DD	imagerel $LN19@deflatePar+44
	DD	imagerel $LN19@deflatePar+89
	DD	imagerel $chain$1$deflateParams
xdata	ENDS
;	COMDAT xdata
xdata	SEGMENT
$chain$2$deflateParams DD 020521H
	DD	08e405H
	DD	imagerel $LN19@deflatePar+44
	DD	imagerel $LN19@deflatePar+89
	DD	imagerel $chain$1$deflateParams
xdata	ENDS
;	COMDAT xdata
xdata	SEGMENT
$chain$1$deflateParams DD 041221H
	DD	077412H
	DD	063405H
	DD	imagerel $LN19@deflatePar
	DD	imagerel $LN19@deflatePar+44
	DD	imagerel $unwind$deflateParams
xdata	ENDS
;	COMDAT xdata
xdata	SEGMENT
$unwind$deflateParams DD 040a01H
	DD	09540aH
	DD	06006320aH
xdata	ENDS
;	COMDAT xdata
xdata	SEGMENT
$unwind$deflateTune DD 010401H
	DD	04204H
xdata	ENDS
;	COMDAT xdata
xdata	SEGMENT
$unwind$deflateBound DD 010401H
	DD	04204H
xdata	ENDS
;	COMDAT xdata
xdata	SEGMENT
$chain$1$flush_pending DD 021H
	DD	imagerel flush_pending
	DD	imagerel flush_pending+52
	DD	imagerel $unwind$flush_pending
xdata	ENDS
;	COMDAT xdata
xdata	SEGMENT
$chain$0$flush_pending DD 020521H
	DD	063405H
	DD	imagerel flush_pending
	DD	imagerel flush_pending+52
	DD	imagerel $unwind$flush_pending
xdata	ENDS
;	COMDAT xdata
xdata	SEGMENT
$unwind$flush_pending DD 060f01H
	DD	08640fH
	DD	07540fH
	DD	0700b320fH
xdata	ENDS
;	COMDAT xdata
xdata	SEGMENT
$chain$7$deflateCopy DD 021H
	DD	imagerel $LN13@deflateCop
	DD	imagerel $LN13@deflateCop+41
	DD	imagerel $unwind$deflateCopy
xdata	ENDS
;	COMDAT xdata
xdata	SEGMENT
$chain$6$deflateCopy DD 060021H
	DD	08e400H
	DD	077400H
	DD	066400H
	DD	imagerel $LN13@deflateCop
	DD	imagerel $LN13@deflateCop+41
	DD	imagerel $unwind$deflateCopy
xdata	ENDS
;	COMDAT xdata
xdata	SEGMENT
$chain$4$deflateCopy DD 060521H
	DD	08e405H
	DD	077400H
	DD	066400H
	DD	imagerel $LN13@deflateCop
	DD	imagerel $LN13@deflateCop+41
	DD	imagerel $unwind$deflateCopy
xdata	ENDS
;	COMDAT xdata
xdata	SEGMENT
$chain$1$deflateCopy DD 041421H
	DD	077414H
	DD	066405H
	DD	imagerel $LN13@deflateCop
	DD	imagerel $LN13@deflateCop+41
	DD	imagerel $unwind$deflateCopy
xdata	ENDS
;	COMDAT xdata
xdata	SEGMENT
$unwind$deflateCopy DD 020601H
	DD	030023206H
xdata	ENDS
;	COMDAT xdata
xdata	SEGMENT
$unwind$read_buf DD 084701H
	DD	065447H
	DD	08640fH
	DD	07340fH
	DD	0700b320fH
xdata	ENDS
;	COMDAT xdata
xdata	SEGMENT
$unwind$lm_init DD 040a01H
	DD	06340aH
	DD	07006320aH
xdata	ENDS
;	COMDAT xdata
xdata	SEGMENT
$unwind$fill_window DD 060f01H
	DD	07640fH
	DD	06340fH
	DD	0700b320fH
xdata	ENDS
;	COMDAT xdata
xdata	SEGMENT
$chain$6$deflate_stored DD 020021H
	DD	0d7400H
	DD	imagerel deflate_stored
	DD	imagerel deflate_stored+16
	DD	imagerel $unwind$deflate_stored
xdata	ENDS
;	COMDAT xdata
xdata	SEGMENT
$chain$5$deflate_stored DD 020021H
	DD	0d7400H
	DD	imagerel deflate_stored+16
	DD	imagerel deflate_stored+24
	DD	imagerel $chain$0$deflate_stored
xdata	ENDS
;	COMDAT xdata
xdata	SEGMENT
$chain$4$deflate_stored DD 083721H
	DD	0d7437H
	DD	0c6432H
	DD	0b541aH
	DD	04d405H
	DD	imagerel deflate_stored+16
	DD	imagerel deflate_stored+24
	DD	imagerel $chain$0$deflate_stored
xdata	ENDS
;	COMDAT xdata
xdata	SEGMENT
$chain$0$deflate_stored DD 020521H
	DD	05c405H
	DD	imagerel deflate_stored
	DD	imagerel deflate_stored+16
	DD	imagerel $unwind$deflate_stored
xdata	ENDS
;	COMDAT xdata
xdata	SEGMENT
$unwind$deflate_stored DD 040a01H
	DD	0f006520aH
	DD	03002e004H
xdata	ENDS
;	COMDAT xdata
xdata	SEGMENT
$unwind$deflate_fast DD 0a1801H
	DD	0a6418H
	DD	095418H
	DD	083418H
	DD	0f0143218H
	DD	07010e012H
xdata	ENDS
;	COMDAT xdata
xdata	SEGMENT
$unwind$deflate_slow DD 0c1e01H
	DD	0a541eH
	DD	0c6417H
	DD	0b3417H
	DD	0f0133217H
	DD	0d00fe011H
	DD	0700bc00dH
xdata	ENDS
;	COMDAT xdata
xdata	SEGMENT
$unwind$deflate_rle DD 0a1a01H
	DD	09741aH
	DD	08641aH
	DD	07541aH
	DD	06341aH
	DD	0e016321aH
xdata	ENDS
;	COMDAT xdata
xdata	SEGMENT
$unwind$deflate_huff DD 060f01H
	DD	07640fH
	DD	06340fH
	DD	0700b320fH
END
