; Listing generated by Microsoft (R) Optimizing Compiler Version 19.00.24210.0 

include listing.inc

INCLUDELIB OLDNAMES

PUBLIC	??_C@_02DKCKIIND@?$CFs?$AA@			; `string'
PUBLIC	??_C@_07EBNKNFJN@?$DMfd?3?$CFd?$DO?$AA@		; `string'
PUBLIC	??_C@_0O@BNNCBLEN@out?5of?5memory?$AA@		; `string'
PUBLIC	??_C@_00CNPNBAHC@?$AA@				; `string'
PUBLIC	??_C@_02LMMGGCAJ@?3?5?$AA@			; `string'
PUBLIC	??_C@_06DIJPEION@?$CFs?$CFs?$CFs?$AA@		; `string'
EXTRN	__imp_malloc:PROC
EXTRN	__imp_free:PROC
EXTRN	__imp___stdio_common_vsprintf:PROC
EXTRN	__imp_wcstombs:PROC
EXTRN	__imp__open:PROC
EXTRN	__imp__wopen:PROC
EXTRN	__imp__lseeki64:PROC
;	COMDAT ??_C@_06DIJPEION@?$CFs?$CFs?$CFs?$AA@
CONST	SEGMENT
??_C@_06DIJPEION@?$CFs?$CFs?$CFs?$AA@ DB '%s%s%s', 00H	; `string'
CONST	ENDS
;	COMDAT ??_C@_02LMMGGCAJ@?3?5?$AA@
CONST	SEGMENT
??_C@_02LMMGGCAJ@?3?5?$AA@ DB ': ', 00H			; `string'
CONST	ENDS
;	COMDAT ??_C@_00CNPNBAHC@?$AA@
CONST	SEGMENT
??_C@_00CNPNBAHC@?$AA@ DB 00H				; `string'
CONST	ENDS
;	COMDAT ??_C@_0O@BNNCBLEN@out?5of?5memory?$AA@
CONST	SEGMENT
??_C@_0O@BNNCBLEN@out?5of?5memory?$AA@ DB 'out of memory', 00H ; `string'
CONST	ENDS
;	COMDAT ??_C@_07EBNKNFJN@?$DMfd?3?$CFd?$DO?$AA@
CONST	SEGMENT
??_C@_07EBNKNFJN@?$DMfd?3?$CFd?$DO?$AA@ DB '<fd:%d>', 00H ; `string'
CONST	ENDS
;	COMDAT ??_C@_02DKCKIIND@?$CFs?$AA@
CONST	SEGMENT
??_C@_02DKCKIIND@?$CFs?$AA@ DB '%s', 00H		; `string'
PUBLIC	gz_error
PUBLIC	gzclearerr
PUBLIC	gzerror
PUBLIC	gzeof
PUBLIC	gzoffset
PUBLIC	gzoffset64
PUBLIC	gztell
PUBLIC	gztell64
PUBLIC	gzseek
PUBLIC	gzseek64
PUBLIC	gzrewind
PUBLIC	gzbuffer
PUBLIC	gzopen_w
PUBLIC	gzdopen
PUBLIC	gzopen
PUBLIC	snprintf
PUBLIC	vsnprintf
PUBLIC	__local_stdio_printf_options
;	COMDAT pdata
pdata	SEGMENT
$pdata$gz_error DD imagerel $LN15@gz_error
	DD	imagerel $LN15@gz_error+253
	DD	imagerel $unwind$gz_error
pdata	ENDS
;	COMDAT pdata
pdata	SEGMENT
$pdata$gzoffset DD imagerel $LN4@gzoffset
	DD	imagerel $LN4@gzoffset+29
	DD	imagerel $unwind$gzoffset
pdata	ENDS
;	COMDAT pdata
pdata	SEGMENT
$pdata$gzoffset64 DD imagerel $LN9@gzoffset64
	DD	imagerel $LN9@gzoffset64+92
	DD	imagerel $unwind$gzoffset64
pdata	ENDS
;	COMDAT pdata
pdata	SEGMENT
$pdata$gztell DD imagerel $LN4@gztell
	DD	imagerel $LN4@gztell+30
	DD	imagerel $unwind$gztell
pdata	ENDS
;	COMDAT pdata
pdata	SEGMENT
$pdata$gzseek DD imagerel $LN4@gzseek
	DD	imagerel $LN4@gzseek+32
	DD	imagerel $unwind$gzseek
pdata	ENDS
;	COMDAT pdata
pdata	SEGMENT
$pdata$gzseek64 DD imagerel $LN25@gzseek64
	DD	imagerel $LN25@gzseek64+94
	DD	imagerel $unwind$gzseek64
pdata	ENDS
;	COMDAT pdata
pdata	SEGMENT
$pdata$0$gzseek64 DD imagerel $LN25@gzseek64+94
	DD	imagerel $LN25@gzseek64+206
	DD	imagerel $chain$0$gzseek64
pdata	ENDS
;	COMDAT pdata
pdata	SEGMENT
$pdata$2$gzseek64 DD imagerel $LN25@gzseek64+206
	DD	imagerel $LN25@gzseek64+258
	DD	imagerel $chain$2$gzseek64
pdata	ENDS
;	COMDAT pdata
pdata	SEGMENT
$pdata$4$gzseek64 DD imagerel $LN25@gzseek64+258
	DD	imagerel $LN25@gzseek64+333
	DD	imagerel $chain$4$gzseek64
pdata	ENDS
;	COMDAT pdata
pdata	SEGMENT
$pdata$gzrewind DD imagerel $LN8@gzrewind
	DD	imagerel $LN8@gzrewind+82
	DD	imagerel $unwind$gzrewind
pdata	ENDS
;	COMDAT pdata
pdata	SEGMENT
$pdata$gzdopen DD imagerel $LN6@gzdopen
	DD	imagerel $LN6@gzdopen+129
	DD	imagerel $unwind$gzdopen
pdata	ENDS
;	COMDAT pdata
pdata	SEGMENT
$pdata$gz_open DD imagerel gz_open
	DD	imagerel gz_open+52
	DD	imagerel $unwind$gz_open
pdata	ENDS
;	COMDAT pdata
pdata	SEGMENT
$pdata$0$gz_open DD imagerel gz_open+52
	DD	imagerel gz_open+75
	DD	imagerel $chain$0$gz_open
pdata	ENDS
;	COMDAT pdata
pdata	SEGMENT
$pdata$1$gz_open DD imagerel gz_open+75
	DD	imagerel gz_open+638
	DD	imagerel $chain$1$gz_open
pdata	ENDS
;	COMDAT pdata
pdata	SEGMENT
$pdata$2$gz_open DD imagerel gz_open+638
	DD	imagerel gz_open+643
	DD	imagerel $chain$2$gz_open
pdata	ENDS
;	COMDAT pdata
pdata	SEGMENT
$pdata$3$gz_open DD imagerel gz_open+643
	DD	imagerel gz_open+786
	DD	imagerel $chain$3$gz_open
pdata	ENDS
;	COMDAT pdata
pdata	SEGMENT
$pdata$gz_reset DD imagerel gz_reset
	DD	imagerel gz_reset+67
	DD	imagerel $unwind$gz_reset
pdata	ENDS
;	COMDAT pdata
pdata	SEGMENT
$pdata$snprintf DD imagerel $LN6@snprintf
	DD	imagerel $LN6@snprintf+90
	DD	imagerel $unwind$snprintf
pdata	ENDS
;	COMDAT pdata
pdata	SEGMENT
$pdata$vsnprintf DD imagerel $LN4@vsnprintf
	DD	imagerel $LN4@vsnprintf+102
	DD	imagerel $unwind$vsnprintf
;	COMDAT xdata
xdata	SEGMENT
$unwind$vsnprintf DD 081401H
	DD	0a6414H
	DD	095414H
	DD	083414H
	DD	070105214H
xdata	ENDS
;	COMDAT xdata
xdata	SEGMENT
$unwind$snprintf DD 051201H
	DD	0700e6212H
	DD	0500c600dH
	DD	0300bH
xdata	ENDS
;	COMDAT xdata
xdata	SEGMENT
$unwind$gz_reset DD 040a01H
	DD	06340aH
	DD	07006320aH
xdata	ENDS
;	COMDAT xdata
xdata	SEGMENT
$chain$3$gz_open DD 021H
	DD	imagerel gz_open
	DD	imagerel gz_open+52
	DD	imagerel $unwind$gz_open
xdata	ENDS
;	COMDAT xdata
xdata	SEGMENT
$chain$2$gz_open DD 021H
	DD	imagerel gz_open+52
	DD	imagerel gz_open+75
	DD	imagerel $chain$0$gz_open
xdata	ENDS
;	COMDAT xdata
xdata	SEGMENT
$chain$1$gz_open DD 020521H
	DD	097405H
	DD	imagerel gz_open+52
	DD	imagerel gz_open+75
	DD	imagerel $chain$0$gz_open
xdata	ENDS
;	COMDAT xdata
xdata	SEGMENT
$chain$0$gz_open DD 020521H
	DD	083405H
	DD	imagerel gz_open
	DD	imagerel gz_open+52
	DD	imagerel $unwind$gz_open
xdata	ENDS
;	COMDAT xdata
xdata	SEGMENT
$unwind$gz_open DD 081401H
	DD	0b6414H
	DD	0a5414H
	DD	0f0103214H
	DD	0c00ce00eH
xdata	ENDS
;	COMDAT xdata
xdata	SEGMENT
$unwind$gzdopen DD 060f01H
	DD	07640fH
	DD	06340fH
	DD	0700b320fH
xdata	ENDS
;	COMDAT xdata
xdata	SEGMENT
$unwind$gzrewind DD 020601H
	DD	030023206H
xdata	ENDS
;	COMDAT xdata
xdata	SEGMENT
$chain$4$gzseek64 DD 020021H
	DD	066400H
	DD	imagerel $LN25@gzseek64
	DD	imagerel $LN25@gzseek64+94
	DD	imagerel $unwind$gzseek64
xdata	ENDS
;	COMDAT xdata
xdata	SEGMENT
$chain$2$gzseek64 DD 020021H
	DD	066400H
	DD	imagerel $LN25@gzseek64
	DD	imagerel $LN25@gzseek64+94
	DD	imagerel $unwind$gzseek64
xdata	ENDS
;	COMDAT xdata
xdata	SEGMENT
$chain$0$gzseek64 DD 020521H
	DD	066405H
	DD	imagerel $LN25@gzseek64
	DD	imagerel $LN25@gzseek64+94
	DD	imagerel $unwind$gzseek64
xdata	ENDS
;	COMDAT xdata
xdata	SEGMENT
$unwind$gzseek64 DD 040a01H
	DD	07340aH
	DD	07006320aH
xdata	ENDS
;	COMDAT xdata
xdata	SEGMENT
$unwind$gzseek DD 010401H
	DD	04204H
xdata	ENDS
;	COMDAT xdata
xdata	SEGMENT
$unwind$gztell DD 010401H
	DD	04204H
xdata	ENDS
;	COMDAT xdata
xdata	SEGMENT
$unwind$gzoffset64 DD 020601H
	DD	030023206H
xdata	ENDS
;	COMDAT xdata
xdata	SEGMENT
$unwind$gzoffset DD 010401H
	DD	04204H
xdata	ENDS
;	COMDAT xdata
xdata	SEGMENT
$unwind$gz_error DD 060f01H
	DD	09640fH
	DD	08340fH
	DD	0700b520fH
END
