; Listing generated by Microsoft (R) Optimizing Compiler Version 19.00.24210.0 

include listing.inc

INCLUDELIB OLDNAMES

PUBLIC	??_C@_0BH@CFIIDOJD@unexpected?5end?5of?5file?$AA@ ; `string'
PUBLIC	??_C@_0CH@CPOLIEKA@internal?5error?3?5inflate?5stream?5c@ ; `string'
PUBLIC	??_C@_0BG@HCKBMIHF@compressed?5data?5error?$AA@	; `string'
PUBLIC	??_C@_0BP@HLDABFKK@request?5does?5not?5fit?5in?5an?5int?$AA@ ; `string'
PUBLIC	??_C@_0CB@EGGJDMIK@request?5does?5not?5fit?5in?5a?5size_t@ ; `string'
PUBLIC	??_C@_0BP@IIKIGMCC@out?5of?5room?5to?5push?5characters?$AA@ ; `string'
EXTRN	__imp_strerror:PROC
EXTRN	__imp_memchr:PROC
EXTRN	__imp__errno:PROC
EXTRN	__imp__close:PROC
EXTRN	__imp__read:PROC
;	COMDAT ??_C@_0BP@IIKIGMCC@out?5of?5room?5to?5push?5characters?$AA@
CONST	SEGMENT
??_C@_0BP@IIKIGMCC@out?5of?5room?5to?5push?5characters?$AA@ DB 'out of ro'
	DB	'om to push characters', 00H			; `string'
CONST	ENDS
;	COMDAT ??_C@_0CB@EGGJDMIK@request?5does?5not?5fit?5in?5a?5size_t@
CONST	SEGMENT
??_C@_0CB@EGGJDMIK@request?5does?5not?5fit?5in?5a?5size_t@ DB 'request do'
	DB	'es not fit in a size_t', 00H		; `string'
CONST	ENDS
;	COMDAT ??_C@_0BP@HLDABFKK@request?5does?5not?5fit?5in?5an?5int?$AA@
CONST	SEGMENT
??_C@_0BP@HLDABFKK@request?5does?5not?5fit?5in?5an?5int?$AA@ DB 'request '
	DB	'does not fit in an int', 00H		; `string'
CONST	ENDS
;	COMDAT ??_C@_0BG@HCKBMIHF@compressed?5data?5error?$AA@
CONST	SEGMENT
??_C@_0BG@HCKBMIHF@compressed?5data?5error?$AA@ DB 'compressed data error'
	DB	00H						; `string'
CONST	ENDS
;	COMDAT ??_C@_0CH@CPOLIEKA@internal?5error?3?5inflate?5stream?5c@
CONST	SEGMENT
??_C@_0CH@CPOLIEKA@internal?5error?3?5inflate?5stream?5c@ DB 'internal er'
	DB	'ror: inflate stream corrupt', 00H		; `string'
CONST	ENDS
;	COMDAT ??_C@_0BH@CFIIDOJD@unexpected?5end?5of?5file?$AA@
CONST	SEGMENT
??_C@_0BH@CFIIDOJD@unexpected?5end?5of?5file?$AA@ DB 'unexpected end of f'
	DB	'ile', 00H					; `string'
PUBLIC	gzdirect
PUBLIC	gzgets
PUBLIC	gzungetc
PUBLIC	gzgetc_
PUBLIC	gzgetc
PUBLIC	gzfread
PUBLIC	gzread
PUBLIC	gzclose_r
;	COMDAT pdata
pdata	SEGMENT
$pdata$gzdirect DD imagerel $LN6@gzdirect
	DD	imagerel $LN6@gzdirect+56
	DD	imagerel $unwind$gzdirect
pdata	ENDS
;	COMDAT pdata
pdata	SEGMENT
$pdata$gzgets DD imagerel $LN32@gzgets
	DD	imagerel $LN32@gzgets+107
	DD	imagerel $unwind$gzgets
pdata	ENDS
;	COMDAT pdata
pdata	SEGMENT
$pdata$3$gzgets DD imagerel $LN32@gzgets+107
	DD	imagerel $LN32@gzgets+304
	DD	imagerel $chain$3$gzgets
pdata	ENDS
;	COMDAT pdata
pdata	SEGMENT
$pdata$5$gzgets DD imagerel $LN32@gzgets+304
	DD	imagerel $LN32@gzgets+308
	DD	imagerel $chain$5$gzgets
pdata	ENDS
;	COMDAT pdata
pdata	SEGMENT
$pdata$6$gzgets DD imagerel $LN32@gzgets+308
	DD	imagerel $LN32@gzgets+320
	DD	imagerel $chain$6$gzgets
pdata	ENDS
;	COMDAT pdata
pdata	SEGMENT
$pdata$gzungetc DD imagerel $LN19@gzungetc
	DD	imagerel $LN19@gzungetc+267
	DD	imagerel $unwind$gzungetc
pdata	ENDS
;	COMDAT pdata
pdata	SEGMENT
$pdata$gzgetc DD imagerel $LN10@gzgetc
	DD	imagerel $LN10@gzgetc+107
	DD	imagerel $unwind$gzgetc
pdata	ENDS
;	COMDAT pdata
pdata	SEGMENT
$pdata$gzfread DD imagerel $LN10@gzfread
	DD	imagerel $LN10@gzfread+120
	DD	imagerel $unwind$gzfread
pdata	ENDS
;	COMDAT pdata
pdata	SEGMENT
$pdata$gzread DD imagerel $LN9@gzread
	DD	imagerel $LN9@gzread+99
	DD	imagerel $unwind$gzread
pdata	ENDS
;	COMDAT pdata
pdata	SEGMENT
$pdata$gz_read DD imagerel gz_read
	DD	imagerel gz_read+34
	DD	imagerel $unwind$gz_read
pdata	ENDS
;	COMDAT pdata
pdata	SEGMENT
$pdata$0$gz_read DD imagerel gz_read+34
	DD	imagerel gz_read+82
	DD	imagerel $chain$0$gz_read
pdata	ENDS
;	COMDAT pdata
pdata	SEGMENT
$pdata$6$gz_read DD imagerel gz_read+82
	DD	imagerel gz_read+347
	DD	imagerel $chain$6$gz_read
pdata	ENDS
;	COMDAT pdata
pdata	SEGMENT
$pdata$gz_skip DD imagerel gz_skip
	DD	imagerel gz_skip+119
	DD	imagerel $unwind$gz_skip
pdata	ENDS
;	COMDAT pdata
pdata	SEGMENT
$pdata$gz_fetch DD imagerel gz_fetch
	DD	imagerel gz_fetch+167
	DD	imagerel $unwind$gz_fetch
pdata	ENDS
;	COMDAT pdata
pdata	SEGMENT
$pdata$gz_decomp DD imagerel gz_decomp
	DD	imagerel gz_decomp+270
	DD	imagerel $unwind$gz_decomp
pdata	ENDS
;	COMDAT pdata
pdata	SEGMENT
$pdata$gz_look DD imagerel gz_look
	DD	imagerel gz_look+464
	DD	imagerel $unwind$gz_look
pdata	ENDS
;	COMDAT pdata
pdata	SEGMENT
$pdata$gz_avail DD imagerel gz_avail
	DD	imagerel gz_avail+144
	DD	imagerel $unwind$gz_avail
pdata	ENDS
;	COMDAT pdata
pdata	SEGMENT
$pdata$gz_load DD imagerel gz_load
	DD	imagerel gz_load+178
	DD	imagerel $unwind$gz_load
pdata	ENDS
;	COMDAT pdata
pdata	SEGMENT
$pdata$gzclose_r DD imagerel $LN8@gzclose_r
	DD	imagerel $LN8@gzclose_r+161
	DD	imagerel $unwind$gzclose_r
;	COMDAT xdata
xdata	SEGMENT
$unwind$gzclose_r DD 063001H
	DD	077430H
	DD	06342bH
	DD	060023206H
xdata	ENDS
;	COMDAT xdata
xdata	SEGMENT
$unwind$gz_load DD 0a1a01H
	DD	09741aH
	DD	08641aH
	DD	07541aH
	DD	06341aH
	DD	0e016321aH
xdata	ENDS
;	COMDAT xdata
xdata	SEGMENT
$unwind$gz_avail DD 020601H
	DD	030023206H
xdata	ENDS
;	COMDAT xdata
xdata	SEGMENT
$unwind$gz_look DD 060f01H
	DD	07640fH
	DD	06340fH
	DD	0700b320fH
xdata	ENDS
;	COMDAT xdata
xdata	SEGMENT
$unwind$gz_decomp DD 081401H
	DD	086414H
	DD	075414H
	DD	063414H
	DD	070103214H
xdata	ENDS
;	COMDAT xdata
xdata	SEGMENT
$unwind$gz_fetch DD 020601H
	DD	030023206H
xdata	ENDS
;	COMDAT xdata
xdata	SEGMENT
$unwind$gz_skip DD 040a01H
	DD	06340aH
	DD	07006320aH
xdata	ENDS
;	COMDAT xdata
xdata	SEGMENT
$chain$6$gz_read DD 0a1d21H
	DD	0b741dH
	DD	04f415H
	DD	05d40aH
	DD	0a6405H
	DD	0dc400H
	DD	imagerel gz_read
	DD	imagerel gz_read+34
	DD	imagerel $unwind$gz_read
xdata	ENDS
;	COMDAT xdata
xdata	SEGMENT
$chain$0$gz_read DD 020521H
	DD	0dc405H
	DD	imagerel gz_read
	DD	imagerel gz_read+34
	DD	imagerel $unwind$gz_read
xdata	ENDS
;	COMDAT xdata
xdata	SEGMENT
$unwind$gz_read DD 040901H
	DD	0e0055209H
	DD	030025003H
xdata	ENDS
;	COMDAT xdata
xdata	SEGMENT
$unwind$gzread DD 020601H
	DD	030023206H
xdata	ENDS
;	COMDAT xdata
xdata	SEGMENT
$unwind$gzfread DD 020601H
	DD	030023206H
xdata	ENDS
;	COMDAT xdata
xdata	SEGMENT
$unwind$gzgetc DD 010401H
	DD	04204H
xdata	ENDS
;	COMDAT xdata
xdata	SEGMENT
$unwind$gzungetc DD 040a01H
	DD	06340aH
	DD	07006320aH
xdata	ENDS
;	COMDAT xdata
xdata	SEGMENT
$chain$6$gzgets DD 021H
	DD	imagerel $LN32@gzgets
	DD	imagerel $LN32@gzgets+107
	DD	imagerel $unwind$gzgets
xdata	ENDS
;	COMDAT xdata
xdata	SEGMENT
$chain$5$gzgets DD 080021H
	DD	0bc400H
	DD	0a7400H
	DD	095400H
	DD	083400H
	DD	imagerel $LN32@gzgets
	DD	imagerel $LN32@gzgets+107
	DD	imagerel $unwind$gzgets
xdata	ENDS
;	COMDAT xdata
xdata	SEGMENT
$chain$3$gzgets DD 081421H
	DD	0bc414H
	DD	0a740fH
	DD	09540aH
	DD	083405H
	DD	imagerel $LN32@gzgets
	DD	imagerel $LN32@gzgets+107
	DD	imagerel $unwind$gzgets
xdata	ENDS
;	COMDAT xdata
xdata	SEGMENT
$unwind$gzgets DD 040a01H
	DD	0f006320aH
	DD	06002e004H
xdata	ENDS
;	COMDAT xdata
xdata	SEGMENT
$unwind$gzdirect DD 020601H
	DD	030023206H
END
