; Listing generated by Microsoft (R) Optimizing Compiler Version 19.00.24210.0 

include listing.inc

INCLUDELIB OLDNAMES

PUBLIC	??_C@_0CH@DEEGAHIB@internal?5error?3?5deflate?5stream?5c@ ; `string'
PUBLIC	??_C@_0CF@MLPJFDMM@requested?5length?5does?5not?5fit?5in@ ; `string'
EXTRN	__imp__write:PROC
;	COMDAT ??_C@_0CF@MLPJFDMM@requested?5length?5does?5not?5fit?5in@
CONST	SEGMENT
??_C@_0CF@MLPJFDMM@requested?5length?5does?5not?5fit?5in@ DB 'requested l'
	DB	'ength does not fit in int', 00H		; `string'
CONST	ENDS
;	COMDAT ??_C@_0CH@DEEGAHIB@internal?5error?3?5deflate?5stream?5c@
CONST	SEGMENT
??_C@_0CH@DEEGAHIB@internal?5error?3?5deflate?5stream?5c@ DB 'internal er'
	DB	'ror: deflate stream corrupt', 00H		; `string'
PUBLIC	gzsetparams
PUBLIC	gzflush
PUBLIC	gzprintf
PUBLIC	gzvprintf
PUBLIC	gzputs
PUBLIC	gzputc
PUBLIC	gzfwrite
PUBLIC	gzwrite
PUBLIC	gzclose_w
;	COMDAT pdata
pdata	SEGMENT
$pdata$gzsetparams DD imagerel $LN15@gzsetparam
	DD	imagerel $LN15@gzsetparam+192
	DD	imagerel $unwind$gzsetparams
pdata	ENDS
;	COMDAT pdata
pdata	SEGMENT
$pdata$gzflush DD imagerel $LN12@gzflush
	DD	imagerel $LN12@gzflush+107
	DD	imagerel $unwind$gzflush
pdata	ENDS
;	COMDAT pdata
pdata	SEGMENT
$pdata$gzprintf DD imagerel $LN4@gzprintf
	DD	imagerel $LN4@gzprintf+34
	DD	imagerel $unwind$gzprintf
pdata	ENDS
;	COMDAT pdata
pdata	SEGMENT
$pdata$gzvprintf DD imagerel $LN17@gzvprintf
	DD	imagerel $LN17@gzvprintf+318
	DD	imagerel $unwind$gzvprintf
pdata	ENDS
;	COMDAT pdata
pdata	SEGMENT
$pdata$gzputs DD imagerel $LN10@gzputs
	DD	imagerel $LN10@gzputs+30
	DD	imagerel $unwind$gzputs
pdata	ENDS
;	COMDAT pdata
pdata	SEGMENT
$pdata$0$gzputs DD imagerel $LN10@gzputs+30
	DD	imagerel $LN10@gzputs+79
	DD	imagerel $chain$0$gzputs
pdata	ENDS
;	COMDAT pdata
pdata	SEGMENT
$pdata$1$gzputs DD imagerel $LN10@gzputs+79
	DD	imagerel $LN10@gzputs+89
	DD	imagerel $chain$1$gzputs
pdata	ENDS
;	COMDAT pdata
pdata	SEGMENT
$pdata$gzputc DD imagerel $LN14@gzputc
	DD	imagerel $LN14@gzputc+190
	DD	imagerel $unwind$gzputc
pdata	ENDS
;	COMDAT pdata
pdata	SEGMENT
$pdata$gzfwrite DD imagerel $LN10@gzfwrite
	DD	imagerel $LN10@gzfwrite+114
	DD	imagerel $unwind$gzfwrite
pdata	ENDS
;	COMDAT pdata
pdata	SEGMENT
$pdata$gzwrite DD imagerel $LN8@gzwrite
	DD	imagerel $LN8@gzwrite+65
	DD	imagerel $unwind$gzwrite
pdata	ENDS
;	COMDAT pdata
pdata	SEGMENT
$pdata$gz_write DD imagerel gz_write
	DD	imagerel gz_write+97
	DD	imagerel $unwind$gz_write
pdata	ENDS
;	COMDAT pdata
pdata	SEGMENT
$pdata$1$gz_write DD imagerel gz_write+97
	DD	imagerel gz_write+228
	DD	imagerel $chain$1$gz_write
pdata	ENDS
;	COMDAT pdata
pdata	SEGMENT
$pdata$3$gz_write DD imagerel gz_write+228
	DD	imagerel gz_write+317
	DD	imagerel $chain$3$gz_write
pdata	ENDS
;	COMDAT pdata
pdata	SEGMENT
$pdata$gz_zero DD imagerel gz_zero
	DD	imagerel gz_zero+50
	DD	imagerel $unwind$gz_zero
pdata	ENDS
;	COMDAT pdata
pdata	SEGMENT
$pdata$1$gz_zero DD imagerel gz_zero+50
	DD	imagerel gz_zero+172
	DD	imagerel $chain$1$gz_zero
pdata	ENDS
;	COMDAT pdata
pdata	SEGMENT
$pdata$3$gz_zero DD imagerel gz_zero+172
	DD	imagerel gz_zero+177
	DD	imagerel $chain$3$gz_zero
pdata	ENDS
;	COMDAT pdata
pdata	SEGMENT
$pdata$gz_comp DD imagerel gz_comp
	DD	imagerel gz_comp+179
	DD	imagerel $unwind$gz_comp
pdata	ENDS
;	COMDAT pdata
pdata	SEGMENT
$pdata$1$gz_comp DD imagerel gz_comp+179
	DD	imagerel gz_comp+447
	DD	imagerel $chain$1$gz_comp
pdata	ENDS
;	COMDAT pdata
pdata	SEGMENT
$pdata$2$gz_comp DD imagerel gz_comp+447
	DD	imagerel gz_comp+469
	DD	imagerel $chain$2$gz_comp
pdata	ENDS
;	COMDAT pdata
pdata	SEGMENT
$pdata$gz_init DD imagerel gz_init
	DD	imagerel gz_init+70
	DD	imagerel $unwind$gz_init
pdata	ENDS
;	COMDAT pdata
pdata	SEGMENT
$pdata$0$gz_init DD imagerel gz_init+70
	DD	imagerel gz_init+240
	DD	imagerel $chain$0$gz_init
pdata	ENDS
;	COMDAT pdata
pdata	SEGMENT
$pdata$2$gz_init DD imagerel gz_init+240
	DD	imagerel gz_init+295
	DD	imagerel $chain$2$gz_init
pdata	ENDS
;	COMDAT pdata
pdata	SEGMENT
$pdata$gzclose_w DD imagerel $LN13@gzclose_w
	DD	imagerel $LN13@gzclose_w+194
	DD	imagerel $unwind$gzclose_w
;	COMDAT xdata
xdata	SEGMENT
$unwind$gzclose_w DD 040a01H
	DD	06340aH
	DD	07006320aH
xdata	ENDS
;	COMDAT xdata
xdata	SEGMENT
$chain$2$gz_init DD 020021H
	DD	0a6400H
	DD	imagerel gz_init
	DD	imagerel gz_init+70
	DD	imagerel $unwind$gz_init
xdata	ENDS
;	COMDAT xdata
xdata	SEGMENT
$chain$0$gz_init DD 020521H
	DD	0a6405H
	DD	imagerel gz_init
	DD	imagerel gz_init+70
	DD	imagerel $unwind$gz_init
xdata	ENDS
;	COMDAT xdata
xdata	SEGMENT
$unwind$gz_init DD 040a01H
	DD	0b340aH
	DD	07006720aH
xdata	ENDS
;	COMDAT xdata
xdata	SEGMENT
$chain$2$gz_comp DD 021H
	DD	imagerel gz_comp
	DD	imagerel gz_comp+179
	DD	imagerel $unwind$gz_comp
xdata	ENDS
;	COMDAT xdata
xdata	SEGMENT
$chain$1$gz_comp DD 020521H
	DD	065405H
	DD	imagerel gz_comp
	DD	imagerel gz_comp+179
	DD	imagerel $unwind$gz_comp
xdata	ENDS
;	COMDAT xdata
xdata	SEGMENT
$unwind$gz_comp DD 084201H
	DD	076442H
	DD	097410H
	DD	083410H
	DD	0e00c3210H
xdata	ENDS
;	COMDAT xdata
xdata	SEGMENT
$chain$3$gz_zero DD 040021H
	DD	076400H
	DD	065400H
	DD	imagerel gz_zero
	DD	imagerel gz_zero+50
	DD	imagerel $unwind$gz_zero
xdata	ENDS
;	COMDAT xdata
xdata	SEGMENT
$chain$1$gz_zero DD 040f21H
	DD	07640fH
	DD	065405H
	DD	imagerel gz_zero
	DD	imagerel gz_zero+50
	DD	imagerel $unwind$gz_zero
xdata	ENDS
;	COMDAT xdata
xdata	SEGMENT
$unwind$gz_zero DD 040a01H
	DD	08340aH
	DD	07006320aH
xdata	ENDS
;	COMDAT xdata
xdata	SEGMENT
$chain$3$gz_write DD 040021H
	DD	097400H
	DD	086400H
	DD	imagerel gz_write
	DD	imagerel gz_write+97
	DD	imagerel $unwind$gz_write
xdata	ENDS
;	COMDAT xdata
xdata	SEGMENT
$chain$1$gz_write DD 040a21H
	DD	09740aH
	DD	086405H
	DD	imagerel gz_write
	DD	imagerel gz_write+97
	DD	imagerel $unwind$gz_write
xdata	ENDS
;	COMDAT xdata
xdata	SEGMENT
$unwind$gz_write DD 060e01H
	DD	0a340eH
	DD	0f00a320eH
	DD	05006e008H
xdata	ENDS
;	COMDAT xdata
xdata	SEGMENT
$unwind$gzwrite DD 010401H
	DD	04204H
xdata	ENDS
;	COMDAT xdata
xdata	SEGMENT
$unwind$gzfwrite DD 020601H
	DD	030023206H
xdata	ENDS
;	COMDAT xdata
xdata	SEGMENT
$unwind$gzputc DD 040a01H
	DD	07340aH
	DD	07006320aH
xdata	ENDS
;	COMDAT xdata
xdata	SEGMENT
$chain$1$gzputs DD 021H
	DD	imagerel $LN10@gzputs
	DD	imagerel $LN10@gzputs+30
	DD	imagerel $unwind$gzputs
xdata	ENDS
;	COMDAT xdata
xdata	SEGMENT
$chain$0$gzputs DD 020521H
	DD	063405H
	DD	imagerel $LN10@gzputs
	DD	imagerel $LN10@gzputs+30
	DD	imagerel $unwind$gzputs
xdata	ENDS
;	COMDAT xdata
xdata	SEGMENT
$unwind$gzputs DD 020601H
	DD	070023206H
xdata	ENDS
;	COMDAT xdata
xdata	SEGMENT
$unwind$gzvprintf DD 088d01H
	DD	06648dH
	DD	08540fH
	DD	07340fH
	DD	0700b320fH
xdata	ENDS
;	COMDAT xdata
xdata	SEGMENT
$unwind$gzprintf DD 011301H
	DD	04213H
xdata	ENDS
;	COMDAT xdata
xdata	SEGMENT
$unwind$gzflush DD 040a01H
	DD	06340aH
	DD	07006320aH
xdata	ENDS
;	COMDAT xdata
xdata	SEGMENT
$unwind$gzsetparams DD 083b01H
	DD	06543bH
	DD	08640fH
	DD	07340fH
	DD	0700b320fH
END
