; Listing generated by Microsoft (R) Optimizing Compiler Version 19.00.24210.0 

include listing.inc

INCLUDELIB OLDNAMES

EXTRN	__imp_CloseHandle:PROC
EXTRN	__imp_CreateFileA:PROC
EXTRN	__imp_GetLastError:PROC
EXTRN	__imp_CreateFileW:PROC
EXTRN	__imp_SetFilePointer:PROC
EXTRN	__imp_WriteFile:PROC
EXTRN	__imp_ReadFile:PROC
PUBLIC	fill_win32_filefunc64W
PUBLIC	fill_win32_filefunc64A
PUBLIC	fill_win32_filefunc64
PUBLIC	fill_win32_filefunc
PUBLIC	win32_error_file_func
PUBLIC	win32_close_file_func
PUBLIC	win32_seek64_file_func
PUBLIC	win32_seek_file_func
PUBLIC	win32_tell64_file_func
PUBLIC	win32_tell_file_func
PUBLIC	win32_write_file_func
PUBLIC	win32_read_file_func
PUBLIC	win32_open_file_func
PUBLIC	win32_open64_file_funcW
PUBLIC	win32_open64_file_funcA
PUBLIC	win32_open64_file_func
;	COMDAT pdata
pdata	SEGMENT
$pdata$win32_close_file_func DD imagerel $LN7@win32_clos
	DD	imagerel $LN7@win32_clos+59
	DD	imagerel $unwind$win32_close_file_func
pdata	ENDS
;	COMDAT pdata
pdata	SEGMENT
$pdata$win32_seek64_file_func DD imagerel $LN14@win32_seek
	DD	imagerel $LN14@win32_seek+122
	DD	imagerel $unwind$win32_seek64_file_func
pdata	ENDS
;	COMDAT pdata
pdata	SEGMENT
$pdata$win32_seek_file_func DD imagerel $LN14@win32_seek
	DD	imagerel $LN14@win32_seek+119
	DD	imagerel $unwind$win32_seek_file_func
pdata	ENDS
;	COMDAT pdata
pdata	SEGMENT
$pdata$win32_tell64_file_func DD imagerel $LN10@win32_tell
	DD	imagerel $LN10@win32_tell+83
	DD	imagerel $unwind$win32_tell64_file_func
pdata	ENDS
;	COMDAT pdata
pdata	SEGMENT
$pdata$win32_tell_file_func DD imagerel $LN10@win32_tell
	DD	imagerel $LN10@win32_tell+81
	DD	imagerel $unwind$win32_tell_file_func
pdata	ENDS
;	COMDAT pdata
pdata	SEGMENT
$pdata$MySetFilePointerEx DD imagerel MySetFilePointerEx
	DD	imagerel MySetFilePointerEx+101
	DD	imagerel $unwind$MySetFilePointerEx
pdata	ENDS
;	COMDAT pdata
pdata	SEGMENT
$pdata$win32_write_file_func DD imagerel $LN11@win32_writ
	DD	imagerel $LN11@win32_writ+107
	DD	imagerel $unwind$win32_write_file_func
pdata	ENDS
;	COMDAT pdata
pdata	SEGMENT
$pdata$win32_read_file_func DD imagerel $LN11@win32_read
	DD	imagerel $LN11@win32_read+107
	DD	imagerel $unwind$win32_read_file_func
pdata	ENDS
;	COMDAT pdata
pdata	SEGMENT
$pdata$win32_open_file_func DD imagerel $LN5@win32_open
	DD	imagerel $LN5@win32_open+114
	DD	imagerel $unwind$win32_open_file_func
pdata	ENDS
;	COMDAT pdata
pdata	SEGMENT
$pdata$win32_open64_file_funcW DD imagerel $LN5@win32_open
	DD	imagerel $LN5@win32_open+114
	DD	imagerel $unwind$win32_open64_file_funcW
pdata	ENDS
;	COMDAT pdata
pdata	SEGMENT
$pdata$win32_open64_file_funcA DD imagerel $LN5@win32_open
	DD	imagerel $LN5@win32_open+114
	DD	imagerel $unwind$win32_open64_file_funcA
pdata	ENDS
;	COMDAT pdata
pdata	SEGMENT
$pdata$win32_open64_file_func DD imagerel $LN5@win32_open
	DD	imagerel $LN5@win32_open+114
	DD	imagerel $unwind$win32_open64_file_func
pdata	ENDS
;	COMDAT pdata
pdata	SEGMENT
$pdata$win32_build_iowin DD imagerel win32_build_iowin
	DD	imagerel win32_build_iowin+29
	DD	imagerel $unwind$win32_build_iowin
pdata	ENDS
;	COMDAT pdata
pdata	SEGMENT
$pdata$0$win32_build_iowin DD imagerel win32_build_iowin+29
	DD	imagerel win32_build_iowin+79
	DD	imagerel $chain$0$win32_build_iowin
pdata	ENDS
;	COMDAT pdata
pdata	SEGMENT
$pdata$2$win32_build_iowin DD imagerel win32_build_iowin+79
	DD	imagerel win32_build_iowin+98
	DD	imagerel $chain$2$win32_build_iowin
pdata	ENDS
;	COMDAT pdata
pdata	SEGMENT
$pdata$3$win32_build_iowin DD imagerel win32_build_iowin+98
	DD	imagerel win32_build_iowin+106
	DD	imagerel $chain$3$win32_build_iowin
;	COMDAT xdata
xdata	SEGMENT
$chain$3$win32_build_iowin DD 021H
	DD	imagerel win32_build_iowin
	DD	imagerel win32_build_iowin+29
	DD	imagerel $unwind$win32_build_iowin
xdata	ENDS
;	COMDAT xdata
xdata	SEGMENT
$chain$2$win32_build_iowin DD 020021H
	DD	083400H
	DD	imagerel win32_build_iowin
	DD	imagerel win32_build_iowin+29
	DD	imagerel $unwind$win32_build_iowin
xdata	ENDS
;	COMDAT xdata
xdata	SEGMENT
$chain$0$win32_build_iowin DD 020521H
	DD	083405H
	DD	imagerel win32_build_iowin
	DD	imagerel win32_build_iowin+29
	DD	imagerel $unwind$win32_build_iowin
xdata	ENDS
;	COMDAT xdata
xdata	SEGMENT
$unwind$win32_build_iowin DD 020601H
	DD	070025206H
xdata	ENDS
;	COMDAT xdata
xdata	SEGMENT
$unwind$win32_open64_file_func DD 020601H
	DD	030029206H
xdata	ENDS
;	COMDAT xdata
xdata	SEGMENT
$unwind$win32_open64_file_funcA DD 020601H
	DD	030029206H
xdata	ENDS
;	COMDAT xdata
xdata	SEGMENT
$unwind$win32_open64_file_funcW DD 020601H
	DD	030029206H
xdata	ENDS
;	COMDAT xdata
xdata	SEGMENT
$unwind$win32_open_file_func DD 020601H
	DD	030029206H
xdata	ENDS
;	COMDAT xdata
xdata	SEGMENT
$unwind$win32_read_file_func DD 040a01H
	DD	08340aH
	DD	07006520aH
xdata	ENDS
;	COMDAT xdata
xdata	SEGMENT
$unwind$win32_write_file_func DD 040a01H
	DD	08340aH
	DD	07006520aH
xdata	ENDS
;	COMDAT xdata
xdata	SEGMENT
$unwind$MySetFilePointerEx DD 060f01H
	DD	07640fH
	DD	06340fH
	DD	0700b320fH
xdata	ENDS
;	COMDAT xdata
xdata	SEGMENT
$unwind$win32_tell_file_func DD 020601H
	DD	030023206H
xdata	ENDS
;	COMDAT xdata
xdata	SEGMENT
$unwind$win32_tell64_file_func DD 020601H
	DD	030023206H
xdata	ENDS
;	COMDAT xdata
xdata	SEGMENT
$unwind$win32_seek_file_func DD 040a01H
	DD	06340aH
	DD	07006320aH
xdata	ENDS
;	COMDAT xdata
xdata	SEGMENT
$unwind$win32_seek64_file_func DD 040a01H
	DD	06340aH
	DD	07006320aH
xdata	ENDS
;	COMDAT xdata
xdata	SEGMENT
$unwind$win32_close_file_func DD 040a01H
	DD	06340aH
	DD	07006320aH
END
