; Listing generated by Microsoft (R) Optimizing Compiler Version 19.00.24210.0 

include listing.inc

INCLUDELIB OLDNAMES

PUBLIC	uncompress
PUBLIC	uncompress2
;	COMDAT pdata
pdata	SEGMENT
$pdata$uncompress DD imagerel $LN4@uncompress
	DD	imagerel $LN4@uncompress+24
	DD	imagerel $unwind$uncompress
pdata	ENDS
;	COMDAT pdata
pdata	SEGMENT
$pdata$uncompress2 DD imagerel $LN28@uncompress
	DD	imagerel $LN28@uncompress+111
	DD	imagerel $unwind$uncompress2
pdata	ENDS
;	COMDAT pdata
pdata	SEGMENT
$pdata$0$uncompress2 DD imagerel $LN28@uncompress+111
	DD	imagerel $LN28@uncompress+121
	DD	imagerel $chain$0$uncompress2
pdata	ENDS
;	COMDAT pdata
pdata	SEGMENT
$pdata$1$uncompress2 DD imagerel $LN28@uncompress+121
	DD	imagerel $LN28@uncompress+236
	DD	imagerel $chain$1$uncompress2
pdata	ENDS
;	COMDAT pdata
pdata	SEGMENT
$pdata$2$uncompress2 DD imagerel $LN28@uncompress+236
	DD	imagerel $LN28@uncompress+315
	DD	imagerel $chain$2$uncompress2
pdata	ENDS
;	COMDAT pdata
pdata	SEGMENT
$pdata$3$uncompress2 DD imagerel $LN28@uncompress+315
	DD	imagerel $LN28@uncompress+339
	DD	imagerel $chain$3$uncompress2
;	COMDAT xdata
xdata	SEGMENT
$chain$3$uncompress2 DD 021H
	DD	imagerel $LN28@uncompress
	DD	imagerel $LN28@uncompress+111
	DD	imagerel $unwind$uncompress2
xdata	ENDS
;	COMDAT xdata
xdata	SEGMENT
$chain$2$uncompress2 DD 021H
	DD	imagerel $LN28@uncompress+111
	DD	imagerel $LN28@uncompress+121
	DD	imagerel $chain$0$uncompress2
xdata	ENDS
;	COMDAT xdata
xdata	SEGMENT
$chain$1$uncompress2 DD 020821H
	DD	019d408H
	DD	imagerel $LN28@uncompress+111
	DD	imagerel $LN28@uncompress+121
	DD	imagerel $chain$0$uncompress2
xdata	ENDS
;	COMDAT xdata
xdata	SEGMENT
$chain$0$uncompress2 DD 020821H
	DD	0187408H
	DD	imagerel $LN28@uncompress
	DD	imagerel $LN28@uncompress+111
	DD	imagerel $unwind$uncompress2
xdata	ENDS
;	COMDAT xdata
xdata	SEGMENT
$unwind$uncompress2 DD 091401H
	DD	01a3414H
	DD	0120114H
	DD	0e00bf00dH
	DD	06007c009H
	DD	05006H
xdata	ENDS
;	COMDAT xdata
xdata	SEGMENT
$unwind$uncompress DD 010901H
	DD	04209H
END
