; Listing generated by Microsoft (R) Optimizing Compiler Version 19.00.24210.0 

include listing.inc

INCLUDELIB OLDNAMES

PUBLIC	unz_copyright
	ORG $+13
unz_copyright DB ' unzip 1.01 Copyright 1998-2004 Gilles Vollant - http:/'
	DB	'/www.winimage.com/zLibDll', 00H
PUBLIC	unzGetGlobalComment
PUBLIC	unzCloseCurrentFile
PUBLIC	unzGetLocalExtrafield
PUBLIC	unzeof
PUBLIC	unztell64
PUBLIC	unztell
PUBLIC	unzReadCurrentFile
PUBLIC	unzGetCurrentFileZStreamPos64
PUBLIC	unzOpenCurrentFile2
PUBLIC	unzOpenCurrentFilePassword
PUBLIC	unzOpenCurrentFile
PUBLIC	unzOpenCurrentFile3
PUBLIC	unzGoToFilePos
PUBLIC	unzGoToFilePos64
PUBLIC	unzGetFilePos
PUBLIC	unzGetFilePos64
PUBLIC	unzLocateFile
PUBLIC	unzGoToNextFile
PUBLIC	unzGoToFirstFile
PUBLIC	unzGetCurrentFileInfo
PUBLIC	unzGetCurrentFileInfo64
PUBLIC	unzGetGlobalInfo
PUBLIC	unzGetGlobalInfo64
PUBLIC	unzClose
PUBLIC	unzOpen64
PUBLIC	unzOpen
PUBLIC	unzOpen2_64
PUBLIC	unzOpen2
PUBLIC	unzStringFileNameCompare
;	COMDAT pdata
pdata	SEGMENT
$pdata$unzGetGlobalComment DD imagerel $LN12@unzGetGlob
	DD	imagerel $LN12@unzGetGlob+160
	DD	imagerel $unwind$unzGetGlobalComment
pdata	ENDS
;	COMDAT pdata
pdata	SEGMENT
$pdata$unzCloseCurrentFile DD imagerel $LN12@unzCloseCu
	DD	imagerel $LN12@unzCloseCu+34
	DD	imagerel $unwind$unzCloseCurrentFile
pdata	ENDS
;	COMDAT pdata
pdata	SEGMENT
$pdata$0$unzCloseCurrentFile DD imagerel $LN12@unzCloseCu+34
	DD	imagerel $LN12@unzCloseCu+70
	DD	imagerel $chain$0$unzCloseCurrentFile
pdata	ENDS
;	COMDAT pdata
pdata	SEGMENT
$pdata$2$unzCloseCurrentFile DD imagerel $LN12@unzCloseCu+70
	DD	imagerel $LN12@unzCloseCu+188
	DD	imagerel $chain$2$unzCloseCurrentFile
pdata	ENDS
;	COMDAT pdata
pdata	SEGMENT
$pdata$unzGetLocalExtrafield DD imagerel $LN13@unzGetLoca
	DD	imagerel $LN13@unzGetLoca+35
	DD	imagerel $unwind$unzGetLocalExtrafield
pdata	ENDS
;	COMDAT pdata
pdata	SEGMENT
$pdata$0$unzGetLocalExtrafield DD imagerel $LN13@unzGetLoca+35
	DD	imagerel $LN13@unzGetLoca+71
	DD	imagerel $chain$0$unzGetLocalExtrafield
pdata	ENDS
;	COMDAT pdata
pdata	SEGMENT
$pdata$2$unzGetLocalExtrafield DD imagerel $LN13@unzGetLoca+71
	DD	imagerel $LN13@unzGetLoca+107
	DD	imagerel $chain$2$unzGetLocalExtrafield
pdata	ENDS
;	COMDAT pdata
pdata	SEGMENT
$pdata$4$unzGetLocalExtrafield DD imagerel $LN13@unzGetLoca+107
	DD	imagerel $LN13@unzGetLoca+135
	DD	imagerel $chain$4$unzGetLocalExtrafield
pdata	ENDS
;	COMDAT pdata
pdata	SEGMENT
$pdata$6$unzGetLocalExtrafield DD imagerel $LN13@unzGetLoca+135
	DD	imagerel $LN13@unzGetLoca+187
	DD	imagerel $chain$6$unzGetLocalExtrafield
pdata	ENDS
;	COMDAT pdata
pdata	SEGMENT
$pdata$8$unzGetLocalExtrafield DD imagerel $LN13@unzGetLoca+187
	DD	imagerel $LN13@unzGetLoca+239
	DD	imagerel $chain$8$unzGetLocalExtrafield
pdata	ENDS
;	COMDAT pdata
pdata	SEGMENT
$pdata$unzReadCurrentFile DD imagerel $LN56@unzReadCur
	DD	imagerel $LN56@unzReadCur+24
	DD	imagerel $unwind$unzReadCurrentFile
pdata	ENDS
;	COMDAT pdata
pdata	SEGMENT
$pdata$0$unzReadCurrentFile DD imagerel $LN56@unzReadCur+24
	DD	imagerel $LN56@unzReadCur+56
	DD	imagerel $chain$0$unzReadCurrentFile
pdata	ENDS
;	COMDAT pdata
pdata	SEGMENT
$pdata$2$unzReadCurrentFile DD imagerel $LN56@unzReadCur+56
	DD	imagerel $LN56@unzReadCur+78
	DD	imagerel $chain$2$unzReadCurrentFile
pdata	ENDS
;	COMDAT pdata
pdata	SEGMENT
$pdata$4$unzReadCurrentFile DD imagerel $LN56@unzReadCur+78
	DD	imagerel $LN56@unzReadCur+97
	DD	imagerel $chain$4$unzReadCurrentFile
pdata	ENDS
;	COMDAT pdata
pdata	SEGMENT
$pdata$12$unzReadCurrentFile DD imagerel $LN56@unzReadCur+97
	DD	imagerel $LN56@unzReadCur+693
	DD	imagerel $chain$12$unzReadCurrentFile
pdata	ENDS
;	COMDAT pdata
pdata	SEGMENT
$pdata$14$unzReadCurrentFile DD imagerel $LN56@unzReadCur+693
	DD	imagerel $LN56@unzReadCur+702
	DD	imagerel $chain$14$unzReadCurrentFile
pdata	ENDS
;	COMDAT pdata
pdata	SEGMENT
$pdata$unzOpenCurrentFile2 DD imagerel $LN4@unzOpenCur
	DD	imagerel $LN4@unzOpenCur+23
	DD	imagerel $unwind$unzOpenCurrentFile2
pdata	ENDS
;	COMDAT pdata
pdata	SEGMENT
$pdata$unzOpenCurrentFilePassword DD imagerel $LN4@unzOpenCur
	DD	imagerel $LN4@unzOpenCur+27
	DD	imagerel $unwind$unzOpenCurrentFilePassword
pdata	ENDS
;	COMDAT pdata
pdata	SEGMENT
$pdata$unzOpenCurrentFile DD imagerel $LN4@unzOpenCur
	DD	imagerel $LN4@unzOpenCur+31
	DD	imagerel $unwind$unzOpenCurrentFile
pdata	ENDS
;	COMDAT pdata
pdata	SEGMENT
$pdata$unzOpenCurrentFile3 DD imagerel $LN29@unzOpenCur
	DD	imagerel $LN29@unzOpenCur+133
	DD	imagerel $unwind$unzOpenCurrentFile3
pdata	ENDS
;	COMDAT pdata
pdata	SEGMENT
$pdata$0$unzOpenCurrentFile3 DD imagerel $LN29@unzOpenCur+133
	DD	imagerel $LN29@unzOpenCur+165
	DD	imagerel $chain$0$unzOpenCurrentFile3
pdata	ENDS
;	COMDAT pdata
pdata	SEGMENT
$pdata$1$unzOpenCurrentFile3 DD imagerel $LN29@unzOpenCur+165
	DD	imagerel $LN29@unzOpenCur+537
	DD	imagerel $chain$1$unzOpenCurrentFile3
pdata	ENDS
;	COMDAT pdata
pdata	SEGMENT
$pdata$2$unzOpenCurrentFile3 DD imagerel $LN29@unzOpenCur+537
	DD	imagerel $LN29@unzOpenCur+556
	DD	imagerel $chain$2$unzOpenCurrentFile3
pdata	ENDS
;	COMDAT pdata
pdata	SEGMENT
$pdata$4$unzOpenCurrentFile3 DD imagerel $LN29@unzOpenCur+556
	DD	imagerel $LN29@unzOpenCur+638
	DD	imagerel $chain$4$unzOpenCurrentFile3
pdata	ENDS
;	COMDAT pdata
pdata	SEGMENT
$pdata$unz64local_CheckCurrentFileCoherencyHeader DD imagerel unz64local_CheckCurrentFileCoherencyHeader
	DD	imagerel unz64local_CheckCurrentFileCoherencyHeader+540
	DD	imagerel $unwind$unz64local_CheckCurrentFileCoherencyHeader
pdata	ENDS
;	COMDAT pdata
pdata	SEGMENT
$pdata$unzGoToFilePos DD imagerel $LN5@unzGoToFil
	DD	imagerel $LN5@unzGoToFil+49
	DD	imagerel $unwind$unzGoToFilePos
pdata	ENDS
;	COMDAT pdata
pdata	SEGMENT
$pdata$unzGoToFilePos64 DD imagerel $LN6@unzGoToFil
	DD	imagerel $LN6@unzGoToFil+50
	DD	imagerel $unwind$unzGoToFilePos64
pdata	ENDS
;	COMDAT pdata
pdata	SEGMENT
$pdata$0$unzGoToFilePos64 DD imagerel $LN6@unzGoToFil+50
	DD	imagerel $LN6@unzGoToFil+114
	DD	imagerel $chain$0$unzGoToFilePos64
pdata	ENDS
;	COMDAT pdata
pdata	SEGMENT
$pdata$1$unzGoToFilePos64 DD imagerel $LN6@unzGoToFil+114
	DD	imagerel $LN6@unzGoToFil+125
	DD	imagerel $chain$1$unzGoToFilePos64
pdata	ENDS
;	COMDAT pdata
pdata	SEGMENT
$pdata$unzGetFilePos DD imagerel $LN6@unzGetFile
	DD	imagerel $LN6@unzGetFile+42
	DD	imagerel $unwind$unzGetFilePos
pdata	ENDS
;	COMDAT pdata
pdata	SEGMENT
$pdata$unzLocateFile DD imagerel $LN24@unzLocateF
	DD	imagerel $LN24@unzLocateF+98
	DD	imagerel $unwind$unzLocateFile
pdata	ENDS
;	COMDAT pdata
pdata	SEGMENT
$pdata$3$unzLocateFile DD imagerel $LN24@unzLocateF+98
	DD	imagerel $LN24@unzLocateF+471
	DD	imagerel $chain$3$unzLocateFile
pdata	ENDS
;	COMDAT pdata
pdata	SEGMENT
$pdata$5$unzLocateFile DD imagerel $LN24@unzLocateF+471
	DD	imagerel $LN24@unzLocateF+475
	DD	imagerel $chain$5$unzLocateFile
pdata	ENDS
;	COMDAT pdata
pdata	SEGMENT
$pdata$unzGoToNextFile DD imagerel $LN9@unzGoToNex
	DD	imagerel $LN9@unzGoToNex+186
	DD	imagerel $unwind$unzGoToNextFile
pdata	ENDS
;	COMDAT pdata
pdata	SEGMENT
$pdata$unzGoToFirstFile DD imagerel $LN5@unzGoToFir
	DD	imagerel $LN5@unzGoToFir+118
	DD	imagerel $unwind$unzGoToFirstFile
pdata	ENDS
;	COMDAT pdata
pdata	SEGMENT
$pdata$unzGetCurrentFileInfo DD imagerel $LN7@unzGetCurr
	DD	imagerel $LN7@unzGetCurr+246
	DD	imagerel $unwind$unzGetCurrentFileInfo
pdata	ENDS
;	COMDAT pdata
pdata	SEGMENT
$pdata$unzGetCurrentFileInfo64 DD imagerel $LN4@unzGetCurr
	DD	imagerel $LN4@unzGetCurr+73
	DD	imagerel $unwind$unzGetCurrentFileInfo64
pdata	ENDS
;	COMDAT pdata
pdata	SEGMENT
$pdata$unz64local_GetCurrentFileInfoInternal DD imagerel unz64local_GetCurrentFileInfoInternal
	DD	imagerel unz64local_GetCurrentFileInfoInternal+1345
	DD	imagerel $unwind$unz64local_GetCurrentFileInfoInternal
pdata	ENDS
;	COMDAT pdata
pdata	SEGMENT
$pdata$unzClose DD imagerel $LN7@unzClose
	DD	imagerel $LN7@unzClose+66
	DD	imagerel $unwind$unzClose
pdata	ENDS
;	COMDAT pdata
pdata	SEGMENT
$pdata$unzOpen2_64 DD imagerel $LN7@unzOpen2_6
	DD	imagerel $LN7@unzOpen2_6+96
	DD	imagerel $unwind$unzOpen2_64
pdata	ENDS
;	COMDAT pdata
pdata	SEGMENT
$pdata$unzOpen2 DD imagerel $LN7@unzOpen2
	DD	imagerel $LN7@unzOpen2+65
	DD	imagerel $unwind$unzOpen2
pdata	ENDS
;	COMDAT pdata
pdata	SEGMENT
$pdata$unzOpenInternal DD imagerel unzOpenInternal
	DD	imagerel unzOpenInternal+174
	DD	imagerel $unwind$unzOpenInternal
pdata	ENDS
;	COMDAT pdata
pdata	SEGMENT
$pdata$3$unzOpenInternal DD imagerel unzOpenInternal+174
	DD	imagerel unzOpenInternal+874
	DD	imagerel $chain$3$unzOpenInternal
pdata	ENDS
;	COMDAT pdata
pdata	SEGMENT
$pdata$4$unzOpenInternal DD imagerel unzOpenInternal+874
	DD	imagerel unzOpenInternal+1105
	DD	imagerel $chain$4$unzOpenInternal
pdata	ENDS
;	COMDAT pdata
pdata	SEGMENT
$pdata$unz64local_SearchCentralDir64 DD imagerel unz64local_SearchCentralDir64
	DD	imagerel unz64local_SearchCentralDir64+122
	DD	imagerel $unwind$unz64local_SearchCentralDir64
pdata	ENDS
;	COMDAT pdata
pdata	SEGMENT
$pdata$2$unz64local_SearchCentralDir64 DD imagerel unz64local_SearchCentralDir64+122
	DD	imagerel unz64local_SearchCentralDir64+328
	DD	imagerel $chain$2$unz64local_SearchCentralDir64
pdata	ENDS
;	COMDAT pdata
pdata	SEGMENT
$pdata$3$unz64local_SearchCentralDir64 DD imagerel unz64local_SearchCentralDir64+328
	DD	imagerel unz64local_SearchCentralDir64+535
	DD	imagerel $chain$3$unz64local_SearchCentralDir64
pdata	ENDS
;	COMDAT pdata
pdata	SEGMENT
$pdata$unz64local_SearchCentralDir DD imagerel unz64local_SearchCentralDir
	DD	imagerel unz64local_SearchCentralDir+65
	DD	imagerel $unwind$unz64local_SearchCentralDir
pdata	ENDS
;	COMDAT pdata
pdata	SEGMENT
$pdata$0$unz64local_SearchCentralDir DD imagerel unz64local_SearchCentralDir+65
	DD	imagerel unz64local_SearchCentralDir+124
	DD	imagerel $chain$0$unz64local_SearchCentralDir
pdata	ENDS
;	COMDAT pdata
pdata	SEGMENT
$pdata$3$unz64local_SearchCentralDir DD imagerel unz64local_SearchCentralDir+124
	DD	imagerel unz64local_SearchCentralDir+143
	DD	imagerel $chain$3$unz64local_SearchCentralDir
pdata	ENDS
;	COMDAT pdata
pdata	SEGMENT
$pdata$5$unz64local_SearchCentralDir DD imagerel unz64local_SearchCentralDir+143
	DD	imagerel unz64local_SearchCentralDir+338
	DD	imagerel $chain$5$unz64local_SearchCentralDir
pdata	ENDS
;	COMDAT pdata
pdata	SEGMENT
$pdata$6$unz64local_SearchCentralDir DD imagerel unz64local_SearchCentralDir+338
	DD	imagerel unz64local_SearchCentralDir+372
	DD	imagerel $chain$6$unz64local_SearchCentralDir
pdata	ENDS
;	COMDAT pdata
pdata	SEGMENT
$pdata$unz64local_getLong64 DD imagerel unz64local_getLong64
	DD	imagerel unz64local_getLong64+369
	DD	imagerel $unwind$unz64local_getLong64
pdata	ENDS
;	COMDAT pdata
pdata	SEGMENT
$pdata$unz64local_getLong DD imagerel unz64local_getLong
	DD	imagerel unz64local_getLong+205
	DD	imagerel $unwind$unz64local_getLong
pdata	ENDS
;	COMDAT pdata
pdata	SEGMENT
$pdata$unz64local_getShort DD imagerel unz64local_getShort
	DD	imagerel unz64local_getShort+124
	DD	imagerel $unwind$unz64local_getShort
pdata	ENDS
;	COMDAT pdata
pdata	SEGMENT
$pdata$unz64local_getByte DD imagerel unz64local_getByte
	DD	imagerel unz64local_getByte+102
	DD	imagerel $unwind$unz64local_getByte
;	COMDAT xdata
xdata	SEGMENT
$unwind$unz64local_getByte DD 060f01H
	DD	08640fH
	DD	07340fH
	DD	0700b320fH
xdata	ENDS
;	COMDAT xdata
xdata	SEGMENT
$unwind$unz64local_getShort DD 081401H
	DD	086414H
	DD	075414H
	DD	063414H
	DD	070103214H
xdata	ENDS
;	COMDAT xdata
xdata	SEGMENT
$unwind$unz64local_getLong DD 081501H
	DD	087415H
	DD	076415H
	DD	063415H
	DD	0e0113215H
xdata	ENDS
;	COMDAT xdata
xdata	SEGMENT
$unwind$unz64local_getLong64 DD 081501H
	DD	087415H
	DD	076415H
	DD	063415H
	DD	0e0113215H
xdata	ENDS
;	COMDAT xdata
xdata	SEGMENT
$chain$6$unz64local_SearchCentralDir DD 021H
	DD	imagerel unz64local_SearchCentralDir+124
	DD	imagerel unz64local_SearchCentralDir+143
	DD	imagerel $chain$3$unz64local_SearchCentralDir
xdata	ENDS
;	COMDAT xdata
xdata	SEGMENT
$chain$5$unz64local_SearchCentralDir DD 040a21H
	DD	0d740aH
	DD	0c6405H
	DD	imagerel unz64local_SearchCentralDir+124
	DD	imagerel unz64local_SearchCentralDir+143
	DD	imagerel $chain$3$unz64local_SearchCentralDir
xdata	ENDS
;	COMDAT xdata
xdata	SEGMENT
$chain$3$unz64local_SearchCentralDir DD 040521H
	DD	0a5405H
	DD	04f400H
	DD	imagerel unz64local_SearchCentralDir
	DD	imagerel unz64local_SearchCentralDir+65
	DD	imagerel $unwind$unz64local_SearchCentralDir
xdata	ENDS
;	COMDAT xdata
xdata	SEGMENT
$chain$0$unz64local_SearchCentralDir DD 020521H
	DD	04f405H
	DD	imagerel unz64local_SearchCentralDir
	DD	imagerel unz64local_SearchCentralDir+65
	DD	imagerel $unwind$unz64local_SearchCentralDir
xdata	ENDS
;	COMDAT xdata
xdata	SEGMENT
$unwind$unz64local_SearchCentralDir DD 051001H
	DD	0e00c4210H
	DD	0c008d00aH
	DD	03006H
xdata	ENDS
;	COMDAT xdata
xdata	SEGMENT
$chain$3$unz64local_SearchCentralDir64 DD 021H
	DD	imagerel unz64local_SearchCentralDir64
	DD	imagerel unz64local_SearchCentralDir64+122
	DD	imagerel $unwind$unz64local_SearchCentralDir64
xdata	ENDS
;	COMDAT xdata
xdata	SEGMENT
$chain$2$unz64local_SearchCentralDir64 DD 020521H
	DD	055405H
	DD	imagerel unz64local_SearchCentralDir64
	DD	imagerel unz64local_SearchCentralDir64+122
	DD	imagerel $unwind$unz64local_SearchCentralDir64
xdata	ENDS
;	COMDAT xdata
xdata	SEGMENT
$unwind$unz64local_SearchCentralDir64 DD 0a4f01H
	DD	04744fH
	DD	0c3444H
	DD	0f00a520eH
	DD	0d006e008H
	DD	06002c004H
xdata	ENDS
;	COMDAT xdata
xdata	SEGMENT
$chain$4$unzOpenInternal DD 020021H
	DD	02af400H
	DD	imagerel unzOpenInternal
	DD	imagerel unzOpenInternal+174
	DD	imagerel $unwind$unzOpenInternal
xdata	ENDS
;	COMDAT xdata
xdata	SEGMENT
$chain$3$unzOpenInternal DD 041021H
	DD	02af410H
	DD	02be408H
	DD	imagerel unzOpenInternal
	DD	imagerel unzOpenInternal+174
	DD	imagerel $unwind$unzOpenInternal
xdata	ENDS
;	COMDAT xdata
xdata	SEGMENT
$unwind$unzOpenInternal DD 09ab01H
	DD	03174abH
	DD	030349eH
	DD	02c0111H
	DD	06003c005H
	DD	05002H
xdata	ENDS
;	COMDAT xdata
xdata	SEGMENT
$unwind$unzOpen2 DD 020701H
	DD	0110107H
xdata	ENDS
;	COMDAT xdata
xdata	SEGMENT
$unwind$unzOpen2_64 DD 020701H
	DD	0110107H
xdata	ENDS
;	COMDAT xdata
xdata	SEGMENT
$unwind$unzClose DD 020601H
	DD	030023206H
xdata	ENDS
;	COMDAT xdata
xdata	SEGMENT
$unwind$unz64local_GetCurrentFileInfoInternal DD 0d7101H
	DD	015f471H
	DD	0167469H
	DD	0173461H
	DD	0180123H
	DD	0d015e017H
	DD	06011c013H
	DD	05010H
xdata	ENDS
;	COMDAT xdata
xdata	SEGMENT
$unwind$unzGetCurrentFileInfo64 DD 010401H
	DD	0a204H
xdata	ENDS
;	COMDAT xdata
xdata	SEGMENT
$unwind$unzGetCurrentFileInfo DD 030901H
	DD	0160109H
	DD	03002H
xdata	ENDS
;	COMDAT xdata
xdata	SEGMENT
$unwind$unzGoToFirstFile DD 042a01H
	DD	0c342aH
	DD	070029206H
xdata	ENDS
;	COMDAT xdata
xdata	SEGMENT
$unwind$unzGoToNextFile DD 048301H
	DD	0c3483H
	DD	070029206H
xdata	ENDS
;	COMDAT xdata
xdata	SEGMENT
$chain$5$unzLocateFile DD 080021H
	DD	034f400H
	DD	035e400H
	DD	03cc400H
	DD	03b3400H
	DD	imagerel $LN24@unzLocateF
	DD	imagerel $LN24@unzLocateF+98
	DD	imagerel $unwind$unzLocateFile
xdata	ENDS
;	COMDAT xdata
xdata	SEGMENT
$chain$3$unzLocateFile DD 083f21H
	DD	034f43fH
	DD	035e42bH
	DD	03cc41cH
	DD	03b3408H
	DD	imagerel $LN24@unzLocateF
	DD	imagerel $LN24@unzLocateF+98
	DD	imagerel $unwind$unzLocateFile
xdata	ENDS
;	COMDAT xdata
xdata	SEGMENT
$unwind$unzLocateFile DD 050b01H
	DD	036010bH
	DD	060037004H
	DD	05002H
xdata	ENDS
;	COMDAT xdata
xdata	SEGMENT
$unwind$unzGetFilePos DD 020601H
	DD	030025206H
xdata	ENDS
;	COMDAT xdata
xdata	SEGMENT
$chain$1$unzGoToFilePos64 DD 021H
	DD	imagerel $LN6@unzGoToFil
	DD	imagerel $LN6@unzGoToFil+50
	DD	imagerel $unwind$unzGoToFilePos64
xdata	ENDS
;	COMDAT xdata
xdata	SEGMENT
$chain$0$unzGoToFilePos64 DD 020521H
	DD	0c3405H
	DD	imagerel $LN6@unzGoToFil
	DD	imagerel $LN6@unzGoToFil+50
	DD	imagerel $unwind$unzGoToFilePos64
xdata	ENDS
;	COMDAT xdata
xdata	SEGMENT
$unwind$unzGoToFilePos64 DD 020601H
	DD	070029206H
xdata	ENDS
;	COMDAT xdata
xdata	SEGMENT
$unwind$unzGoToFilePos DD 010401H
	DD	06204H
xdata	ENDS
;	COMDAT xdata
xdata	SEGMENT
$unwind$unz64local_CheckCurrentFileCoherencyHeader DD 0b6601H
	DD	04d466H
	DD	0e545eH
	DD	0f00a420eH
	DD	0c006e008H
	DD	060037004H
	DD	03002H
xdata	ENDS
;	COMDAT xdata
xdata	SEGMENT
$chain$4$unzOpenCurrentFile3 DD 040021H
	DD	0bf400H
	DD	0a3400H
	DD	imagerel $LN29@unzOpenCur
	DD	imagerel $LN29@unzOpenCur+133
	DD	imagerel $unwind$unzOpenCurrentFile3
xdata	ENDS
;	COMDAT xdata
xdata	SEGMENT
$chain$2$unzOpenCurrentFile3 DD 021H
	DD	imagerel $LN29@unzOpenCur+133
	DD	imagerel $LN29@unzOpenCur+165
	DD	imagerel $chain$0$unzOpenCurrentFile3
xdata	ENDS
;	COMDAT xdata
xdata	SEGMENT
$chain$1$unzOpenCurrentFile3 DD 020521H
	DD	0bf405H
	DD	imagerel $LN29@unzOpenCur+133
	DD	imagerel $LN29@unzOpenCur+165
	DD	imagerel $chain$0$unzOpenCurrentFile3
xdata	ENDS
;	COMDAT xdata
xdata	SEGMENT
$chain$0$unzOpenCurrentFile3 DD 020521H
	DD	0a3405H
	DD	imagerel $LN29@unzOpenCur
	DD	imagerel $LN29@unzOpenCur+133
	DD	imagerel $unwind$unzOpenCurrentFile3
xdata	ENDS
;	COMDAT xdata
xdata	SEGMENT
$unwind$unzOpenCurrentFile3 DD 060d01H
	DD	0c540dH
	DD	0e009520dH
	DD	060067007H
xdata	ENDS
;	COMDAT xdata
xdata	SEGMENT
$unwind$unzOpenCurrentFile DD 010401H
	DD	06204H
xdata	ENDS
;	COMDAT xdata
xdata	SEGMENT
$unwind$unzOpenCurrentFilePassword DD 010401H
	DD	06204H
xdata	ENDS
;	COMDAT xdata
xdata	SEGMENT
$unwind$unzOpenCurrentFile2 DD 010401H
	DD	06204H
xdata	ENDS
;	COMDAT xdata
xdata	SEGMENT
$chain$14$unzReadCurrentFile DD 0e0021H
	DD	04f400H
	DD	05e400H
	DD	06d400H
	DD	077400H
	DD	0c6400H
	DD	0b5400H
	DD	0a3400H
	DD	imagerel $LN56@unzReadCur
	DD	imagerel $LN56@unzReadCur+24
	DD	imagerel $unwind$unzReadCurrentFile
xdata	ENDS
;	COMDAT xdata
xdata	SEGMENT
$chain$12$unzReadCurrentFile DD 0e6921H
	DD	04f469H
	DD	05e464H
	DD	06d45fH
	DD	07745aH
	DD	0c6455H
	DD	0b5450H
	DD	0a3400H
	DD	imagerel $LN56@unzReadCur
	DD	imagerel $LN56@unzReadCur+24
	DD	imagerel $unwind$unzReadCurrentFile
xdata	ENDS
;	COMDAT xdata
xdata	SEGMENT
$chain$4$unzReadCurrentFile DD 020021H
	DD	0a3400H
	DD	imagerel $LN56@unzReadCur
	DD	imagerel $LN56@unzReadCur+24
	DD	imagerel $unwind$unzReadCurrentFile
xdata	ENDS
;	COMDAT xdata
xdata	SEGMENT
$chain$2$unzReadCurrentFile DD 020021H
	DD	0a3400H
	DD	imagerel $LN56@unzReadCur
	DD	imagerel $LN56@unzReadCur+24
	DD	imagerel $unwind$unzReadCurrentFile
xdata	ENDS
;	COMDAT xdata
xdata	SEGMENT
$chain$0$unzReadCurrentFile DD 020521H
	DD	0a3405H
	DD	imagerel $LN56@unzReadCur
	DD	imagerel $LN56@unzReadCur+24
	DD	imagerel $unwind$unzReadCurrentFile
xdata	ENDS
;	COMDAT xdata
xdata	SEGMENT
$unwind$unzReadCurrentFile DD 020601H
	DD	0c0027206H
xdata	ENDS
;	COMDAT xdata
xdata	SEGMENT
$chain$8$unzGetLocalExtrafield DD 020021H
	DD	063400H
	DD	imagerel $LN13@unzGetLoca
	DD	imagerel $LN13@unzGetLoca+35
	DD	imagerel $unwind$unzGetLocalExtrafield
xdata	ENDS
;	COMDAT xdata
xdata	SEGMENT
$chain$6$unzGetLocalExtrafield DD 020021H
	DD	063400H
	DD	imagerel $LN13@unzGetLoca
	DD	imagerel $LN13@unzGetLoca+35
	DD	imagerel $unwind$unzGetLocalExtrafield
xdata	ENDS
;	COMDAT xdata
xdata	SEGMENT
$chain$4$unzGetLocalExtrafield DD 020021H
	DD	063400H
	DD	imagerel $LN13@unzGetLoca
	DD	imagerel $LN13@unzGetLoca+35
	DD	imagerel $unwind$unzGetLocalExtrafield
xdata	ENDS
;	COMDAT xdata
xdata	SEGMENT
$chain$2$unzGetLocalExtrafield DD 020021H
	DD	063400H
	DD	imagerel $LN13@unzGetLoca
	DD	imagerel $LN13@unzGetLoca+35
	DD	imagerel $unwind$unzGetLocalExtrafield
xdata	ENDS
;	COMDAT xdata
xdata	SEGMENT
$chain$0$unzGetLocalExtrafield DD 020521H
	DD	063405H
	DD	imagerel $LN13@unzGetLoca
	DD	imagerel $LN13@unzGetLoca+35
	DD	imagerel $unwind$unzGetLocalExtrafield
xdata	ENDS
;	COMDAT xdata
xdata	SEGMENT
$unwind$unzGetLocalExtrafield DD 040a01H
	DD	07640aH
	DD	07006320aH
xdata	ENDS
;	COMDAT xdata
xdata	SEGMENT
$chain$2$unzCloseCurrentFile DD 020021H
	DD	063400H
	DD	imagerel $LN12@unzCloseCu
	DD	imagerel $LN12@unzCloseCu+34
	DD	imagerel $unwind$unzCloseCurrentFile
xdata	ENDS
;	COMDAT xdata
xdata	SEGMENT
$chain$0$unzCloseCurrentFile DD 020521H
	DD	063405H
	DD	imagerel $LN12@unzCloseCu
	DD	imagerel $LN12@unzCloseCu+34
	DD	imagerel $unwind$unzCloseCurrentFile
xdata	ENDS
;	COMDAT xdata
xdata	SEGMENT
$unwind$unzCloseCurrentFile DD 040a01H
	DD	07640aH
	DD	07006320aH
xdata	ENDS
;	COMDAT xdata
xdata	SEGMENT
$unwind$unzGetGlobalComment DD 084301H
	DD	066443H
	DD	08540fH
	DD	07340fH
	DD	0700b320fH
END
