; Listing generated by Microsoft (R) Optimizing Compiler Version 19.00.24210.0 

include listing.inc

INCLUDELIB OLDNAMES

PUBLIC	??_C@_01JOAMLHOP@?9?$AA@			; `string'
EXTRN	__imp__time64:PROC
EXTRN	__imp_rand:PROC
EXTRN	__imp_srand:PROC
?calls@?1??crypthead@@9@9 DD 01H DUP (?)		; `crypthead'::`2'::calls
_BSS	ENDS
;	COMDAT ??_C@_01JOAMLHOP@?9?$AA@
CONST	SEGMENT
??_C@_01JOAMLHOP@?9?$AA@ DB '-', 00H			; `string'
PUBLIC	zipClose
PUBLIC	Write_GlobalComment
PUBLIC	Write_EndOfCentralDirectoryRecord
PUBLIC	Write_Zip64EndOfCentralDirectoryRecord
PUBLIC	Write_Zip64EndOfCentralDirectoryLocator
PUBLIC	zipCloseFileInZip
PUBLIC	zipCloseFileInZipRaw64
PUBLIC	zipCloseFileInZipRaw
PUBLIC	zipWriteInFileInZip
PUBLIC	zipOpenNewFileInZip
PUBLIC	zipOpenNewFileInZip64
PUBLIC	zipOpenNewFileInZip2_64
PUBLIC	zipOpenNewFileInZip2
PUBLIC	zipOpenNewFileInZip3_64
PUBLIC	zipOpenNewFileInZip3
PUBLIC	zipOpenNewFileInZip4_64
PUBLIC	Write_LocalFileHeader
PUBLIC	zipOpen64
PUBLIC	zipOpen
PUBLIC	zipOpen2_64
PUBLIC	zipOpen2
PUBLIC	zipOpen3
PUBLIC	LoadCentralDirectoryRecord
;	COMDAT pdata
pdata	SEGMENT
$pdata$zipClose DD imagerel $LN24@zipClose
	DD	imagerel $LN24@zipClose+49
	DD	imagerel $unwind$zipClose
pdata	ENDS
;	COMDAT pdata
pdata	SEGMENT
$pdata$0$zipClose DD imagerel $LN24@zipClose+49
	DD	imagerel $LN24@zipClose+54
	DD	imagerel $chain$0$zipClose
pdata	ENDS
;	COMDAT pdata
pdata	SEGMENT
$pdata$1$zipClose DD imagerel $LN24@zipClose+54
	DD	imagerel $LN24@zipClose+87
	DD	imagerel $chain$1$zipClose
pdata	ENDS
;	COMDAT pdata
pdata	SEGMENT
$pdata$2$zipClose DD imagerel $LN24@zipClose+87
	DD	imagerel $LN24@zipClose+253
	DD	imagerel $chain$2$zipClose
pdata	ENDS
;	COMDAT pdata
pdata	SEGMENT
$pdata$3$zipClose DD imagerel $LN24@zipClose+253
	DD	imagerel $LN24@zipClose+305
	DD	imagerel $chain$3$zipClose
pdata	ENDS
;	COMDAT pdata
pdata	SEGMENT
$pdata$4$zipClose DD imagerel $LN24@zipClose+305
	DD	imagerel $LN24@zipClose+328
	DD	imagerel $chain$4$zipClose
pdata	ENDS
;	COMDAT pdata
pdata	SEGMENT
$pdata$5$zipClose DD imagerel $LN24@zipClose+328
	DD	imagerel $LN24@zipClose+359
	DD	imagerel $chain$5$zipClose
pdata	ENDS
;	COMDAT pdata
pdata	SEGMENT
$pdata$Write_GlobalComment DD imagerel $LN10@Write_Glob
	DD	imagerel $LN10@Write_Glob+137
	DD	imagerel $unwind$Write_GlobalComment
pdata	ENDS
;	COMDAT pdata
pdata	SEGMENT
$pdata$Write_EndOfCentralDirectoryRecord DD imagerel $LN25@Write_EndO
	DD	imagerel $LN25@Write_EndO+285
	DD	imagerel $unwind$Write_EndOfCentralDirectoryRecord
pdata	ENDS
;	COMDAT pdata
pdata	SEGMENT
$pdata$Write_Zip64EndOfCentralDirectoryRecord DD imagerel $LN13@Write_Zip6
	DD	imagerel $LN13@Write_Zip6+301
	DD	imagerel $unwind$Write_Zip64EndOfCentralDirectoryRecord
pdata	ENDS
;	COMDAT pdata
pdata	SEGMENT
$pdata$Write_Zip64EndOfCentralDirectoryLocator DD imagerel $LN10@Write_Zip6
	DD	imagerel $LN10@Write_Zip6+125
	DD	imagerel $unwind$Write_Zip64EndOfCentralDirectoryLocator
pdata	ENDS
;	COMDAT pdata
pdata	SEGMENT
$pdata$zipCloseFileInZipRaw64 DD imagerel $LN62@zipCloseFi
	DD	imagerel $LN62@zipCloseFi+1109
	DD	imagerel $unwind$zipCloseFileInZipRaw64
pdata	ENDS
;	COMDAT pdata
pdata	SEGMENT
$pdata$zipWriteInFileInZip DD imagerel $LN29@zipWriteIn
	DD	imagerel $LN29@zipWriteIn+57
	DD	imagerel $unwind$zipWriteInFileInZip
pdata	ENDS
;	COMDAT pdata
pdata	SEGMENT
$pdata$0$zipWriteInFileInZip DD imagerel $LN29@zipWriteIn+57
	DD	imagerel $LN29@zipWriteIn+207
	DD	imagerel $chain$0$zipWriteInFileInZip
pdata	ENDS
;	COMDAT pdata
pdata	SEGMENT
$pdata$1$zipWriteInFileInZip DD imagerel $LN29@zipWriteIn+207
	DD	imagerel $LN29@zipWriteIn+228
	DD	imagerel $chain$1$zipWriteInFileInZip
pdata	ENDS
;	COMDAT pdata
pdata	SEGMENT
$pdata$2$zipWriteInFileInZip DD imagerel $LN29@zipWriteIn+228
	DD	imagerel $LN29@zipWriteIn+356
	DD	imagerel $chain$2$zipWriteInFileInZip
pdata	ENDS
;	COMDAT pdata
pdata	SEGMENT
$pdata$zip64FlushWriteBuffer DD imagerel zip64FlushWriteBuffer
	DD	imagerel zip64FlushWriteBuffer+22
	DD	imagerel $unwind$zip64FlushWriteBuffer
pdata	ENDS
;	COMDAT pdata
pdata	SEGMENT
$pdata$0$zip64FlushWriteBuffer DD imagerel zip64FlushWriteBuffer+22
	DD	imagerel zip64FlushWriteBuffer+37
	DD	imagerel $chain$0$zip64FlushWriteBuffer
pdata	ENDS
;	COMDAT pdata
pdata	SEGMENT
$pdata$2$zip64FlushWriteBuffer DD imagerel zip64FlushWriteBuffer+37
	DD	imagerel zip64FlushWriteBuffer+118
	DD	imagerel $chain$2$zip64FlushWriteBuffer
pdata	ENDS
;	COMDAT pdata
pdata	SEGMENT
$pdata$3$zip64FlushWriteBuffer DD imagerel zip64FlushWriteBuffer+118
	DD	imagerel zip64FlushWriteBuffer+123
	DD	imagerel $chain$3$zip64FlushWriteBuffer
pdata	ENDS
;	COMDAT pdata
pdata	SEGMENT
$pdata$4$zip64FlushWriteBuffer DD imagerel zip64FlushWriteBuffer+123
	DD	imagerel zip64FlushWriteBuffer+217
	DD	imagerel $chain$4$zip64FlushWriteBuffer
pdata	ENDS
;	COMDAT pdata
pdata	SEGMENT
$pdata$zipOpenNewFileInZip DD imagerel $LN4@zipOpenNew
	DD	imagerel $LN4@zipOpenNew+137
	DD	imagerel $unwind$zipOpenNewFileInZip
pdata	ENDS
;	COMDAT pdata
pdata	SEGMENT
$pdata$zipOpenNewFileInZip64 DD imagerel $LN4@zipOpenNew
	DD	imagerel $LN4@zipOpenNew+144
	DD	imagerel $unwind$zipOpenNewFileInZip64
pdata	ENDS
;	COMDAT pdata
pdata	SEGMENT
$pdata$zipOpenNewFileInZip2_64 DD imagerel $LN4@zipOpenNew
	DD	imagerel $LN4@zipOpenNew+151
	DD	imagerel $unwind$zipOpenNewFileInZip2_64
pdata	ENDS
;	COMDAT pdata
pdata	SEGMENT
$pdata$zipOpenNewFileInZip2 DD imagerel $LN4@zipOpenNew
	DD	imagerel $LN4@zipOpenNew+144
	DD	imagerel $unwind$zipOpenNewFileInZip2
pdata	ENDS
;	COMDAT pdata
pdata	SEGMENT
$pdata$zipOpenNewFileInZip3_64 DD imagerel $LN4@zipOpenNew
	DD	imagerel $LN4@zipOpenNew+179
	DD	imagerel $unwind$zipOpenNewFileInZip3_64
pdata	ENDS
;	COMDAT pdata
pdata	SEGMENT
$pdata$zipOpenNewFileInZip3 DD imagerel $LN4@zipOpenNew
	DD	imagerel $LN4@zipOpenNew+172
	DD	imagerel $unwind$zipOpenNewFileInZip3
pdata	ENDS
;	COMDAT pdata
pdata	SEGMENT
$pdata$zipOpenNewFileInZip4_64 DD imagerel $LN72@zipOpenNew
	DD	imagerel $LN72@zipOpenNew+39
	DD	imagerel $unwind$zipOpenNewFileInZip4_64
pdata	ENDS
;	COMDAT pdata
pdata	SEGMENT
$pdata$0$zipOpenNewFileInZip4_64 DD imagerel $LN72@zipOpenNew+39
	DD	imagerel $LN72@zipOpenNew+86
	DD	imagerel $chain$0$zipOpenNewFileInZip4_64
pdata	ENDS
;	COMDAT pdata
pdata	SEGMENT
$pdata$2$zipOpenNewFileInZip4_64 DD imagerel $LN72@zipOpenNew+86
	DD	imagerel $LN72@zipOpenNew+105
	DD	imagerel $chain$2$zipOpenNewFileInZip4_64
pdata	ENDS
;	COMDAT pdata
pdata	SEGMENT
$pdata$6$zipOpenNewFileInZip4_64 DD imagerel $LN72@zipOpenNew+105
	DD	imagerel $LN72@zipOpenNew+1393
	DD	imagerel $chain$6$zipOpenNewFileInZip4_64
pdata	ENDS
;	COMDAT pdata
pdata	SEGMENT
$pdata$7$zipOpenNewFileInZip4_64 DD imagerel $LN72@zipOpenNew+1393
	DD	imagerel $LN72@zipOpenNew+1410
	DD	imagerel $chain$7$zipOpenNewFileInZip4_64
pdata	ENDS
;	COMDAT pdata
pdata	SEGMENT
$pdata$Write_LocalFileHeader DD imagerel $LN36@Write_Loca
	DD	imagerel $LN36@Write_Loca+593
	DD	imagerel $unwind$Write_LocalFileHeader
pdata	ENDS
;	COMDAT pdata
pdata	SEGMENT
$pdata$zipOpen2_64 DD imagerel $LN7@zipOpen2_6
	DD	imagerel $LN7@zipOpen2_6+94
	DD	imagerel $unwind$zipOpen2_64
pdata	ENDS
;	COMDAT pdata
pdata	SEGMENT
$pdata$zipOpen2 DD imagerel $LN7@zipOpen2
	DD	imagerel $LN7@zipOpen2+78
	DD	imagerel $unwind$zipOpen2
pdata	ENDS
;	COMDAT pdata
pdata	SEGMENT
$pdata$zipOpen3 DD imagerel $LN17@zipOpen3
	DD	imagerel $LN17@zipOpen3+553
	DD	imagerel $unwind$zipOpen3
pdata	ENDS
;	COMDAT pdata
pdata	SEGMENT
$pdata$LoadCentralDirectoryRecord DD imagerel $LN58@LoadCentra
	DD	imagerel $LN58@LoadCentra+920
	DD	imagerel $unwind$LoadCentralDirectoryRecord
pdata	ENDS
;	COMDAT pdata
pdata	SEGMENT
$pdata$zip64local_SearchCentralDir64 DD imagerel zip64local_SearchCentralDir64
	DD	imagerel zip64local_SearchCentralDir64+122
	DD	imagerel $unwind$zip64local_SearchCentralDir64
pdata	ENDS
;	COMDAT pdata
pdata	SEGMENT
$pdata$2$zip64local_SearchCentralDir64 DD imagerel zip64local_SearchCentralDir64+122
	DD	imagerel zip64local_SearchCentralDir64+328
	DD	imagerel $chain$2$zip64local_SearchCentralDir64
pdata	ENDS
;	COMDAT pdata
pdata	SEGMENT
$pdata$3$zip64local_SearchCentralDir64 DD imagerel zip64local_SearchCentralDir64+328
	DD	imagerel zip64local_SearchCentralDir64+535
	DD	imagerel $chain$3$zip64local_SearchCentralDir64
pdata	ENDS
;	COMDAT pdata
pdata	SEGMENT
$pdata$zip64local_SearchCentralDir DD imagerel zip64local_SearchCentralDir
	DD	imagerel zip64local_SearchCentralDir+65
	DD	imagerel $unwind$zip64local_SearchCentralDir
pdata	ENDS
;	COMDAT pdata
pdata	SEGMENT
$pdata$0$zip64local_SearchCentralDir DD imagerel zip64local_SearchCentralDir+65
	DD	imagerel zip64local_SearchCentralDir+124
	DD	imagerel $chain$0$zip64local_SearchCentralDir
pdata	ENDS
;	COMDAT pdata
pdata	SEGMENT
$pdata$3$zip64local_SearchCentralDir DD imagerel zip64local_SearchCentralDir+124
	DD	imagerel zip64local_SearchCentralDir+143
	DD	imagerel $chain$3$zip64local_SearchCentralDir
pdata	ENDS
;	COMDAT pdata
pdata	SEGMENT
$pdata$5$zip64local_SearchCentralDir DD imagerel zip64local_SearchCentralDir+143
	DD	imagerel zip64local_SearchCentralDir+338
	DD	imagerel $chain$5$zip64local_SearchCentralDir
pdata	ENDS
;	COMDAT pdata
pdata	SEGMENT
$pdata$6$zip64local_SearchCentralDir DD imagerel zip64local_SearchCentralDir+338
	DD	imagerel zip64local_SearchCentralDir+372
	DD	imagerel $chain$6$zip64local_SearchCentralDir
pdata	ENDS
;	COMDAT pdata
pdata	SEGMENT
$pdata$zip64local_getLong64 DD imagerel zip64local_getLong64
	DD	imagerel zip64local_getLong64+369
	DD	imagerel $unwind$zip64local_getLong64
pdata	ENDS
;	COMDAT pdata
pdata	SEGMENT
$pdata$zip64local_getLong DD imagerel zip64local_getLong
	DD	imagerel zip64local_getLong+205
	DD	imagerel $unwind$zip64local_getLong
pdata	ENDS
;	COMDAT pdata
pdata	SEGMENT
$pdata$zip64local_getShort DD imagerel zip64local_getShort
	DD	imagerel zip64local_getShort+124
	DD	imagerel $unwind$zip64local_getShort
pdata	ENDS
;	COMDAT pdata
pdata	SEGMENT
$pdata$zip64local_getByte DD imagerel zip64local_getByte
	DD	imagerel zip64local_getByte+102
	DD	imagerel $unwind$zip64local_getByte
pdata	ENDS
;	COMDAT pdata
pdata	SEGMENT
$pdata$zip64local_putValue_inmemory DD imagerel zip64local_putValue_inmemory
	DD	imagerel zip64local_putValue_inmemory+70
	DD	imagerel $unwind$zip64local_putValue_inmemory
pdata	ENDS
;	COMDAT pdata
pdata	SEGMENT
$pdata$zip64local_putValue DD imagerel zip64local_putValue
	DD	imagerel zip64local_putValue+59
	DD	imagerel $unwind$zip64local_putValue
pdata	ENDS
;	COMDAT pdata
pdata	SEGMENT
$pdata$0$zip64local_putValue DD imagerel zip64local_putValue+59
	DD	imagerel zip64local_putValue+81
	DD	imagerel $chain$0$zip64local_putValue
pdata	ENDS
;	COMDAT pdata
pdata	SEGMENT
$pdata$1$zip64local_putValue DD imagerel zip64local_putValue+81
	DD	imagerel zip64local_putValue+109
	DD	imagerel $chain$1$zip64local_putValue
pdata	ENDS
;	COMDAT pdata
pdata	SEGMENT
$pdata$add_data_in_datablock DD imagerel add_data_in_datablock
	DD	imagerel add_data_in_datablock+74
	DD	imagerel $unwind$add_data_in_datablock
pdata	ENDS
;	COMDAT pdata
pdata	SEGMENT
$pdata$0$add_data_in_datablock DD imagerel add_data_in_datablock+74
	DD	imagerel add_data_in_datablock+206
	DD	imagerel $chain$0$add_data_in_datablock
pdata	ENDS
;	COMDAT pdata
pdata	SEGMENT
$pdata$2$add_data_in_datablock DD imagerel add_data_in_datablock+206
	DD	imagerel add_data_in_datablock+213
	DD	imagerel $chain$2$add_data_in_datablock
pdata	ENDS
;	COMDAT pdata
pdata	SEGMENT
$pdata$free_linkedlist DD imagerel free_linkedlist
	DD	imagerel free_linkedlist+32
	DD	imagerel $unwind$free_linkedlist
pdata	ENDS
;	COMDAT pdata
pdata	SEGMENT
$pdata$free_datablock DD imagerel free_datablock
	DD	imagerel free_datablock+9
	DD	imagerel $unwind$free_datablock
pdata	ENDS
;	COMDAT pdata
pdata	SEGMENT
$pdata$0$free_datablock DD imagerel free_datablock+9
	DD	imagerel free_datablock+38
	DD	imagerel $chain$0$free_datablock
pdata	ENDS
;	COMDAT pdata
pdata	SEGMENT
$pdata$1$free_datablock DD imagerel free_datablock+38
	DD	imagerel free_datablock+43
	DD	imagerel $chain$1$free_datablock
pdata	ENDS
;	COMDAT pdata
pdata	SEGMENT
$pdata$allocate_new_datablock DD imagerel allocate_new_datablock
	DD	imagerel allocate_new_datablock+38
	DD	imagerel $unwind$allocate_new_datablock
pdata	ENDS
;	COMDAT pdata
pdata	SEGMENT
$pdata$crypthead DD imagerel crypthead
	DD	imagerel crypthead+327
	DD	imagerel $unwind$crypthead
pdata	ENDS
;	COMDAT pdata
pdata	SEGMENT
$pdata$init_keys DD imagerel init_keys
	DD	imagerel init_keys+107
	DD	imagerel $unwind$init_keys
pdata	ENDS
;	COMDAT pdata
pdata	SEGMENT
$pdata$update_keys DD imagerel update_keys
	DD	imagerel update_keys+93
	DD	imagerel $unwind$update_keys
pdata	ENDS
;	COMDAT xdata
xdata	SEGMENT
$unwind$update_keys DD 020501H
	DD	013405H
xdata	ENDS
;	COMDAT xdata
xdata	SEGMENT
$unwind$init_keys DD 060f01H
	DD	07640fH
	DD	06340fH
	DD	0700b320fH
xdata	ENDS
;	COMDAT xdata
xdata	SEGMENT
$unwind$crypthead DD 0c1e01H
	DD	0d741eH
	DD	0c641eH
	DD	0b541eH
	DD	0a341eH
	DD	0f01a521eH
	DD	0d016e018H
xdata	ENDS
;	COMDAT xdata
xdata	SEGMENT
$unwind$allocate_new_datablock DD 010401H
	DD	04204H
xdata	ENDS
;	COMDAT xdata
xdata	SEGMENT
$chain$1$free_datablock DD 021H
	DD	imagerel free_datablock
	DD	imagerel free_datablock+9
	DD	imagerel $unwind$free_datablock
xdata	ENDS
;	COMDAT xdata
xdata	SEGMENT
$chain$0$free_datablock DD 020521H
	DD	043405H
	DD	imagerel free_datablock
	DD	imagerel free_datablock+9
	DD	imagerel $unwind$free_datablock
xdata	ENDS
;	COMDAT xdata
xdata	SEGMENT
$unwind$free_datablock DD 010401H
	DD	04204H
xdata	ENDS
;	COMDAT xdata
xdata	SEGMENT
$unwind$free_linkedlist DD 020601H
	DD	030023206H
xdata	ENDS
;	COMDAT xdata
xdata	SEGMENT
$chain$2$add_data_in_datablock DD 020021H
	DD	063400H
	DD	imagerel add_data_in_datablock
	DD	imagerel add_data_in_datablock+74
	DD	imagerel $unwind$add_data_in_datablock
xdata	ENDS
;	COMDAT xdata
xdata	SEGMENT
$chain$0$add_data_in_datablock DD 020521H
	DD	063405H
	DD	imagerel add_data_in_datablock
	DD	imagerel add_data_in_datablock+74
	DD	imagerel $unwind$add_data_in_datablock
xdata	ENDS
;	COMDAT xdata
xdata	SEGMENT
$unwind$add_data_in_datablock DD 060f01H
	DD	08640fH
	DD	07540fH
	DD	0700b320fH
xdata	ENDS
;	COMDAT xdata
xdata	SEGMENT
$chain$1$zip64local_putValue DD 021H
	DD	imagerel zip64local_putValue
	DD	imagerel zip64local_putValue+59
	DD	imagerel $unwind$zip64local_putValue
xdata	ENDS
;	COMDAT xdata
xdata	SEGMENT
$chain$0$zip64local_putValue DD 020521H
	DD	077405H
	DD	imagerel zip64local_putValue
	DD	imagerel zip64local_putValue+59
	DD	imagerel $unwind$zip64local_putValue
xdata	ENDS
;	COMDAT xdata
xdata	SEGMENT
$unwind$zip64local_putValue DD 020601H
	DD	030023206H
xdata	ENDS
;	COMDAT xdata
xdata	SEGMENT
$unwind$zip64local_putValue_inmemory DD 020501H
	DD	017405H
xdata	ENDS
;	COMDAT xdata
xdata	SEGMENT
$unwind$zip64local_getByte DD 060f01H
	DD	08640fH
	DD	07340fH
	DD	0700b320fH
xdata	ENDS
;	COMDAT xdata
xdata	SEGMENT
$unwind$zip64local_getShort DD 081401H
	DD	086414H
	DD	075414H
	DD	063414H
	DD	070103214H
xdata	ENDS
;	COMDAT xdata
xdata	SEGMENT
$unwind$zip64local_getLong DD 081501H
	DD	087415H
	DD	076415H
	DD	063415H
	DD	0e0113215H
xdata	ENDS
;	COMDAT xdata
xdata	SEGMENT
$unwind$zip64local_getLong64 DD 081501H
	DD	087415H
	DD	076415H
	DD	063415H
	DD	0e0113215H
xdata	ENDS
;	COMDAT xdata
xdata	SEGMENT
$chain$6$zip64local_SearchCentralDir DD 021H
	DD	imagerel zip64local_SearchCentralDir+124
	DD	imagerel zip64local_SearchCentralDir+143
	DD	imagerel $chain$3$zip64local_SearchCentralDir
xdata	ENDS
;	COMDAT xdata
xdata	SEGMENT
$chain$5$zip64local_SearchCentralDir DD 040a21H
	DD	0d740aH
	DD	0c6405H
	DD	imagerel zip64local_SearchCentralDir+124
	DD	imagerel zip64local_SearchCentralDir+143
	DD	imagerel $chain$3$zip64local_SearchCentralDir
xdata	ENDS
;	COMDAT xdata
xdata	SEGMENT
$chain$3$zip64local_SearchCentralDir DD 040521H
	DD	0a5405H
	DD	04f400H
	DD	imagerel zip64local_SearchCentralDir
	DD	imagerel zip64local_SearchCentralDir+65
	DD	imagerel $unwind$zip64local_SearchCentralDir
xdata	ENDS
;	COMDAT xdata
xdata	SEGMENT
$chain$0$zip64local_SearchCentralDir DD 020521H
	DD	04f405H
	DD	imagerel zip64local_SearchCentralDir
	DD	imagerel zip64local_SearchCentralDir+65
	DD	imagerel $unwind$zip64local_SearchCentralDir
xdata	ENDS
;	COMDAT xdata
xdata	SEGMENT
$unwind$zip64local_SearchCentralDir DD 051001H
	DD	0e00c4210H
	DD	0c008d00aH
	DD	03006H
xdata	ENDS
;	COMDAT xdata
xdata	SEGMENT
$chain$3$zip64local_SearchCentralDir64 DD 021H
	DD	imagerel zip64local_SearchCentralDir64
	DD	imagerel zip64local_SearchCentralDir64+122
	DD	imagerel $unwind$zip64local_SearchCentralDir64
xdata	ENDS
;	COMDAT xdata
xdata	SEGMENT
$chain$2$zip64local_SearchCentralDir64 DD 020521H
	DD	055405H
	DD	imagerel zip64local_SearchCentralDir64
	DD	imagerel zip64local_SearchCentralDir64+122
	DD	imagerel $unwind$zip64local_SearchCentralDir64
xdata	ENDS
;	COMDAT xdata
xdata	SEGMENT
$unwind$zip64local_SearchCentralDir64 DD 0a4f01H
	DD	04744fH
	DD	0c3444H
	DD	0f00a520eH
	DD	0d006e008H
	DD	06002c004H
xdata	ENDS
;	COMDAT xdata
xdata	SEGMENT
$unwind$LoadCentralDirectoryRecord DD 091401H
	DD	0f00d6214H
	DD	0d009e00bH
	DD	07005c007H
	DD	030036004H
	DD	05002H
xdata	ENDS
;	COMDAT xdata
xdata	SEGMENT
$unwind$zipOpen3 DD 0b2a01H
	DD	02037e42aH
	DD	02036742aH
	DD	02035642aH
	DD	02034342aH
	DD	02032012aH
	DD	05015H
xdata	ENDS
;	COMDAT xdata
xdata	SEGMENT
$unwind$zipOpen2 DD 020901H
	DD	03002f209H
xdata	ENDS
;	COMDAT xdata
xdata	SEGMENT
$unwind$zipOpen2_64 DD 020701H
	DD	0110107H
xdata	ENDS
;	COMDAT xdata
xdata	SEGMENT
$unwind$Write_LocalFileHeader DD 0a4101H
	DD	085441H
	DD	0a6413H
	DD	093413H
	DD	0f00f3213H
	DD	0700be00dH
xdata	ENDS
;	COMDAT xdata
xdata	SEGMENT
$chain$7$zipOpenNewFileInZip4_64 DD 021H
	DD	imagerel $LN72@zipOpenNew+86
	DD	imagerel $LN72@zipOpenNew+105
	DD	imagerel $chain$2$zipOpenNewFileInZip4_64
xdata	ENDS
;	COMDAT xdata
xdata	SEGMENT
$chain$6$zipOpenNewFileInZip4_64 DD 081d21H
	DD	0ae41dH
	DD	0bd418H
	DD	0116413H
	DD	0105408H
	DD	imagerel $LN72@zipOpenNew+86
	DD	imagerel $LN72@zipOpenNew+105
	DD	imagerel $chain$2$zipOpenNewFileInZip4_64
xdata	ENDS
;	COMDAT xdata
xdata	SEGMENT
$chain$2$zipOpenNewFileInZip4_64 DD 020021H
	DD	012c400H
	DD	imagerel $LN72@zipOpenNew
	DD	imagerel $LN72@zipOpenNew+39
	DD	imagerel $unwind$zipOpenNewFileInZip4_64
xdata	ENDS
;	COMDAT xdata
xdata	SEGMENT
$chain$0$zipOpenNewFileInZip4_64 DD 020821H
	DD	012c408H
	DD	imagerel $LN72@zipOpenNew
	DD	imagerel $LN72@zipOpenNew+39
	DD	imagerel $unwind$zipOpenNewFileInZip4_64
xdata	ENDS
;	COMDAT xdata
xdata	SEGMENT
$unwind$zipOpenNewFileInZip4_64 DD 040d01H
	DD	0f009b20dH
	DD	030067007H
xdata	ENDS
;	COMDAT xdata
xdata	SEGMENT
$unwind$zipOpenNewFileInZip3 DD 020a01H
	DD	015010aH
xdata	ENDS
;	COMDAT xdata
xdata	SEGMENT
$unwind$zipOpenNewFileInZip3_64 DD 020a01H
	DD	015010aH
xdata	ENDS
;	COMDAT xdata
xdata	SEGMENT
$unwind$zipOpenNewFileInZip2 DD 020a01H
	DD	015010aH
xdata	ENDS
;	COMDAT xdata
xdata	SEGMENT
$unwind$zipOpenNewFileInZip2_64 DD 020a01H
	DD	015010aH
xdata	ENDS
;	COMDAT xdata
xdata	SEGMENT
$unwind$zipOpenNewFileInZip64 DD 020a01H
	DD	015010aH
xdata	ENDS
;	COMDAT xdata
xdata	SEGMENT
$unwind$zipOpenNewFileInZip DD 020a01H
	DD	015010aH
xdata	ENDS
;	COMDAT xdata
xdata	SEGMENT
$chain$4$zip64FlushWriteBuffer DD 021H
	DD	imagerel zip64FlushWriteBuffer
	DD	imagerel zip64FlushWriteBuffer+22
	DD	imagerel $unwind$zip64FlushWriteBuffer
xdata	ENDS
;	COMDAT xdata
xdata	SEGMENT
$chain$3$zip64FlushWriteBuffer DD 021H
	DD	imagerel zip64FlushWriteBuffer+22
	DD	imagerel zip64FlushWriteBuffer+37
	DD	imagerel $chain$0$zip64FlushWriteBuffer
xdata	ENDS
;	COMDAT xdata
xdata	SEGMENT
$chain$2$zip64FlushWriteBuffer DD 040a21H
	DD	08e40aH
	DD	076405H
	DD	imagerel zip64FlushWriteBuffer+22
	DD	imagerel zip64FlushWriteBuffer+37
	DD	imagerel $chain$0$zip64FlushWriteBuffer
xdata	ENDS
;	COMDAT xdata
xdata	SEGMENT
$chain$0$zip64FlushWriteBuffer DD 020521H
	DD	065405H
	DD	imagerel zip64FlushWriteBuffer
	DD	imagerel zip64FlushWriteBuffer+22
	DD	imagerel $unwind$zip64FlushWriteBuffer
xdata	ENDS
;	COMDAT xdata
xdata	SEGMENT
$unwind$zip64FlushWriteBuffer DD 040a01H
	DD	09340aH
	DD	07006320aH
xdata	ENDS
;	COMDAT xdata
xdata	SEGMENT
$chain$2$zipWriteInFileInZip DD 020021H
	DD	06e400H
	DD	imagerel $LN29@zipWriteIn
	DD	imagerel $LN29@zipWriteIn+57
	DD	imagerel $unwind$zipWriteInFileInZip
xdata	ENDS
;	COMDAT xdata
xdata	SEGMENT
$chain$1$zipWriteInFileInZip DD 021H
	DD	imagerel $LN29@zipWriteIn
	DD	imagerel $LN29@zipWriteIn+57
	DD	imagerel $unwind$zipWriteInFileInZip
xdata	ENDS
;	COMDAT xdata
xdata	SEGMENT
$chain$0$zipWriteInFileInZip DD 020521H
	DD	06e405H
	DD	imagerel $LN29@zipWriteIn
	DD	imagerel $LN29@zipWriteIn+57
	DD	imagerel $unwind$zipWriteInFileInZip
xdata	ENDS
;	COMDAT xdata
xdata	SEGMENT
$unwind$zipWriteInFileInZip DD 081401H
	DD	096414H
	DD	085414H
	DD	073414H
	DD	070103214H
xdata	ENDS
;	COMDAT xdata
xdata	SEGMENT
$unwind$zipCloseFileInZipRaw64 DD 0d4f01H
	DD	04f44fH
	DD	0cc44aH
	DD	0b7445H
	DD	0a6440H
	DD	0e007420bH
	DD	05003d005H
	DD	03002H
xdata	ENDS
;	COMDAT xdata
xdata	SEGMENT
$unwind$Write_Zip64EndOfCentralDirectoryLocator DD 040a01H
	DD	06340aH
	DD	07006320aH
xdata	ENDS
;	COMDAT xdata
xdata	SEGMENT
$unwind$Write_Zip64EndOfCentralDirectoryRecord DD 060f01H
	DD	07640fH
	DD	06340fH
	DD	0700b320fH
xdata	ENDS
;	COMDAT xdata
xdata	SEGMENT
$unwind$Write_EndOfCentralDirectoryRecord DD 060f01H
	DD	07640fH
	DD	06340fH
	DD	0700b320fH
xdata	ENDS
;	COMDAT xdata
xdata	SEGMENT
$unwind$Write_GlobalComment DD 0a1a01H
	DD	09741aH
	DD	08641aH
	DD	07541aH
	DD	06341aH
	DD	0e016321aH
xdata	ENDS
;	COMDAT xdata
xdata	SEGMENT
$chain$5$zipClose DD 021H
	DD	imagerel $LN24@zipClose
	DD	imagerel $LN24@zipClose+49
	DD	imagerel $unwind$zipClose
xdata	ENDS
;	COMDAT xdata
xdata	SEGMENT
$chain$4$zipClose DD 021H
	DD	imagerel $LN24@zipClose+49
	DD	imagerel $LN24@zipClose+54
	DD	imagerel $chain$0$zipClose
xdata	ENDS
;	COMDAT xdata
xdata	SEGMENT
$chain$3$zipClose DD 021H
	DD	imagerel $LN24@zipClose+54
	DD	imagerel $LN24@zipClose+87
	DD	imagerel $chain$1$zipClose
xdata	ENDS
;	COMDAT xdata
xdata	SEGMENT
$chain$2$zipClose DD 020521H
	DD	083405H
	DD	imagerel $LN24@zipClose+54
	DD	imagerel $LN24@zipClose+87
	DD	imagerel $chain$1$zipClose
xdata	ENDS
;	COMDAT xdata
xdata	SEGMENT
$chain$1$zipClose DD 020521H
	DD	0af405H
	DD	imagerel $LN24@zipClose+49
	DD	imagerel $LN24@zipClose+54
	DD	imagerel $chain$0$zipClose
xdata	ENDS
;	COMDAT xdata
xdata	SEGMENT
$chain$0$zipClose DD 020521H
	DD	09c405H
	DD	imagerel $LN24@zipClose
	DD	imagerel $LN24@zipClose+49
	DD	imagerel $unwind$zipClose
xdata	ENDS
;	COMDAT xdata
xdata	SEGMENT
$unwind$zipClose DD 060d01H
	DD	0b540dH
	DD	0e009320dH
	DD	060067007H
END
