; Listing generated by Microsoft (R) Optimizing Compiler Version 19.00.24210.0 

include listing.inc

INCLUDELIB OLDNAMES

PUBLIC	z_errmsg
PUBLIC	??_C@_0BA@MOKMMFOD@need?5dictionary?$AA@	; `string'
PUBLIC	??_C@_0L@FNAOCBOG@stream?5end?$AA@		; `string'
PUBLIC	??_C@_0L@KIJFAKBJ@file?5error?$AA@		; `string'
PUBLIC	??_C@_0N@MKKNPMJD@stream?5error?$AA@		; `string'
PUBLIC	??_C@_0L@HAHMBNLP@data?5error?$AA@		; `string'
PUBLIC	??_C@_0BE@OGGJBMCE@insufficient?5memory?$AA@	; `string'
PUBLIC	??_C@_0N@DFPGLBGC@buffer?5error?$AA@		; `string'
PUBLIC	??_C@_0BF@CJFPCCEG@incompatible?5version?$AA@	; `string'
;	COMDAT ??_C@_0BF@CJFPCCEG@incompatible?5version?$AA@
CONST	SEGMENT
??_C@_0BF@CJFPCCEG@incompatible?5version?$AA@ DB 'incompatible version', 00H ; `string'
CONST	ENDS
;	COMDAT ??_C@_0N@DFPGLBGC@buffer?5error?$AA@
CONST	SEGMENT
??_C@_0N@DFPGLBGC@buffer?5error?$AA@ DB 'buffer error', 00H ; `string'
CONST	ENDS
;	COMDAT ??_C@_0BE@OGGJBMCE@insufficient?5memory?$AA@
CONST	SEGMENT
??_C@_0BE@OGGJBMCE@insufficient?5memory?$AA@ DB 'insufficient memory', 00H ; `string'
CONST	ENDS
;	COMDAT ??_C@_0L@HAHMBNLP@data?5error?$AA@
CONST	SEGMENT
??_C@_0L@HAHMBNLP@data?5error?$AA@ DB 'data error', 00H	; `string'
CONST	ENDS
;	COMDAT ??_C@_0N@MKKNPMJD@stream?5error?$AA@
CONST	SEGMENT
??_C@_0N@MKKNPMJD@stream?5error?$AA@ DB 'stream error', 00H ; `string'
CONST	ENDS
;	COMDAT ??_C@_0L@KIJFAKBJ@file?5error?$AA@
CONST	SEGMENT
??_C@_0L@KIJFAKBJ@file?5error?$AA@ DB 'file error', 00H	; `string'
CONST	ENDS
;	COMDAT ??_C@_0L@FNAOCBOG@stream?5end?$AA@
CONST	SEGMENT
??_C@_0L@FNAOCBOG@stream?5end?$AA@ DB 'stream end', 00H	; `string'
CONST	ENDS
;	COMDAT ??_C@_0BA@MOKMMFOD@need?5dictionary?$AA@
CONST	SEGMENT
??_C@_0BA@MOKMMFOD@need?5dictionary?$AA@ DB 'need dictionary', 00H ; `string'
	ORG $+15
z_errmsg DQ	FLAT:??_C@_0BA@MOKMMFOD@need?5dictionary?$AA@
	DQ	FLAT:??_C@_0L@FNAOCBOG@stream?5end?$AA@
	DQ	FLAT:??_C@_00CNPNBAHC@?$AA@
	DQ	FLAT:??_C@_0L@KIJFAKBJ@file?5error?$AA@
	DQ	FLAT:??_C@_0N@MKKNPMJD@stream?5error?$AA@
	DQ	FLAT:??_C@_0L@HAHMBNLP@data?5error?$AA@
	DQ	FLAT:??_C@_0BE@OGGJBMCE@insufficient?5memory?$AA@
	DQ	FLAT:??_C@_0N@DFPGLBGC@buffer?5error?$AA@
	DQ	FLAT:??_C@_0BF@CJFPCCEG@incompatible?5version?$AA@
	DQ	FLAT:??_C@_00CNPNBAHC@?$AA@
PUBLIC	zError
PUBLIC	zlibCompileFlags
PUBLIC	zlibVersion
PUBLIC	zcfree
PUBLIC	zcalloc
END
