-----BEGIN PRIVATE KEY-----
MIIG/wIBADANBgkqhkiG9w0BAQEFAASCBukwggblAgEAAoIBgQDAfkvfgnT/+ATq
IiR5ksgGW4EJK900MkBsY9TXQcNdbrGqbyG4EwEvbDWzsAWBqgg76Alto7JgxKl2
gNskz3T007xycOVAy4z31gzEWMTx+GxNbCiicJfCZjw6Z4Ck/UipooXAAy/S7jwC
z369E4RGa5jsIxxJ+NdDqAheoROIeUKawkfF7xXTyzkwuTuNj2YcV/TvJcsGVGQT
j4tZVSbDVvL38PlQX62VoGmEDK8pl8GL2GUQK3y+gP2VFDHepGxqqXxPLITxpdBF
aIoQcY4YV+nJtNu8vlUzDMizCHKII+YP9JdstxOLCyEbmjLv3rk4tHgIJuOfOyRh
3KjIcdghmNZcZ7vOvpbr341gKBNRLVmsAxtJCqqMfWvNOc6rXfp20bCnL/SDDJeB
/71/KfVeVaffXRtfEWcwJW6YRp7p2MealzAsnUA5xscOKItYhvmJ1FJlUB8LDZ+d
WESld2a4CIdK9lpuf3LDqy+wmcGTdnoVoi2RT68SDYHAb/bbtx0CAwEAAQKCAYEA
qNuhjzYPkKNvHDxLJuKd2QXYEcWKzEjwvqRsh0/HI2UBMXM/bwws0/7mtPPKQM55
XqPT8XvR9JVP2wZ6NrZN8J71BqcGVGq7BIWeuXbtfR3hU6F3m9eNKRkp6En3TcRq
Q3SwQ5oID86wkf6XPSGrvWKRyUObg0BpBY6XmPtP+T32MXAQKg/rY9k4GAfFuA59
EowN7uOGT80j5Qzcvsa1tFHH3bxj2B+2VDVdmlrOJXxcamKvdRnQ2gSpbmdCv/4X
HKmRiP7m2qVMxRaNh3kcL/gACGvZw3rUE7K0PwjW+sQ6lRlWF9IqUSDZaswxWrie
EaM2et9qD80g3eUV3gMi6I8BIdmD20p/yqa/l0bQk75Y6KQRUlN5HTodFL1u4/7V
W9N9wVIlx5DB1yJBkCZBDoebr4Y1UOGs4rrkcOd6F+zCeRSwKPFAng5vHpZ8jclS
1X2pV/KnKWIUfcFH9+v6pD9Y+VC5tz5LgaFz4SYFxgMF69t+PCpdoR2+0zwSWKGB
AoHBAPr/bC0L7V/HXeoiNxXjOSAYDgyVvzZC3i8cbW2/7DqdY7DfDmZbabdEX1mu
kaY9S/5abVV5W1eQACh1Cd/MaRkUbm+5nTy/bF9jXfh8408MzrGbAR9KF9GfWgqC
UxRiAkCa2gLuAhfc6uqokf5yZK0F+kZGGYWEeGcFK46i+8JstqknW0LsN1hhd+wE
PFokf+/22NiV0t1T0GERz18fFu0XoQC60D9qaW56EI+6OTADw71XkVh35jbNBa96
bLPVzQKBwQDEVGMtpARdwoU59fRfDBo9S8iJJ/jTFpJs5nrqGZKah4J2pkTBiDpW
ZNxesVKL6IuvWghIuZGnBw5ovWT9JKQ2NHD4GDm/XJ6veVWOxc7THiBhCvJaG5N7
3Jbxyn+eJ5yBO9PeR6slZbDrgDSIFUI++XD9A7abod8eTZHh6Q3pYT5mRuvfuDS1
nlrkvMgGC1ZCQXCVTdq8MmMS9jea4UXhJLn4paGSKQSYXWLWVxTX3Mgk0640XpXN
HvsdCBMgFpECgcEAtESQkAXZ9Yk9tTPftlOcqqU8KeO/EhyScOmM2l8WLb7uY5DA
SdlrotlzVfjf2LJ7ivGtRs9DQC9HPcdZUSgBb6bR7mI0QPYGwreePSKNKzA6nyqB
ctSHKOG3DIcvXhtKHNZar/H7BOKAwgpR2JqWHgKGDsS3/cH3q531+5qpEKl9wx1m
GTmIQmy2cYdVRTSjwlfaxCtO5/ETXzQoaNvuXlgzJVAG0xT9JgB7No78FbUOd0WW
OSDb8g3sAGz/92UdAoHBAJqaOV9/gVC0FWWHIWCXjzIls00OhQr1A2luNeyTJrc5
bqswU4RzWj0eP8rxqCc0gIsdQtjCCMiW7enc+uG9MPLeaPd1XEQtE2jrC0zax/vI
BYdlr2L1xDYNh2/wHn7UgpHiIv0vQr64TZGl67gdxYUBuNAFVI9J8QFT5EUZ2TKm
uRShVK1fyWIbyUfGwVzBILQcBCQOoukAZLRR34e/Td/1o90B0THfyxaQs3xGJsu1
uIYHi28B7MUSWHyMF0N1gQKBwB9jtS7k7ZRgb0WzsgutRzJLfirmMeahzJwAQ46o
2xRT1y7vr0Idh9OSTz8Iqva6Frse21HT6agymamqEeC2aYwq+ikA0V7K3AhG3PiN
S5diC+RIZybeTthBTO1yj5pKDniZl+NGe3vIunXMrjZIuk/03VFK2etqdYcXguwH
SkwvuKqC3vvzcJW8dV2qIJ3Bz9LWz0QKqJQZBlCZvfzHf1jN5rpJJPQezys4k723
ZPGg6Smyks3ElGXevVdidVcPUA==
-----END PRIVATE KEY-----
Certificate:
    Data:
        Version: 3 (0x2)
        Serial Number:
            cb:2d:80:99:5a:69:52:5f
    Signature Algorithm: sha256WithRSAEncryption
        Issuer: C=XY, O=Python Software Foundation CA, CN=our-ca-server
        Validity
            Not Before: Aug 29 14:23:17 2018 GMT
            Not After : Jul  7 14:23:17 2028 GMT
        Subject: C=XY, L=Castle Anthrax, O=Python Software Foundation, CN=idnsans
        Subject Public Key Info:
            Public Key Algorithm: rsaEncryption
                Public-Key: (3072 bit)
                Modulus:
                    00:c0:7e:4b:df:82:74:ff:f8:04:ea:22:24:79:92:
                    c8:06:5b:81:09:2b:dd:34:32:40:6c:63:d4:d7:41:
                    c3:5d:6e:b1:aa:6f:21:b8:13:01:2f:6c:35:b3:b0:
                    05:81:aa:08:3b:e8:09:6d:a3:b2:60:c4:a9:76:80:
                    db:24:cf:74:f4:d3:bc:72:70:e5:40:cb:8c:f7:d6:
                    0c:c4:58:c4:f1:f8:6c:4d:6c:28:a2:70:97:c2:66:
                    3c:3a:67:80:a4:fd:48:a9:a2:85:c0:03:2f:d2:ee:
                    3c:02:cf:7e:bd:13:84:46:6b:98:ec:23:1c:49:f8:
                    d7:43:a8:08:5e:a1:13:88:79:42:9a:c2:47:c5:ef:
                    15:d3:cb:39:30:b9:3b:8d:8f:66:1c:57:f4:ef:25:
                    cb:06:54:64:13:8f:8b:59:55:26:c3:56:f2:f7:f0:
                    f9:50:5f:ad:95:a0:69:84:0c:af:29:97:c1:8b:d8:
                    65:10:2b:7c:be:80:fd:95:14:31:de:a4:6c:6a:a9:
                    7c:4f:2c:84:f1:a5:d0:45:68:8a:10:71:8e:18:57:
                    e9:c9:b4:db:bc:be:55:33:0c:c8:b3:08:72:88:23:
                    e6:0f:f4:97:6c:b7:13:8b:0b:21:1b:9a:32:ef:de:
                    b9:38:b4:78:08:26:e3:9f:3b:24:61:dc:a8:c8:71:
                    d8:21:98:d6:5c:67:bb:ce:be:96:eb:df:8d:60:28:
                    13:51:2d:59:ac:03:1b:49:0a:aa:8c:7d:6b:cd:39:
                    ce:ab:5d:fa:76:d1:b0:a7:2f:f4:83:0c:97:81:ff:
                    bd:7f:29:f5:5e:55:a7:df:5d:1b:5f:11:67:30:25:
                    6e:98:46:9e:e9:d8:c7:9a:97:30:2c:9d:40:39:c6:
                    c7:0e:28:8b:58:86:f9:89:d4:52:65:50:1f:0b:0d:
                    9f:9d:58:44:a5:77:66:b8:08:87:4a:f6:5a:6e:7f:
                    72:c3:ab:2f:b0:99:c1:93:76:7a:15:a2:2d:91:4f:
                    af:12:0d:81:c0:6f:f6:db:b7:1d
                Exponent: 65537 (0x10001)
        X509v3 extensions:
            X509v3 Subject Alternative Name: 
                DNS:idnsans, DNS:xn--knig-5qa.idn.pythontest.net, DNS:xn--knigsgsschen-lcb0w.idna2003.pythontest.net, DNS:xn--knigsgchen-b4a3dun.idna2008.pythontest.net, DNS:xn--nxasmq6b.idna2003.pythontest.net, DNS:xn--nxasmm1c.idna2008.pythontest.net
            X509v3 Key Usage: critical
                Digital Signature, Key Encipherment
            X509v3 Extended Key Usage: 
                TLS Web Server Authentication, TLS Web Client Authentication
            X509v3 Basic Constraints: critical
                CA:FALSE
            X509v3 Subject Key Identifier: 
                54:53:0C:3C:4C:E3:63:C6:56:08:35:9C:5E:F4:C1:A1:04:3A:C2:C9
            X509v3 Authority Key Identifier: 
                keyid:DD:BF:CA:DA:E6:D1:34:BA:37:75:21:CA:6F:9A:08:28:F2:35:B6:48
                DirName:/C=XY/O=Python Software Foundation CA/CN=our-ca-server
                serial:CB:2D:80:99:5A:69:52:5B

            Authority Information Access: 
                CA Issuers - URI:http://testca.pythontest.net/testca/pycacert.cer
                OCSP - URI:http://testca.pythontest.net/testca/ocsp/

            X509v3 CRL Distribution Points: 

                Full Name:
                  URI:http://testca.pythontest.net/testca/revocation.crl

    Signature Algorithm: sha256WithRSAEncryption
         03:af:93:ab:58:98:74:3c:a1:68:53:18:13:be:56:60:77:d0:
         a7:0e:c9:8a:02:1f:92:4d:21:18:61:d7:3e:9a:1d:aa:94:37:
         02:59:31:3b:71:62:d9:cb:04:e8:c7:44:41:f9:0e:0d:90:d1:
         4a:ab:4e:e2:bd:4e:60:1b:3c:eb:2a:b7:8a:ca:24:58:60:64:
         d3:a6:20:f6:f5:98:6e:ca:5a:0a:91:63:97:58:f5:18:90:9f:
         17:55:9f:12:cf:22:a7:31:e6:90:da:36:61:3b:d6:42:e6:18:
         19:43:bb:17:52:28:40:a5:11:47:7f:32:fe:83:3d:c3:7d:8b:
         17:1b:5d:f7:20:3e:bd:3b:16:3d:00:01:68:ed:76:7a:a1:af:
         ce:cd:dd:52:7f:19:22:db:83:c1:89:b6:90:02:4e:22:bc:b1:
         76:0c:00:ad:c5:3c:33:be:64:92:30:38:1f:b1:04:4f:53:a2:
         4a:fb:63:80:21:8b:03:72:72:4b:df:f1:9d:08:75:f0:94:06:
         d3:cb:7c:df:3b:80:19:58:7a:85:ca:2a:bf:b4:8c:5d:f3:b6:
         65:24:37:b2:1d:46:da:1f:39:48:f2:eb:3a:84:98:3a:0c:59:
         ff:0a:05:c2:2c:8c:b1:a5:a9:43:a9:8e:47:97:9a:d2:40:9c:
         b8:c3:e6:46:1b:db:4b:85:a3:e1:e7:4e:2a:1e:b9:a6:de:ee:
         a7:f0:63:3f:0f:e2:90:b6:82:70:4b:93:7f:e9:74:f3:ab:03:
         9e:04:38:f1:46:2d:f6:fe:77:0f:4a:8e:66:23:74:3e:c6:5b:
         eb:0e:dd:72:c3:46:1d:a4:f0:2f:b6:18:2e:f1:1c:f9:85:69:
         0e:5a:37:5e:f8:ea:4b:2d:e7:63:ee:a1:e4:b9:f7:fa:a9:11:
         65:64:a1:b7:b5:91:81:5c:4d:b5:27:b4:16:96:4b:df:fc:c4:
         8a:26:b6:87:62:54:88:fb:1d:7d:af:97:25:65:27:38:1e:f7:
         8c:a4:16:46:f2:d9
-----BEGIN CERTIFICATE-----
MIIGvTCCBSWgAwIBAgIJAMstgJlaaVJfMA0GCSqGSIb3DQEBCwUAME0xCzAJBgNV
BAYTAlhZMSYwJAYDVQQKDB1QeXRob24gU29mdHdhcmUgRm91bmRhdGlvbiBDQTEW
MBQGA1UEAwwNb3VyLWNhLXNlcnZlcjAeFw0xODA4MjkxNDIzMTdaFw0yODA3MDcx
NDIzMTdaMF0xCzAJBgNVBAYTAlhZMRcwFQYDVQQHDA5DYXN0bGUgQW50aHJheDEj
MCEGA1UECgwaUHl0aG9uIFNvZnR3YXJlIEZvdW5kYXRpb24xEDAOBgNVBAMMB2lk
bnNhbnMwggGiMA0GCSqGSIb3DQEBAQUAA4IBjwAwggGKAoIBgQDAfkvfgnT/+ATq
IiR5ksgGW4EJK900MkBsY9TXQcNdbrGqbyG4EwEvbDWzsAWBqgg76Alto7JgxKl2
gNskz3T007xycOVAy4z31gzEWMTx+GxNbCiicJfCZjw6Z4Ck/UipooXAAy/S7jwC
z369E4RGa5jsIxxJ+NdDqAheoROIeUKawkfF7xXTyzkwuTuNj2YcV/TvJcsGVGQT
j4tZVSbDVvL38PlQX62VoGmEDK8pl8GL2GUQK3y+gP2VFDHepGxqqXxPLITxpdBF
aIoQcY4YV+nJtNu8vlUzDMizCHKII+YP9JdstxOLCyEbmjLv3rk4tHgIJuOfOyRh
3KjIcdghmNZcZ7vOvpbr341gKBNRLVmsAxtJCqqMfWvNOc6rXfp20bCnL/SDDJeB
/71/KfVeVaffXRtfEWcwJW6YRp7p2MealzAsnUA5xscOKItYhvmJ1FJlUB8LDZ+d
WESld2a4CIdK9lpuf3LDqy+wmcGTdnoVoi2RT68SDYHAb/bbtx0CAwEAAaOCAo4w
ggKKMIHhBgNVHREEgdkwgdaCB2lkbnNhbnOCH3huLS1rbmlnLTVxYS5pZG4ucHl0
aG9udGVzdC5uZXSCLnhuLS1rbmlnc2dzc2NoZW4tbGNiMHcuaWRuYTIwMDMucHl0
aG9udGVzdC5uZXSCLnhuLS1rbmlnc2djaGVuLWI0YTNkdW4uaWRuYTIwMDgucHl0
aG9udGVzdC5uZXSCJHhuLS1ueGFzbXE2Yi5pZG5hMjAwMy5weXRob250ZXN0Lm5l
dIIkeG4tLW54YXNtbTFjLmlkbmEyMDA4LnB5dGhvbnRlc3QubmV0MA4GA1UdDwEB
/wQEAwIFoDAdBgNVHSUEFjAUBggrBgEFBQcDAQYIKwYBBQUHAwIwDAYDVR0TAQH/
BAIwADAdBgNVHQ4EFgQUVFMMPEzjY8ZWCDWcXvTBoQQ6wskwfQYDVR0jBHYwdIAU
3b/K2ubRNLo3dSHKb5oIKPI1tkihUaRPME0xCzAJBgNVBAYTAlhZMSYwJAYDVQQK
DB1QeXRob24gU29mdHdhcmUgRm91bmRhdGlvbiBDQTEWMBQGA1UEAwwNb3VyLWNh
LXNlcnZlcoIJAMstgJlaaVJbMIGDBggrBgEFBQcBAQR3MHUwPAYIKwYBBQUHMAKG
MGh0dHA6Ly90ZXN0Y2EucHl0aG9udGVzdC5uZXQvdGVzdGNhL3B5Y2FjZXJ0LmNl
cjA1BggrBgEFBQcwAYYpaHR0cDovL3Rlc3RjYS5weXRob250ZXN0Lm5ldC90ZXN0
Y2Evb2NzcC8wQwYDVR0fBDwwOjA4oDagNIYyaHR0cDovL3Rlc3RjYS5weXRob250
ZXN0Lm5ldC90ZXN0Y2EvcmV2b2NhdGlvbi5jcmwwDQYJKoZIhvcNAQELBQADggGB
AAOvk6tYmHQ8oWhTGBO+VmB30KcOyYoCH5JNIRhh1z6aHaqUNwJZMTtxYtnLBOjH
REH5Dg2Q0UqrTuK9TmAbPOsqt4rKJFhgZNOmIPb1mG7KWgqRY5dY9RiQnxdVnxLP
Iqcx5pDaNmE71kLmGBlDuxdSKEClEUd/Mv6DPcN9ixcbXfcgPr07Fj0AAWjtdnqh
r87N3VJ/GSLbg8GJtpACTiK8sXYMAK3FPDO+ZJIwOB+xBE9Tokr7Y4AhiwNyckvf
8Z0IdfCUBtPLfN87gBlYeoXKKr+0jF3ztmUkN7IdRtofOUjy6zqEmDoMWf8KBcIs
jLGlqUOpjkeXmtJAnLjD5kYb20uFo+HnTioeuabe7qfwYz8P4pC2gnBLk3/pdPOr
A54EOPFGLfb+dw9KjmYjdD7GW+sO3XLDRh2k8C+2GC7xHPmFaQ5aN1746kst52Pu
oeS59/qpEWVkobe1kYFcTbUntBaWS9/8xIomtodiVIj7HX2vlyVlJzge94ykFkby
2Q==
-----END CERTIFICATE-----
