-----BEGIN PRIVATE KEY-----
MIIEvwIBADANBgkqhkiG9w0BAQEFAASCBKkwggSlAgEAAoIBAQDeU8YQtyeEjPLA
SdMBPTS9QcuAZIJjbJRgr8nsRb767pbmWR9C1JuDy/Bz/AprFC6Om950fLn3pOqR
zDUWZX/qTe+o27i8u0Qzk06bhRkxAdTEoTfRcH/FkJaimJqeTt9rZqc+AGSNKM8o
4GyPW4IELnavmMB30+7rKIJMIpIn1a1k6MybJYdWNSuVqwArAVvRlj5qOiqX7KAS
otFRP8pz+Lgw3qREQzgnZz/bcScKd+5Uy4qMFPNOMjgW6nDV60ekNx0GT+59E/+8
64GRq34rNVu2SN0XXcQh33R3LwwrvAdymaLyr1YyIRM5gLPxugxCIA0SYjG0YoGB
uUSwtNa7AgMBAAECggEBAJjxUGPXW1wYCja1km5byJgZVwEwI3J6E2igBWyAXm0J
DM3RqWu0DneQKA3h6NjYvV5lY5cG5nex/5vkuvB5SpHIo4GqBV/wA27ne0AJQ9cu
x0utDFUL6xnh6X5ZNKSK5a9gotRIOOPSmxAnswa7kKmHvSX3ExBbvxQOffQaJCk5
0GHl6I/HltqVzMu4ICAo0NY0gw1n+hVKTo28KkJ9PL7X6v6H5yvZ3L6TkMytSvqf
9iVlYuIN66ToBtxaI4g2RiUJtA2hdT9IP7Wg4YD6Ptyih90zXz2wTzWppFem6UA9
dePig94R9moj9ucuK0tx3kSATNo0op/XEx1e3OOtcQECgYEA/w7pNOPYgj7VMyYx
p4Lx4BOllzQts8mIBtUVZVQSJ2miun6DTalZVT2V3ayTuE0qhUHd1SHu9F77a9fQ
qaSUUY9elwXyfvcNCfhYVRJxyxirI4Z6ZCBwjpWOGSBB59NTeDhVnbkTlfE6guqS
3KRS1pfIQ6FCvGIrhjRZgHo1TGECgYEA3yXsospbOS7VeBj0UPSB87fp1QM+r48o
RflIsRzdsN9Ka2j6EiYpgKdbgXr80vkctYTK0dT8jrFSk81Y932CZezH2IWo8Meo
40qaFWMboNFBIC4yv6RSRxJMQfYsKnXC2trSnXH+qf55Trey4uZNMX7VJ+RFKExS
ieSWSbTWmJsCgYEAzo3yyoRiiEf+PKgHulLPMtp2VddJ07m30WCrLR5CfWyM/l8K
UtB8qg1v2s+x6aWEc9p9necXLwvkrNdgAqJoAw0KW1/TnILSKmrWjj6brRBTODfl
0kR7It128F4xQV7g0BE/NLX3aIytB+yT9t+Uvni5FBv6gbk26j5m5ScTFsECgYEA
hzrQYQcIqWq8av+Ub8r9Rdlal4BT6Mh0u5MKfmrj3mAzFUyU35LI6/J//cOum5vj
zg0fbHIKa98CEBgNpk4lS+dmZMz7SI92xedb4UIiaB7nvLzCfGj0g6WPGRo6QbED
2OVrZYbDsflJQm8ItYCjny8htf8b+gPmsTIZ8ajps6kCgYBnES8waDDAkL98lK28
dcgnJXN+1UzeI6//If2uvDZEQ9tG/yMk2JYc84qZJLU5bRplMAjIQUVUcFWa+ZzV
ylnDhagAtiWkHPcElWHym9dH8CRuYM3OTDsApZ7yMB/ArCcZMIA35OvNf6uc4lNV
VD9VkaygPIg6ilv4npeTceqp8A==
-----END PRIVATE KEY-----
Certificate:
    Data:
        Version: 3 (0x2)
        Serial Number:
            82:ed:bf:41:c8:80:91:9f
    Signature Algorithm: sha1WithRSAEncryption
        Issuer: C=XY, O=Python Software Foundation CA, CN=our-ca-server
        Validity
            Not Before: Jan 19 19:09:07 2018 GMT
            Not After : Nov 28 19:09:07 2027 GMT
        Subject: C=XY, L=Castle Anthrax, O=Python Software Foundation, CN=idnsans
        Subject Public Key Info:
            Public Key Algorithm: rsaEncryption
                Public-Key: (2048 bit)
                Modulus:
                    00:de:53:c6:10:b7:27:84:8c:f2:c0:49:d3:01:3d:
                    34:bd:41:cb:80:64:82:63:6c:94:60:af:c9:ec:45:
                    be:fa:ee:96:e6:59:1f:42:d4:9b:83:cb:f0:73:fc:
                    0a:6b:14:2e:8e:9b:de:74:7c:b9:f7:a4:ea:91:cc:
                    35:16:65:7f:ea:4d:ef:a8:db:b8:bc:bb:44:33:93:
                    4e:9b:85:19:31:01:d4:c4:a1:37:d1:70:7f:c5:90:
                    96:a2:98:9a:9e:4e:df:6b:66:a7:3e:00:64:8d:28:
                    cf:28:e0:6c:8f:5b:82:04:2e:76:af:98:c0:77:d3:
                    ee:eb:28:82:4c:22:92:27:d5:ad:64:e8:cc:9b:25:
                    87:56:35:2b:95:ab:00:2b:01:5b:d1:96:3e:6a:3a:
                    2a:97:ec:a0:12:a2:d1:51:3f:ca:73:f8:b8:30:de:
                    a4:44:43:38:27:67:3f:db:71:27:0a:77:ee:54:cb:
                    8a:8c:14:f3:4e:32:38:16:ea:70:d5:eb:47:a4:37:
                    1d:06:4f:ee:7d:13:ff:bc:eb:81:91:ab:7e:2b:35:
                    5b:b6:48:dd:17:5d:c4:21:df:74:77:2f:0c:2b:bc:
                    07:72:99:a2:f2:af:56:32:21:13:39:80:b3:f1:ba:
                    0c:42:20:0d:12:62:31:b4:62:81:81:b9:44:b0:b4:
                    d6:bb
                Exponent: 65537 (0x10001)
        X509v3 extensions:
            X509v3 Subject Alternative Name: 
                DNS:idnsans, DNS:xn--knig-5qa.idn.pythontest.net, DNS:xn--knigsgsschen-lcb0w.idna2003.pythontest.net, DNS:xn--knigsgchen-b4a3dun.idna2008.pythontest.net, DNS:xn--nxasmq6b.idna2003.pythontest.net, DNS:xn--nxasmm1c.idna2008.pythontest.net
            X509v3 Key Usage: critical
                Digital Signature, Key Encipherment
            X509v3 Extended Key Usage: 
                TLS Web Server Authentication, TLS Web Client Authentication
            X509v3 Basic Constraints: critical
                CA:FALSE
            X509v3 Subject Key Identifier: 
                3B:F0:22:A0:1E:9B:CE:2A:7C:AE:B1:32:1B:B0:8E:3E:33:40:E3:FA
            X509v3 Authority Key Identifier: 
                keyid:9A:CF:CF:6E:EB:71:3D:DB:3C:F1:AE:88:6B:56:72:03:CB:08:A7:48
                DirName:/C=XY/O=Python Software Foundation CA/CN=our-ca-server
                serial:82:ED:BF:41:C8:80:91:9B

            Authority Information Access: 
                CA Issuers - URI:http://testca.pythontest.net/testca/pycacert.cer
                OCSP - URI:http://testca.pythontest.net/testca/ocsp/

            X509v3 CRL Distribution Points: 

                Full Name:
                  URI:http://testca.pythontest.net/testca/revocation.crl

    Signature Algorithm: sha1WithRSAEncryption
         8b:1f:d7:e4:0d:15:76:b4:f5:87:33:de:b9:84:9b:f2:c1:9b:
         c9:97:50:f7:18:33:ed:b7:60:83:be:bb:94:1c:49:39:ae:54:
         24:43:f7:85:d8:2a:8c:26:17:56:1e:a6:b7:63:c5:05:f1:6e:
         f4:79:eb:fd:af:12:84:3c:28:4a:8f:b1:01:97:91:ba:18:2b:
         ba:54:25:49:1b:5b:2e:1e:6b:33:2d:f5:07:2e:76:04:e0:a8:
         95:25:3f:cc:c8:26:c0:30:b6:90:d2:2b:e1:e2:13:b0:a8:76:
         f0:06:90:b9:d5:28:6b:8a:e9:72:1a:ed:4f:7e:3c:37:2e:00:
         aa:9b:f1:29:44:94:f2:dc:c8:31:5f:4c:2d:00:d3:5e:78:6c:
         68:fc:0e:1e:46:be:d8:2e:29:88:78:8e:7e:f5:50:c8:5c:5d:
         5f:4c:09:d5:51:07:40:be:9b:30:ed:a3:29:68:25:6b:88:69:
         c7:43:35:54:2f:6e:9a:30:f1:d6:87:54:84:20:ef:a5:aa:33:
         df:00:6a:87:a9:b4:d7:89:1f:e7:60:0d:01:60:66:11:61:3f:
         d0:9f:86:37:cc:b3:b8:48:7e:1f:d2:7a:0f:02:e7:11:1d:dd:
         34:c4:0b:45:47:2b:05:37:dd:ee:6e:0e:1c:bd:de:24:42:50:
         a4:07:af:e5
-----BEGIN CERTIFICATE-----
MIIFvTCCBKWgAwIBAgIJAILtv0HIgJGfMA0GCSqGSIb3DQEBBQUAME0xCzAJBgNV
BAYTAlhZMSYwJAYDVQQKDB1QeXRob24gU29mdHdhcmUgRm91bmRhdGlvbiBDQTEW
MBQGA1UEAwwNb3VyLWNhLXNlcnZlcjAeFw0xODAxMTkxOTA5MDdaFw0yNzExMjgx
OTA5MDdaMF0xCzAJBgNVBAYTAlhZMRcwFQYDVQQHDA5DYXN0bGUgQW50aHJheDEj
MCEGA1UECgwaUHl0aG9uIFNvZnR3YXJlIEZvdW5kYXRpb24xEDAOBgNVBAMMB2lk
bnNhbnMwggEiMA0GCSqGSIb3DQEBAQUAA4IBDwAwggEKAoIBAQDeU8YQtyeEjPLA
SdMBPTS9QcuAZIJjbJRgr8nsRb767pbmWR9C1JuDy/Bz/AprFC6Om950fLn3pOqR
zDUWZX/qTe+o27i8u0Qzk06bhRkxAdTEoTfRcH/FkJaimJqeTt9rZqc+AGSNKM8o
4GyPW4IELnavmMB30+7rKIJMIpIn1a1k6MybJYdWNSuVqwArAVvRlj5qOiqX7KAS
otFRP8pz+Lgw3qREQzgnZz/bcScKd+5Uy4qMFPNOMjgW6nDV60ekNx0GT+59E/+8
64GRq34rNVu2SN0XXcQh33R3LwwrvAdymaLyr1YyIRM5gLPxugxCIA0SYjG0YoGB
uUSwtNa7AgMBAAGjggKOMIICijCB4QYDVR0RBIHZMIHWggdpZG5zYW5zgh94bi0t
a25pZy01cWEuaWRuLnB5dGhvbnRlc3QubmV0gi54bi0ta25pZ3Nnc3NjaGVuLWxj
YjB3LmlkbmEyMDAzLnB5dGhvbnRlc3QubmV0gi54bi0ta25pZ3NnY2hlbi1iNGEz
ZHVuLmlkbmEyMDA4LnB5dGhvbnRlc3QubmV0giR4bi0tbnhhc21xNmIuaWRuYTIw
MDMucHl0aG9udGVzdC5uZXSCJHhuLS1ueGFzbW0xYy5pZG5hMjAwOC5weXRob250
ZXN0Lm5ldDAOBgNVHQ8BAf8EBAMCBaAwHQYDVR0lBBYwFAYIKwYBBQUHAwEGCCsG
AQUFBwMCMAwGA1UdEwEB/wQCMAAwHQYDVR0OBBYEFDvwIqAem84qfK6xMhuwjj4z
QOP6MH0GA1UdIwR2MHSAFJrPz27rcT3bPPGuiGtWcgPLCKdIoVGkTzBNMQswCQYD
VQQGEwJYWTEmMCQGA1UECgwdUHl0aG9uIFNvZnR3YXJlIEZvdW5kYXRpb24gQ0Ex
FjAUBgNVBAMMDW91ci1jYS1zZXJ2ZXKCCQCC7b9ByICRmzCBgwYIKwYBBQUHAQEE
dzB1MDwGCCsGAQUFBzAChjBodHRwOi8vdGVzdGNhLnB5dGhvbnRlc3QubmV0L3Rl
c3RjYS9weWNhY2VydC5jZXIwNQYIKwYBBQUHMAGGKWh0dHA6Ly90ZXN0Y2EucHl0
aG9udGVzdC5uZXQvdGVzdGNhL29jc3AvMEMGA1UdHwQ8MDowOKA2oDSGMmh0dHA6
Ly90ZXN0Y2EucHl0aG9udGVzdC5uZXQvdGVzdGNhL3Jldm9jYXRpb24uY3JsMA0G
CSqGSIb3DQEBBQUAA4IBAQCLH9fkDRV2tPWHM965hJvywZvJl1D3GDPtt2CDvruU
HEk5rlQkQ/eF2CqMJhdWHqa3Y8UF8W70eev9rxKEPChKj7EBl5G6GCu6VCVJG1su
HmszLfUHLnYE4KiVJT/MyCbAMLaQ0ivh4hOwqHbwBpC51ShriulyGu1Pfjw3LgCq
m/EpRJTy3MgxX0wtANNeeGxo/A4eRr7YLimIeI5+9VDIXF1fTAnVUQdAvpsw7aMp
aCVriGnHQzVUL26aMPHWh1SEIO+lqjPfAGqHqbTXiR/nYA0BYGYRYT/Qn4Y3zLO4
SH4f0noPAucRHd00xAtFRysFN93ubg4cvd4kQlCkB6/l
-----END CERTIFICATE-----
