-----BEGIN PRIVATE KEY-----
MIIG/gIBADANBgkqhkiG9w0BAQEFAASCBugwggbkAgEAAoIBgQDFtLOteQlQojN7
ztkux7m0hmGKkP1hh0hbKqTcD87jkLAqAwZWenjZMjCbbZ3vP+AObCIkYIKzPXY7
Yi+H5M3O2mXIDxoHGjL/GWtoEyDNXvm9UC+MRuSOq2MaLHHQG0Rx2TxcYrMVUM7b
93rpN1LGRrCv1gISXM4EvEJooAR7Aadj0pG/o0fqDAdFjH6QZbhn1iZle+eGbjcf
dgH/H0F8dn1PPGoViHXicbsQ4kB6002Pf+aXP4b2QKAbflyNHEKHPHEOOTXrFjMd
c+bqKW24epEsMZI59qx9hU/4Rvp3/v+vEwTL7Nm7ilptzZn2cvGCW39LC0nNYLOz
kO3H8xwA75h6uykdB+WO/v2CKIK9M/ZO+9QNrmaokfKDamCk39b8hlCwNL6LsVpv
d3XTS5Wn4YWn92EqiltUJJoPo7pc7VTdWCg4zVFn4Q8Zh4NFNn/qTB8lEMgrsNTV
5cyZ7zhoBiUMSO45bmo2NsnE7ce/JUhlqe5uh0PT1MIBgTV+oDMCAwEAAQKCAYEA
udsy4gwblqK0tVnxz0lQqYV+os3EdO/BNHr1Oi7eNg2pngTz603812mYSjUVOHma
vtQmkH3twGQyBoc52Y1dcGzdK+IOfMjDUg7qao840ffL3I1J9ZwbdodlhZBsec94
W3J1jP/4DDzICf8vm5g3h0+i/9m2Xt7BibAU2dg7/grC+lNUUoxDqaEfIOF/hW0q
muq1c8e0EisAROIh5FzUqhWVnWxU6eM7tuFlkuyu4whLLHB3LI466Lo+CTqT9M+v
jJYlvS5+AZW3qMBp6WOI8C+VIiBL178mo+Igkyyy5AYXcWeNkjp6ygRWvtWXIhCv
CI29mf+BP/54jAY0rQRXJ2UcSHXmM6PTDkE/L2OKeiY1Ou8gLOwun3yBVdbkXJMb
PWmUW4N8qSIJQ+vE2TDqmkqAT6m+ilzOXl1O+LLTvGyMnOiiSLXK9mC4ND3tqaQu
hvKivnI1doErcWUaIf1DHiJmLrGxrTCUKjCEoefqVq2/dDdtCfx7CqUvjl3DYKMB
AoHBAP+Vdi6D07gZFepEGCaJ+YH6cxEyO73CNnea/F1whVAzOv91kHS32jC9PAI3
/wYlX+DLcN9mVF/q62V4SLZYfOxTPW4vWO0A45URe9s9Z795fdAcQ5jt3QFOVSnk
3XSaCkIOwckuwabGJi4+foiUEOnLLzQi1/g7x12dwejxVNhqhz5KFkOQPv8fQRed
sb5LVLYDeprsB2Vsx0fHwg4z9FvTIxLBeI7+sJD30lNpYZrCl/T9x4e1SV2Rwn2W
bghxgQKBwQDGBx07biZK9RB5g4qPl+G6vz0M+/KBfpwQbMYxSyct7u6gfGD9mWBO
qocIIr39Unac3kUL237Cn3HbgiGCRe7Mwd7XqnSSGWM5oWSlVQxEKTXYUlTbd9O9
DKuyQGOl/AMEwD4ZbEOfQNmnd1U4nh1AV052FQY8Ry/atGFT9fApA/5X/bbenOwQ
YGDsokLzPf2BIDncpE+VNevUMoMI7EnySgjjfpL+cRld0qpLqBMo2h5VddeJ/5YM
1YcNfMQiw7MCgcEAwXqXuKa7A8aZvHpH/gS9CRRbP01TxFbdfLWrDeE8SnY9111c
Ob9kQTk/0D4rpK9uYXIgxD1m6iWghXQFN2TNTOnGuz7EhsYBgrt1k4Zsn5qND5oV
4hNPFsoB1nEW5EooMdGSCYaHuoSOKrvMdgAAvbu+xC0MaTJ3vfrK7Fik7h/WueTD
7emohuFWGVabU38bZZ5EljrPboxmX4Rs9uuFtG2lQ3GKnlVXvKaeZd6EsO9WsXPc
NHOcUmUhYokaSvIBAoHAGCxGJTsM8Zl4qVylTWH87A7sJOmccLJD2r1sdBf4cGL6
PhzwugQ+/VtToGqdRo8Ka5u2Ufw5PQi5nVIFRSHERLpluW3VTQBMXHyXDJeVJ7zg
Fcf3E9NMxYcGbnvtrhVVSP8ulWvh1U7VQtwOSxsB9xixOzjVygXmkYvzVYxwBJG4
OoV+DS6aomUhb8Fe6tJmX5zPc1+bV1t9ril8VVqCrFDdROfuiaDEt+8/Wnzp2dLG
YShBZ1cLugVWtw7D4nqBAoHAF29k64iAxY5Y4OOibVkqjUCPyqG2oxiXqgO7CxZp
FGUat5UtV2mIBlSENs1o5AZ1nPlgWtPtg0xVCaG2t/Rq7ugvUfAnAhUK6zX8FS+T
gCXE+7iKuuIJiCo13/iAwF/CLfuXvj4CZ71ta0wX9w99f1FcPEk0x+ytiyuWJK8K
tyubL34JwNrnkh/8e3LcV3L88Sk9ZmxeTz31f3cA3Fy2ZJOAUMD9dKXeKtY7azzt
MkhXedRsdLSKqMh0VGeGHoLS
-----END PRIVATE KEY-----
Certificate:
    Data:
        Version: 3 (0x2)
        Serial Number:
            cb:2d:80:99:5a:69:52:5c
        Signature Algorithm: sha256WithRSAEncryption
        Issuer: C=XY, O=Python Software Foundation CA, CN=our-ca-server
        Validity
            Not Before: Aug 29 14:23:16 2018 GMT
            Not After : Oct 28 14:23:16 2037 GMT
        Subject: C=XY, L=Castle Anthrax, O=Python Software Foundation, CN=localhost
        Subject Public Key Info:
            Public Key Algorithm: rsaEncryption
                RSA Public-Key: (3072 bit)
                Modulus:
                    00:c5:b4:b3:ad:79:09:50:a2:33:7b:ce:d9:2e:c7:
                    b9:b4:86:61:8a:90:fd:61:87:48:5b:2a:a4:dc:0f:
                    ce:e3:90:b0:2a:03:06:56:7a:78:d9:32:30:9b:6d:
                    9d:ef:3f:e0:0e:6c:22:24:60:82:b3:3d:76:3b:62:
                    2f:87:e4:cd:ce:da:65:c8:0f:1a:07:1a:32:ff:19:
                    6b:68:13:20:cd:5e:f9:bd:50:2f:8c:46:e4:8e:ab:
                    63:1a:2c:71:d0:1b:44:71:d9:3c:5c:62:b3:15:50:
                    ce:db:f7:7a:e9:37:52:c6:46:b0:af:d6:02:12:5c:
                    ce:04:bc:42:68:a0:04:7b:01:a7:63:d2:91:bf:a3:
                    47:ea:0c:07:45:8c:7e:90:65:b8:67:d6:26:65:7b:
                    e7:86:6e:37:1f:76:01:ff:1f:41:7c:76:7d:4f:3c:
                    6a:15:88:75:e2:71:bb:10:e2:40:7a:d3:4d:8f:7f:
                    e6:97:3f:86:f6:40:a0:1b:7e:5c:8d:1c:42:87:3c:
                    71:0e:39:35:eb:16:33:1d:73:e6:ea:29:6d:b8:7a:
                    91:2c:31:92:39:f6:ac:7d:85:4f:f8:46:fa:77:fe:
                    ff:af:13:04:cb:ec:d9:bb:8a:5a:6d:cd:99:f6:72:
                    f1:82:5b:7f:4b:0b:49:cd:60:b3:b3:90:ed:c7:f3:
                    1c:00:ef:98:7a:bb:29:1d:07:e5:8e:fe:fd:82:28:
                    82:bd:33:f6:4e:fb:d4:0d:ae:66:a8:91:f2:83:6a:
                    60:a4:df:d6:fc:86:50:b0:34:be:8b:b1:5a:6f:77:
                    75:d3:4b:95:a7:e1:85:a7:f7:61:2a:8a:5b:54:24:
                    9a:0f:a3:ba:5c:ed:54:dd:58:28:38:cd:51:67:e1:
                    0f:19:87:83:45:36:7f:ea:4c:1f:25:10:c8:2b:b0:
                    d4:d5:e5:cc:99:ef:38:68:06:25:0c:48:ee:39:6e:
                    6a:36:36:c9:c4:ed:c7:bf:25:48:65:a9:ee:6e:87:
                    43:d3:d4:c2:01:81:35:7e:a0:33
                Exponent: 65537 (0x10001)
        X509v3 extensions:
            X509v3 Subject Alternative Name: 
                DNS:localhost
            X509v3 Key Usage: critical
                Digital Signature, Key Encipherment
            X509v3 Extended Key Usage: 
                TLS Web Server Authentication, TLS Web Client Authentication
            X509v3 Basic Constraints: critical
                CA:FALSE
            X509v3 Subject Key Identifier: 
                85:75:10:25:D0:2C:80:50:24:1A:5B:57:70:DE:B5:CB:71:A9:3B:7B
            X509v3 Authority Key Identifier: 
                keyid:B3:8A:A0:A2:BA:71:F1:A8:24:79:D4:A4:5B:25:36:15:1E:49:C8:CD
                DirName:/C=XY/O=Python Software Foundation CA/CN=our-ca-server
                serial:CB:2D:80:99:5A:69:52:5B

            Authority Information Access: 
                CA Issuers - URI:http://testca.pythontest.net/testca/pycacert.cer
                OCSP - URI:http://testca.pythontest.net/testca/ocsp/

            X509v3 CRL Distribution Points: 

                Full Name:
                  URI:http://testca.pythontest.net/testca/revocation.crl

    Signature Algorithm: sha256WithRSAEncryption
         95:f3:56:bb:d5:8c:70:bd:d1:de:da:63:b0:29:d7:db:60:27:
         d6:59:fd:61:1b:30:c6:d0:5d:73:7d:34:e1:68:e3:28:a6:89:
         e6:60:bd:89:d3:0e:f4:72:ad:72:76:f8:86:21:fd:75:3c:f8:
         6d:be:9c:04:e1:82:03:69:6c:ae:d0:55:ba:5e:f2:ca:f5:0f:
         8e:d6:d9:8d:c8:56:46:f4:f8:ac:74:2a:19:7b:8e:47:70:1f:
         fb:fb:bd:69:02:a1:a5:4a:6e:21:1c:04:14:15:55:bf:bf:24:
         43:c8:17:03:be:3e:2c:ea:db:c8:af:1d:fd:52:df:d6:15:49:
         9e:c2:44:69:ef:f1:45:43:83:b2:1e:cf:14:1c:13:3f:fe:9c:
         71:cb:e7:1b:18:56:36:a7:af:44:f1:0b:a1:79:44:46:f9:43:
         46:29:d8:b0:ca:49:4d:65:60:d3:f6:8e:74:bc:62:9e:1e:8d:
         4b:29:9a:b4:0d:f0:a2:77:5b:34:e4:11:2f:a7:25:c5:e5:07:
         76:12:ae:be:75:73:15:e4:0a:7d:53:38:56:3f:79:6d:6e:ca:
         ed:80:ab:56:ed:7e:8b:1c:e7:e3:d4:62:30:22:70:e7:29:b2:
         03:3c:fe:fa:3d:f0:36:c0:4d:11:a2:99:d3:29:31:27:b8:c5:
         b8:15:a3:3c:4f:9b:73:5e:2b:b2:fb:cb:fd:75:47:b8:17:bd:
         21:d8:e6:c1:b9:ff:73:81:d8:25:08:6d:08:5e:1c:a5:83:50:
         de:67:e6:da:d0:8e:5a:d3:f2:2a:b1:3f:b8:80:21:07:6a:71:
         15:6d:05:eb:51:b3:59:8d:d4:15:46:7e:02:a8:13:01:16:99:
         bd:03:cc:70:71:2a:23:16:78:af:d1:d5:01:9d:04:b4:63:93:
         9a:04:3a:92:2e:e6:7e:73:93:a5:fe:50:9b:bd:0e:ea:54:86:
         6f:7c:e5:14:77:fe:c2:28:5a:4a:0e:d7:2d:8c:e9:ed:61:29:
         b2:53:ff:6c:04:bc
-----BEGIN CERTIFICATE-----
MIIF8TCCBFmgAwIBAgIJAMstgJlaaVJcMA0GCSqGSIb3DQEBCwUAME0xCzAJBgNV
BAYTAlhZMSYwJAYDVQQKDB1QeXRob24gU29mdHdhcmUgRm91bmRhdGlvbiBDQTEW
MBQGA1UEAwwNb3VyLWNhLXNlcnZlcjAeFw0xODA4MjkxNDIzMTZaFw0zNzEwMjgx
NDIzMTZaMF8xCzAJBgNVBAYTAlhZMRcwFQYDVQQHDA5DYXN0bGUgQW50aHJheDEj
MCEGA1UECgwaUHl0aG9uIFNvZnR3YXJlIEZvdW5kYXRpb24xEjAQBgNVBAMMCWxv
Y2FsaG9zdDCCAaIwDQYJKoZIhvcNAQEBBQADggGPADCCAYoCggGBAMW0s615CVCi
M3vO2S7HubSGYYqQ/WGHSFsqpNwPzuOQsCoDBlZ6eNkyMJttne8/4A5sIiRggrM9
djtiL4fkzc7aZcgPGgcaMv8Za2gTIM1e+b1QL4xG5I6rYxoscdAbRHHZPFxisxVQ
ztv3euk3UsZGsK/WAhJczgS8QmigBHsBp2PSkb+jR+oMB0WMfpBluGfWJmV754Zu
Nx92Af8fQXx2fU88ahWIdeJxuxDiQHrTTY9/5pc/hvZAoBt+XI0cQoc8cQ45NesW
Mx1z5uopbbh6kSwxkjn2rH2FT/hG+nf+/68TBMvs2buKWm3NmfZy8YJbf0sLSc1g
s7OQ7cfzHADvmHq7KR0H5Y7+/YIogr0z9k771A2uZqiR8oNqYKTf1vyGULA0voux
Wm93ddNLlafhhaf3YSqKW1Qkmg+julztVN1YKDjNUWfhDxmHg0U2f+pMHyUQyCuw
1NXlzJnvOGgGJQxI7jluajY2ycTtx78lSGWp7m6HQ9PUwgGBNX6gMwIDAQABo4IB
wDCCAbwwFAYDVR0RBA0wC4IJbG9jYWxob3N0MA4GA1UdDwEB/wQEAwIFoDAdBgNV
HSUEFjAUBggrBgEFBQcDAQYIKwYBBQUHAwIwDAYDVR0TAQH/BAIwADAdBgNVHQ4E
FgQUhXUQJdAsgFAkGltXcN61y3GpO3swfQYDVR0jBHYwdIAUs4qgorpx8agkedSk
WyU2FR5JyM2hUaRPME0xCzAJBgNVBAYTAlhZMSYwJAYDVQQKDB1QeXRob24gU29m
dHdhcmUgRm91bmRhdGlvbiBDQTEWMBQGA1UEAwwNb3VyLWNhLXNlcnZlcoIJAMst
gJlaaVJbMIGDBggrBgEFBQcBAQR3MHUwPAYIKwYBBQUHMAKGMGh0dHA6Ly90ZXN0
Y2EucHl0aG9udGVzdC5uZXQvdGVzdGNhL3B5Y2FjZXJ0LmNlcjA1BggrBgEFBQcw
AYYpaHR0cDovL3Rlc3RjYS5weXRob250ZXN0Lm5ldC90ZXN0Y2Evb2NzcC8wQwYD
VR0fBDwwOjA4oDagNIYyaHR0cDovL3Rlc3RjYS5weXRob250ZXN0Lm5ldC90ZXN0
Y2EvcmV2b2NhdGlvbi5jcmwwDQYJKoZIhvcNAQELBQADggGBAJXzVrvVjHC90d7a
Y7Ap19tgJ9ZZ/WEbMMbQXXN9NOFo4yimieZgvYnTDvRyrXJ2+IYh/XU8+G2+nATh
ggNpbK7QVbpe8sr1D47W2Y3IVkb0+Kx0Khl7jkdwH/v7vWkCoaVKbiEcBBQVVb+/
JEPIFwO+Pizq28ivHf1S39YVSZ7CRGnv8UVDg7IezxQcEz/+nHHL5xsYVjanr0Tx
C6F5REb5Q0Yp2LDKSU1lYNP2jnS8Yp4ejUspmrQN8KJ3WzTkES+nJcXlB3YSrr51
cxXkCn1TOFY/eW1uyu2Aq1btfosc5+PUYjAicOcpsgM8/vo98DbATRGimdMpMSe4
xbgVozxPm3NeK7L7y/11R7gXvSHY5sG5/3OB2CUIbQheHKWDUN5n5trQjlrT8iqx
P7iAIQdqcRVtBetRs1mN1BVGfgKoEwEWmb0DzHBxKiMWeK/R1QGdBLRjk5oEOpIu
5n5zk6X+UJu9DupUhm985RR3/sIoWkoO1y2M6e1hKbJT/2wEvA==
-----END CERTIFICATE-----
