-----BEGIN PRIVATE KEY-----
MIG2AgEAMBAGByqGSM49AgEGBSuBBAAiBIGeMIGbAgEBBDBcNwE+cm17mmr7Yg6d
0DNCnheGFOjkYH4tYzTyCkcZGShkmF/tKhIqb3imKz0Kx9+hZANiAATyp8ws6CuN
OI2/3MC4jZVSkmoDzm/X/ZrkEm4TVHKPSZ6kzZRpmmUlLS9l7SQZSLYyDAFBFzoG
JJYHhZNQXEO7HFszn6KnvLjhwS6ddzlaHPziEknrSr0OKhJmdJHrQAQ=
-----END PRIVATE KEY-----
Certificate:
    Data:
        Version: 3 (0x2)
        Serial Number:
            cb:2d:80:99:5a:69:52:5e
        Signature Algorithm: sha256WithRSAEncryption
        Issuer: C=XY, O=Python Software Foundation CA, CN=our-ca-server
        Validity
            Not Before: Aug 29 14:23:16 2018 GMT
            Not After : Oct 28 14:23:16 2037 GMT
        Subject: C=XY, L=Castle Anthrax, O=Python Software Foundation, CN=localhost-ecc
        Subject Public Key Info:
            Public Key Algorithm: id-ecPublicKey
                Public-Key: (384 bit)
                pub:
                    04:f2:a7:cc:2c:e8:2b:8d:38:8d:bf:dc:c0:b8:8d:
                    95:52:92:6a:03:ce:6f:d7:fd:9a:e4:12:6e:13:54:
                    72:8f:49:9e:a4:cd:94:69:9a:65:25:2d:2f:65:ed:
                    24:19:48:b6:32:0c:01:41:17:3a:06:24:96:07:85:
                    93:50:5c:43:bb:1c:5b:33:9f:a2:a7:bc:b8:e1:c1:
                    2e:9d:77:39:5a:1c:fc:e2:12:49:eb:4a:bd:0e:2a:
                    12:66:74:91:eb:40:04
                ASN1 OID: secp384r1
                NIST CURVE: P-384
        X509v3 extensions:
            X509v3 Subject Alternative Name: 
                DNS:localhost-ecc
            X509v3 Key Usage: critical
                Digital Signature, Key Encipherment
            X509v3 Extended Key Usage: 
                TLS Web Server Authentication, TLS Web Client Authentication
            X509v3 Basic Constraints: critical
                CA:FALSE
            X509v3 Subject Key Identifier: 
                79:11:98:86:15:4F:48:F4:31:0B:D2:CC:C8:26:3A:09:07:5D:96:40
            X509v3 Authority Key Identifier: 
                keyid:B3:8A:A0:A2:BA:71:F1:A8:24:79:D4:A4:5B:25:36:15:1E:49:C8:CD
                DirName:/C=XY/O=Python Software Foundation CA/CN=our-ca-server
                serial:CB:2D:80:99:5A:69:52:5B

            Authority Information Access: 
                CA Issuers - URI:http://testca.pythontest.net/testca/pycacert.cer
                OCSP - URI:http://testca.pythontest.net/testca/ocsp/

            X509v3 CRL Distribution Points: 

                Full Name:
                  URI:http://testca.pythontest.net/testca/revocation.crl

    Signature Algorithm: sha256WithRSAEncryption
         6e:42:e8:a2:2d:28:14:e3:25:5c:c1:7e:54:e9:3a:ff:30:db:
         94:ba:b2:f6:5f:ae:9a:c1:90:b3:4f:ce:65:1d:84:64:c0:71:
         2c:44:8e:7e:00:79:f5:8c:4a:1d:34:13:44:de:99:2e:db:53:
         ee:ec:74:97:4d:59:1a:09:82:4f:98:75:91:a7:a0:b9:da:5e:
         68:f5:32:85:be:36:3d:83:d4:ee:f9:87:67:31:85:41:53:9a:
         e7:05:96:13:1c:88:2e:7f:33:b1:ee:bd:f9:50:52:24:ed:3d:
         92:95:6e:30:c3:af:74:a9:ee:15:bb:da:7c:14:50:8e:e3:99:
         ea:ba:b4:37:8a:50:61:26:de:01:93:b8:a2:6b:d9:c7:38:5e:
         b2:f8:96:3d:a8:9f:7d:0c:71:d4:7e:cc:a0:57:af:7e:ce:3f:
         a7:a7:27:68:c1:28:d7:4f:44:c1:b4:93:c3:c7:35:2b:50:c3:
         8e:2c:d0:46:c1:3f:e1:67:d3:f0:81:ae:f3:5c:3e:4f:d5:a8:
         07:8f:e0:eb:ef:d8:dc:47:e0:3d:58:eb:de:0e:7f:b2:58:cb:
         5c:f1:2f:65:7e:0f:0d:cc:ca:ba:83:53:63:bc:dd:18:0c:ee:
         ed:ec:96:88:d0:38:c5:d7:ab:e7:55:79:7b:6d:ba:c0:a0:e9:
         5c:ca:7c:fb:f8:70:c7:fb:f5:b2:b5:74:cb:f7:c0:0d:20:9f:
         1d:b7:4c:bf:8a:8d:cd:e3:bc:4e:30:78:02:12:a0:9b:d5:8f:
         49:3c:95:91:76:6e:7c:54:dc:61:7a:2e:20:ed:35:25:e0:c5:
         17:50:02:83:00:74:8f:f0:1c:97:96:08:fc:2e:63:a4:f7:97:
         87:43:2a:32:04:2d:4c:f9:1a:07:bf:68:91:fc:50:21:a1:3c:
         8d:8f:fb:83:57:83:1f:b6:55:5c:55:2f:58:64:ad:f3:27:ba:
         d0:e3:cd:58:01:a3:c9:ba:1d:95:dc:30:d5:af:b9:20:ad:d9:
         48:ba:8d:9a:66:ee
-----BEGIN CERTIFICATE-----
MIIEyzCCAzOgAwIBAgIJAMstgJlaaVJeMA0GCSqGSIb3DQEBCwUAME0xCzAJBgNV
BAYTAlhZMSYwJAYDVQQKDB1QeXRob24gU29mdHdhcmUgRm91bmRhdGlvbiBDQTEW
MBQGA1UEAwwNb3VyLWNhLXNlcnZlcjAeFw0xODA4MjkxNDIzMTZaFw0zNzEwMjgx
NDIzMTZaMGMxCzAJBgNVBAYTAlhZMRcwFQYDVQQHDA5DYXN0bGUgQW50aHJheDEj
MCEGA1UECgwaUHl0aG9uIFNvZnR3YXJlIEZvdW5kYXRpb24xFjAUBgNVBAMMDWxv
Y2FsaG9zdC1lY2MwdjAQBgcqhkjOPQIBBgUrgQQAIgNiAATyp8ws6CuNOI2/3MC4
jZVSkmoDzm/X/ZrkEm4TVHKPSZ6kzZRpmmUlLS9l7SQZSLYyDAFBFzoGJJYHhZNQ
XEO7HFszn6KnvLjhwS6ddzlaHPziEknrSr0OKhJmdJHrQASjggHEMIIBwDAYBgNV
HREEETAPgg1sb2NhbGhvc3QtZWNjMA4GA1UdDwEB/wQEAwIFoDAdBgNVHSUEFjAU
BggrBgEFBQcDAQYIKwYBBQUHAwIwDAYDVR0TAQH/BAIwADAdBgNVHQ4EFgQUeRGY
hhVPSPQxC9LMyCY6CQddlkAwfQYDVR0jBHYwdIAUs4qgorpx8agkedSkWyU2FR5J
yM2hUaRPME0xCzAJBgNVBAYTAlhZMSYwJAYDVQQKDB1QeXRob24gU29mdHdhcmUg
Rm91bmRhdGlvbiBDQTEWMBQGA1UEAwwNb3VyLWNhLXNlcnZlcoIJAMstgJlaaVJb
MIGDBggrBgEFBQcBAQR3MHUwPAYIKwYBBQUHMAKGMGh0dHA6Ly90ZXN0Y2EucHl0
aG9udGVzdC5uZXQvdGVzdGNhL3B5Y2FjZXJ0LmNlcjA1BggrBgEFBQcwAYYpaHR0
cDovL3Rlc3RjYS5weXRob250ZXN0Lm5ldC90ZXN0Y2Evb2NzcC8wQwYDVR0fBDww
OjA4oDagNIYyaHR0cDovL3Rlc3RjYS5weXRob250ZXN0Lm5ldC90ZXN0Y2EvcmV2
b2NhdGlvbi5jcmwwDQYJKoZIhvcNAQELBQADggGBAG5C6KItKBTjJVzBflTpOv8w
25S6svZfrprBkLNPzmUdhGTAcSxEjn4AefWMSh00E0TemS7bU+7sdJdNWRoJgk+Y
dZGnoLnaXmj1MoW+Nj2D1O75h2cxhUFTmucFlhMciC5/M7HuvflQUiTtPZKVbjDD
r3Sp7hW72nwUUI7jmeq6tDeKUGEm3gGTuKJr2cc4XrL4lj2on30McdR+zKBXr37O
P6enJ2jBKNdPRMG0k8PHNStQw44s0EbBP+Fn0/CBrvNcPk/VqAeP4Ovv2NxH4D1Y
694Of7JYy1zxL2V+Dw3MyrqDU2O83RgM7u3slojQOMXXq+dVeXttusCg6VzKfPv4
cMf79bK1dMv3wA0gnx23TL+Kjc3jvE4weAISoJvVj0k8lZF2bnxU3GF6LiDtNSXg
xRdQAoMAdI/wHJeWCPwuY6T3l4dDKjIELUz5Gge/aJH8UCGhPI2P+4NXgx+2VVxV
L1hkrfMnutDjzVgBo8m6HZXcMNWvuSCt2Ui6jZpm7g==
-----END CERTIFICATE-----
