-----BEGIN PRIVATE KEY-----
MIIG/QIBADANBgkqhkiG9w0BAQEFAASCBucwggbjAgEAAoIBgQDGjpiHzq7ghxhM
ZzrnRsGBC/cmw8EREIdbqlrz/l8BFaWeipvO5Hb/MyU8xs2zLUrqIr2JNf+Eii8Y
m4bYmZclFra4jomaiSlxTZOe3dMV8m4vAq4eT2mSfZZC1+XAutqdz7WhHxhMVEm3
AyTWvTC3qCbnlbX5VIoQUwFrsSWqDiHyaGdK3rrOTKFUKM8YPiq/BZkm6A4eiFci
5wd/SPD+w0pIscZbQW1MUr5bs54uylWaUmtfI8KJt6BDZQ/uA06c6i863sSCEI6L
gq+wyikeJGNMxZMfgu3dzfv4BiZBQX0ZhiRvqseDSdPcuVa2Ifb6CFlg298neweY
4EAIE1O+uqo5h8FF1aUOMZpQEZuzsp9R/TAMBHX1YmVjG/kRdBeaHe3whzB1Pfue
PIX2ZTMmLNYbYbfnmxhk1nn8aAvoT98pNw8y3/2k2KNsu24n9uSkkxAoqJ19WKwm
mL8MpJKAzLv45tRvhN+QLtnRdu+LJ9m29npQHFmYLbdqRfmidnMCAwEAAQKCAYBd
w1C8MRnb5W/QBJ+IP515NxFLOP2e9VM2MkgpGGH8vSAssf/Jv5GCCcD35lmU1zqd
PjKK7PjwueBrmmYfOshpN0Sp+oV4eHUdkCi5yL65inYFtRpMLewIxU2D2zgfvx0l
kMSQhYKP6O22gsGOtmCfGcTlb4kzaHyaINh25nyGxY26TxsX+/3zFbTJbUv+grzk
39vmx4aDXJbpYHfl36gOZmJZ2bl1tnvKovhJjZSRO/MYoPsbPmPLbO89ZCgVmXFc
GVkb5Cram6i3iyutSDjxWN7Fb8uy8pFLPGAXZgF7pQoXPSEHZe8GEWBnWSC9KaDa
uM9Ir847/Muy1ceCmxKcI2WrSjoH2AhPcmHgvbPE9Mynr6+uzReSP3q7Wh9PHm23
oFx3DwdCfmjysnpAMBawNmJdWyxVDbZ6eyrhp17ADpsMaDTynZ+fJjgMr+MmWtbU
YSRD0wWtl/DrzsaePZsOjCpKYJyulC+rh9/Zz1aiwrGWPbgEAzDrD6Q1Zp0mUCEC
gcEA+XskmGIB9rRPy+YQmRgzQ555PsjLWsnQsNktP6KBhlQjFKJZXRZ0DxDTS7h8
NrJrUDBmwfsgzggVbeO55VP5FGwD6DNeO/Bz++Fdevh8uKQFHDfk4sbIUPS91qw4
s7OW7PR7C7Jf7Dnjmsn42o2lO4FsbcEn2F+PHOvoLl/OrSx73lS/RkdOEItW8d8/
ExRohylnba/I2vCE9bNZd4DGjMW87j/THKPadDZWEqWggcrjY8x6ibSQGm2n2Tka
8B+vAoHBAMu+zl8kqFlYDG24dGfVpMaOYj5Osj0cV5f7O2pZ15sCevjiqoKGHH7G
O8EiI5pRBZ893+Fsx6YWmcKue88lfGvaoQjV0LUbfMfX/FoD39w/ZLx31yKEiFuc
KvMiRV5mO3kQiHBVX9vamzr5NeaErccXY9LnhaKOMX9blgiDQZH7fc3RhodcFWrC
9yfX6ryfidpPnRvK7Ops7hVnFKyyS4FaAarnzH1B2WcVcD4lYYxhMc8VXeU3eKOh
j1fI/F5ifQKBwQDpCjB670HqUzAexL9IYqSwSz3yedoK6m24ZIWx5XicI8fJJIXZ
QHoVAKB/IMtWxH8dnri+Bnj0O/TYe1pQb4pBm0xjAGjMEKYm6LNLhQXr67qiS0vQ
0eKYTKVv+9vTcLRQj2bI3Exh+wkys+tzK9DmrtS8CSvRICIs3+g4OWJzvRPP8NXj
LgQrzBzhPqpKhkvFxdVJTmSOrxFj+a5exLmzEZqT6qanIB+VYpQwQuqVkxGpTX5B
V5ssNLYPYRpapx0CgcByCtQixzcAA1u5knR9pkT76ris3YnA0Ptqk3I3XiBjoGjK
pL0CICUVBMpvmTdKai12a8DDwgqiOaZJJTchxH63NAHNGzkeFkuq5IdYrzB/bHBr
WbzukjZs6KXVv4oKg7ioVAu6rN7iBaO7x8BWzk8i0EHMzFCto1+rRM1e6HEsUBOj
v7LIU0+dmZGUGLRIbhhQPR3Yb6ZatSwyiKc23vmKZqHmUqbQOaqBm6te7beDRugF
XJVY9sqs9IJyhYpVHlUCgcAPoslwYKeAXagsxdQrH3D9VJDXVOHWKMBqQZDio5dB
Q80uWpuxtt6nhZkQO1JIWnYb6v+zbDbcgjByBIDuxCdBW9d+QQnanKmVyrXguK91
C3OcHHOmSduFdWC3/zYW1mW97Tz1sXyam2hly1u3L5kW+GnE1hr9VVPjQNrO9+Ge
qW0coaJqKY78q3Rm2dtyZeJSFFI1o/DQ3blyItsFpg/QrR+a5XrS6Nw2ZLIL4Azo
J1CTgMwjhwlMNCI4t4dkHd0=
-----END PRIVATE KEY-----
Certificate:
    Data:
        Version: 3 (0x2)
        Serial Number:
            cb:2d:80:99:5a:69:52:5d
    Signature Algorithm: sha256WithRSAEncryption
        Issuer: C=XY, O=Python Software Foundation CA, CN=our-ca-server
        Validity
            Not Before: Aug 29 14:23:16 2018 GMT
            Not After : Jul  7 14:23:16 2028 GMT
        Subject: C=XY, L=Castle Anthrax, O=Python Software Foundation, CN=fakehostname
        Subject Public Key Info:
            Public Key Algorithm: rsaEncryption
                Public-Key: (3072 bit)
                Modulus:
                    00:c6:8e:98:87:ce:ae:e0:87:18:4c:67:3a:e7:46:
                    c1:81:0b:f7:26:c3:c1:11:10:87:5b:aa:5a:f3:fe:
                    5f:01:15:a5:9e:8a:9b:ce:e4:76:ff:33:25:3c:c6:
                    cd:b3:2d:4a:ea:22:bd:89:35:ff:84:8a:2f:18:9b:
                    86:d8:99:97:25:16:b6:b8:8e:89:9a:89:29:71:4d:
                    93:9e:dd:d3:15:f2:6e:2f:02:ae:1e:4f:69:92:7d:
                    96:42:d7:e5:c0:ba:da:9d:cf:b5:a1:1f:18:4c:54:
                    49:b7:03:24:d6:bd:30:b7:a8:26:e7:95:b5:f9:54:
                    8a:10:53:01:6b:b1:25:aa:0e:21:f2:68:67:4a:de:
                    ba:ce:4c:a1:54:28:cf:18:3e:2a:bf:05:99:26:e8:
                    0e:1e:88:57:22:e7:07:7f:48:f0:fe:c3:4a:48:b1:
                    c6:5b:41:6d:4c:52:be:5b:b3:9e:2e:ca:55:9a:52:
                    6b:5f:23:c2:89:b7:a0:43:65:0f:ee:03:4e:9c:ea:
                    2f:3a:de:c4:82:10:8e:8b:82:af:b0:ca:29:1e:24:
                    63:4c:c5:93:1f:82:ed:dd:cd:fb:f8:06:26:41:41:
                    7d:19:86:24:6f:aa:c7:83:49:d3:dc:b9:56:b6:21:
                    f6:fa:08:59:60:db:df:27:7b:07:98:e0:40:08:13:
                    53:be:ba:aa:39:87:c1:45:d5:a5:0e:31:9a:50:11:
                    9b:b3:b2:9f:51:fd:30:0c:04:75:f5:62:65:63:1b:
                    f9:11:74:17:9a:1d:ed:f0:87:30:75:3d:fb:9e:3c:
                    85:f6:65:33:26:2c:d6:1b:61:b7:e7:9b:18:64:d6:
                    79:fc:68:0b:e8:4f:df:29:37:0f:32:df:fd:a4:d8:
                    a3:6c:bb:6e:27:f6:e4:a4:93:10:28:a8:9d:7d:58:
                    ac:26:98:bf:0c:a4:92:80:cc:bb:f8:e6:d4:6f:84:
                    df:90:2e:d9:d1:76:ef:8b:27:d9:b6:f6:7a:50:1c:
                    59:98:2d:b7:6a:45:f9:a2:76:73
                Exponent: 65537 (0x10001)
        X509v3 extensions:
            X509v3 Subject Alternative Name: 
                DNS:fakehostname
            X509v3 Key Usage: critical
                Digital Signature, Key Encipherment
            X509v3 Extended Key Usage: 
                TLS Web Server Authentication, TLS Web Client Authentication
            X509v3 Basic Constraints: critical
                CA:FALSE
            X509v3 Subject Key Identifier: 
                52:E0:93:AA:52:55:B7:BB:E7:A8:E0:8C:DE:41:2E:F4:07:F0:36:FB
            X509v3 Authority Key Identifier: 
                keyid:DD:BF:CA:DA:E6:D1:34:BA:37:75:21:CA:6F:9A:08:28:F2:35:B6:48
                DirName:/C=XY/O=Python Software Foundation CA/CN=our-ca-server
                serial:CB:2D:80:99:5A:69:52:5B

            Authority Information Access: 
                CA Issuers - URI:http://testca.pythontest.net/testca/pycacert.cer
                OCSP - URI:http://testca.pythontest.net/testca/ocsp/

            X509v3 CRL Distribution Points: 

                Full Name:
                  URI:http://testca.pythontest.net/testca/revocation.crl

    Signature Algorithm: sha256WithRSAEncryption
         29:d2:3f:82:3f:c1:38:35:a6:bd:81:10:fe:64:ec:ff:7e:e1:
         c6:6f:7f:86:65:f9:31:6f:fb:ef:32:4e:2f:87:c8:42:de:6c:
         8d:b8:06:08:8f:37:70:95:7d:e1:40:d4:82:2b:8d:b3:4a:fd:
         34:c5:9e:df:ff:01:53:4a:4f:08:f4:58:e1:74:fc:78:e3:3e:
         71:a7:5e:66:07:ea:d2:04:31:e2:75:a8:4c:80:17:86:92:20:
         d2:32:a7:9a:65:8b:1a:5f:f1:4c:c8:50:6d:00:fc:99:bf:69:
         b3:48:f3:45:5a:ee:35:50:14:b8:f3:92:92:c6:9f:0e:5d:eb:
         0d:e8:ec:f2:a4:09:6b:dc:66:2b:fc:df:4c:fc:65:a1:ae:d3:
         b5:88:6a:a4:e7:08:1c:94:49:e0:b8:c1:04:8c:21:09:6c:55:
         4b:2c:97:10:f1:8c:6c:d0:bb:ba:8d:93:e8:47:8b:4d:8e:7d:
         7d:85:53:18:c8:f8:f4:8f:67:3a:b1:aa:3e:18:34:6c:3a:e6:
         a6:c7:2f:be:83:38:f5:d5:e5:d2:17:28:61:6c:b6:49:99:21:
         69:a4:a8:b6:94:76:fd:18:ad:35:52:45:64:fb:f1:5d:8e:bb:
         c0:21:2e:59:55:24:af:bb:8f:b2:0a:7b:17:f0:34:97:8e:68:
         a9:f2:d0:3e:f6:73:82:f8:7c:4e:9a:70:7d:d6:b3:8c:cc:85:
         04:5c:02:8f:74:da:88:3a:20:a8:7e:c2:9e:b0:dd:56:1f:ce:
         cd:42:16:c6:14:91:ad:30:e0:dc:76:f2:2c:56:ea:38:45:d8:
         c0:3e:b8:90:fa:f3:38:99:ec:44:07:35:8f:69:62:0c:f9:ef:
         b7:9d:e5:15:42:6e:fb:fe:4c:ff:e8:94:5a:1a:b0:80:b2:0e:
         17:3d:e1:87:a8:08:84:93:74:68:8d:29:df:ca:0b:6a:44:32:
         8a:51:3b:d6:38:db:bd:e3:2a:1b:5e:20:48:81:82:19:91:c6:
         87:8c:0f:cd:51:ea
-----BEGIN CERTIFICATE-----
MIIF9zCCBF+gAwIBAgIJAMstgJlaaVJdMA0GCSqGSIb3DQEBCwUAME0xCzAJBgNV
BAYTAlhZMSYwJAYDVQQKDB1QeXRob24gU29mdHdhcmUgRm91bmRhdGlvbiBDQTEW
MBQGA1UEAwwNb3VyLWNhLXNlcnZlcjAeFw0xODA4MjkxNDIzMTZaFw0yODA3MDcx
NDIzMTZaMGIxCzAJBgNVBAYTAlhZMRcwFQYDVQQHDA5DYXN0bGUgQW50aHJheDEj
MCEGA1UECgwaUHl0aG9uIFNvZnR3YXJlIEZvdW5kYXRpb24xFTATBgNVBAMMDGZh
a2Vob3N0bmFtZTCCAaIwDQYJKoZIhvcNAQEBBQADggGPADCCAYoCggGBAMaOmIfO
ruCHGExnOudGwYEL9ybDwREQh1uqWvP+XwEVpZ6Km87kdv8zJTzGzbMtSuoivYk1
/4SKLxibhtiZlyUWtriOiZqJKXFNk57d0xXybi8Crh5PaZJ9lkLX5cC62p3PtaEf
GExUSbcDJNa9MLeoJueVtflUihBTAWuxJaoOIfJoZ0reus5MoVQozxg+Kr8FmSbo
Dh6IVyLnB39I8P7DSkixxltBbUxSvluzni7KVZpSa18jwom3oENlD+4DTpzqLzre
xIIQjouCr7DKKR4kY0zFkx+C7d3N+/gGJkFBfRmGJG+qx4NJ09y5VrYh9voIWWDb
3yd7B5jgQAgTU766qjmHwUXVpQ4xmlARm7Oyn1H9MAwEdfViZWMb+RF0F5od7fCH
MHU9+548hfZlMyYs1htht+ebGGTWefxoC+hP3yk3DzLf/aTYo2y7bif25KSTECio
nX1YrCaYvwykkoDMu/jm1G+E35Au2dF274sn2bb2elAcWZgtt2pF+aJ2cwIDAQAB
o4IBwzCCAb8wFwYDVR0RBBAwDoIMZmFrZWhvc3RuYW1lMA4GA1UdDwEB/wQEAwIF
oDAdBgNVHSUEFjAUBggrBgEFBQcDAQYIKwYBBQUHAwIwDAYDVR0TAQH/BAIwADAd
BgNVHQ4EFgQUUuCTqlJVt7vnqOCM3kEu9AfwNvswfQYDVR0jBHYwdIAU3b/K2ubR
NLo3dSHKb5oIKPI1tkihUaRPME0xCzAJBgNVBAYTAlhZMSYwJAYDVQQKDB1QeXRo
b24gU29mdHdhcmUgRm91bmRhdGlvbiBDQTEWMBQGA1UEAwwNb3VyLWNhLXNlcnZl
coIJAMstgJlaaVJbMIGDBggrBgEFBQcBAQR3MHUwPAYIKwYBBQUHMAKGMGh0dHA6
Ly90ZXN0Y2EucHl0aG9udGVzdC5uZXQvdGVzdGNhL3B5Y2FjZXJ0LmNlcjA1Bggr
BgEFBQcwAYYpaHR0cDovL3Rlc3RjYS5weXRob250ZXN0Lm5ldC90ZXN0Y2Evb2Nz
cC8wQwYDVR0fBDwwOjA4oDagNIYyaHR0cDovL3Rlc3RjYS5weXRob250ZXN0Lm5l
dC90ZXN0Y2EvcmV2b2NhdGlvbi5jcmwwDQYJKoZIhvcNAQELBQADggGBACnSP4I/
wTg1pr2BEP5k7P9+4cZvf4Zl+TFv++8yTi+HyELebI24BgiPN3CVfeFA1IIrjbNK
/TTFnt//AVNKTwj0WOF0/HjjPnGnXmYH6tIEMeJ1qEyAF4aSINIyp5plixpf8UzI
UG0A/Jm/abNI80Va7jVQFLjzkpLGnw5d6w3o7PKkCWvcZiv830z8ZaGu07WIaqTn
CByUSeC4wQSMIQlsVUsslxDxjGzQu7qNk+hHi02OfX2FUxjI+PSPZzqxqj4YNGw6
5qbHL76DOPXV5dIXKGFstkmZIWmkqLaUdv0YrTVSRWT78V2Ou8AhLllVJK+7j7IK
exfwNJeOaKny0D72c4L4fE6acH3Ws4zMhQRcAo902og6IKh+wp6w3VYfzs1CFsYU
ka0w4Nx28ixW6jhF2MA+uJD68ziZ7EQHNY9pYgz577ed5RVCbvv+TP/olFoasICy
Dhc94YeoCISTdGiNKd/KC2pEMopRO9Y4273jKhteIEiBghmRxoeMD81R6g==
-----END CERTIFICATE-----
