-----BEGIN PRIVATE KEY-----
MIG2AgEAMBAGByqGSM49AgEGBSuBBAAiBIGeMIGbAgEBBDDe3QWmhZX07HZbntz4
CFqAOaoYMdYwD7Z3WPNIc2zR7p4D6BMOa7NAWjLV5A7CUw6hZANiAAQ5IVKzLLz4
LCfcpy6fMOp+jk5KwywsU3upPtjA6E3UetxPcfnnv+gghRyDAYLN2OVqZgLMEmUo
F1j1SM1QrbhHIuNcVxI9gPPMdumcNFSz/hqxrBRtA/8Z2gywczdNLjc=
-----END PRIVATE KEY-----
Certificate:
    Data:
        Version: 3 (0x2)
        Serial Number:
            82:ed:bf:41:c8:80:91:9e
    Signature Algorithm: sha1WithRSAEncryption
        Issuer: C=XY, O=Python Software Foundation CA, CN=our-ca-server
        Validity
            Not Before: Jan 19 19:09:06 2018 GMT
            Not After : Nov 28 19:09:06 2027 GMT
        Subject: C=XY, L=Castle Anthrax, O=Python Software Foundation, CN=localhost-ecc
        Subject Public Key Info:
            Public Key Algorithm: id-ecPublicKey
                Public-Key: (384 bit)
                pub:
                    04:39:21:52:b3:2c:bc:f8:2c:27:dc:a7:2e:9f:30:
                    ea:7e:8e:4e:4a:c3:2c:2c:53:7b:a9:3e:d8:c0:e8:
                    4d:d4:7a:dc:4f:71:f9:e7:bf:e8:20:85:1c:83:01:
                    82:cd:d8:e5:6a:66:02:cc:12:65:28:17:58:f5:48:
                    cd:50:ad:b8:47:22:e3:5c:57:12:3d:80:f3:cc:76:
                    e9:9c:34:54:b3:fe:1a:b1:ac:14:6d:03:ff:19:da:
                    0c:b0:73:37:4d:2e:37
                ASN1 OID: secp384r1
                NIST CURVE: P-384
        X509v3 extensions:
            X509v3 Subject Alternative Name: 
                DNS:localhost-ecc
            X509v3 Key Usage: critical
                Digital Signature, Key Encipherment
            X509v3 Extended Key Usage: 
                TLS Web Server Authentication, TLS Web Client Authentication
            X509v3 Basic Constraints: critical
                CA:FALSE
            X509v3 Subject Key Identifier: 
                33:23:0E:15:04:83:2E:3D:BF:DA:81:6D:10:38:80:C3:C2:B0:A4:74
            X509v3 Authority Key Identifier: 
                keyid:9A:CF:CF:6E:EB:71:3D:DB:3C:F1:AE:88:6B:56:72:03:CB:08:A7:48
                DirName:/C=XY/O=Python Software Foundation CA/CN=our-ca-server
                serial:82:ED:BF:41:C8:80:91:9B

            Authority Information Access: 
                CA Issuers - URI:http://testca.pythontest.net/testca/pycacert.cer
                OCSP - URI:http://testca.pythontest.net/testca/ocsp/

            X509v3 CRL Distribution Points: 

                Full Name:
                  URI:http://testca.pythontest.net/testca/revocation.crl

    Signature Algorithm: sha1WithRSAEncryption
         3b:6f:97:af:7e:5f:e0:14:34:ed:57:7e:de:ce:c4:85:1e:aa:
         84:52:94:7c:e5:ce:e9:9c:88:8b:ad:b5:4d:16:ac:af:81:ea:
         b8:a2:e2:50:2e:cb:e9:11:bd:1b:a6:3f:0c:a2:d7:7b:67:72:
         b3:43:16:ad:c6:87:ac:6e:ac:47:78:ef:2f:8c:86:e8:9b:d1:
         43:8c:c1:7a:91:30:e9:14:d6:9f:41:8b:9b:0b:24:9b:78:86:
         11:8a:fc:2b:cd:c9:13:ee:90:4f:14:33:51:a3:c4:9e:d6:06:
         48:f5:41:12:af:f0:f2:71:40:78:f5:96:c2:5d:cf:e1:38:ff:
         bf:10:eb:74:2f:c2:23:21:3e:27:f5:f1:f2:af:2c:62:82:31:
         00:c8:96:1b:c3:7e:8d:71:89:e7:40:b5:67:1a:33:fb:c0:8b:
         96:0c:36:78:25:27:82:d8:27:27:52:0f:f7:69:cd:ff:2b:92:
         10:d3:d2:0a:db:65:ed:af:90:eb:db:76:f3:8a:7a:13:9e:c6:
         33:57:15:42:06:13:d6:54:49:fa:84:a7:0e:1d:14:72:ca:19:
         8e:2b:aa:a4:02:54:3c:f6:1c:23:81:7a:59:54:b0:92:65:72:
         c8:e5:ba:9f:03:4e:30:f2:4d:45:85:e3:35:a8:b1:68:58:b9:
         3b:20:a3:eb
-----BEGIN CERTIFICATE-----
MIIESzCCAzOgAwIBAgIJAILtv0HIgJGeMA0GCSqGSIb3DQEBBQUAME0xCzAJBgNV
BAYTAlhZMSYwJAYDVQQKDB1QeXRob24gU29mdHdhcmUgRm91bmRhdGlvbiBDQTEW
MBQGA1UEAwwNb3VyLWNhLXNlcnZlcjAeFw0xODAxMTkxOTA5MDZaFw0yNzExMjgx
OTA5MDZaMGMxCzAJBgNVBAYTAlhZMRcwFQYDVQQHDA5DYXN0bGUgQW50aHJheDEj
MCEGA1UECgwaUHl0aG9uIFNvZnR3YXJlIEZvdW5kYXRpb24xFjAUBgNVBAMMDWxv
Y2FsaG9zdC1lY2MwdjAQBgcqhkjOPQIBBgUrgQQAIgNiAAQ5IVKzLLz4LCfcpy6f
MOp+jk5KwywsU3upPtjA6E3UetxPcfnnv+gghRyDAYLN2OVqZgLMEmUoF1j1SM1Q
rbhHIuNcVxI9gPPMdumcNFSz/hqxrBRtA/8Z2gywczdNLjejggHEMIIBwDAYBgNV
HREEETAPgg1sb2NhbGhvc3QtZWNjMA4GA1UdDwEB/wQEAwIFoDAdBgNVHSUEFjAU
BggrBgEFBQcDAQYIKwYBBQUHAwIwDAYDVR0TAQH/BAIwADAdBgNVHQ4EFgQUMyMO
FQSDLj2/2oFtEDiAw8KwpHQwfQYDVR0jBHYwdIAUms/PbutxPds88a6Ia1ZyA8sI
p0ihUaRPME0xCzAJBgNVBAYTAlhZMSYwJAYDVQQKDB1QeXRob24gU29mdHdhcmUg
Rm91bmRhdGlvbiBDQTEWMBQGA1UEAwwNb3VyLWNhLXNlcnZlcoIJAILtv0HIgJGb
MIGDBggrBgEFBQcBAQR3MHUwPAYIKwYBBQUHMAKGMGh0dHA6Ly90ZXN0Y2EucHl0
aG9udGVzdC5uZXQvdGVzdGNhL3B5Y2FjZXJ0LmNlcjA1BggrBgEFBQcwAYYpaHR0
cDovL3Rlc3RjYS5weXRob250ZXN0Lm5ldC90ZXN0Y2Evb2NzcC8wQwYDVR0fBDww
OjA4oDagNIYyaHR0cDovL3Rlc3RjYS5weXRob250ZXN0Lm5ldC90ZXN0Y2EvcmV2
b2NhdGlvbi5jcmwwDQYJKoZIhvcNAQEFBQADggEBADtvl69+X+AUNO1Xft7OxIUe
qoRSlHzlzumciIuttU0WrK+B6rii4lAuy+kRvRumPwyi13tncrNDFq3Gh6xurEd4
7y+Mhuib0UOMwXqRMOkU1p9Bi5sLJJt4hhGK/CvNyRPukE8UM1GjxJ7WBkj1QRKv
8PJxQHj1lsJdz+E4/78Q63QvwiMhPif18fKvLGKCMQDIlhvDfo1xiedAtWcaM/vA
i5YMNnglJ4LYJydSD/dpzf8rkhDT0grbZe2vkOvbdvOKehOexjNXFUIGE9ZUSfqE
pw4dFHLKGY4rqqQCVDz2HCOBellUsJJlcsjlup8DTjDyTUWF4zWosWhYuTsgo+s=
-----END CERTIFICATE-----
