-----BEGIN PRIVATE KEY-----
MIG2AgEAMBAGByqGSM49AgEGBSuBBAAiBIGeMIGbAgEBBDBL2Y5JfpzbgHw+t4Q+
c5SHhsZcD9ylEtUMg7OyF9xW6j+3VIVORGaokcOtE0Z2Y5ehZANiAASzz/rInKUz
onpxP5bLxmq8fmrtgRSS0jRPUOU16XKX+KtifnLbmLHQtPrctdkRRROCxnURz2fB
ihQTJkXyBMSswNTRCs+4DUKbMAfihigMVYgdWbZPFBDleo5aeFw4/FM=
-----END PRIVATE KEY-----
Certificate:
    Data:
        Version: 3 (0x2)
        Serial Number:
            cb:2d:80:99:5a:69:52:5e
    Signature Algorithm: sha256WithRSAEncryption
        Issuer: C=XY, O=Python Software Foundation CA, CN=our-ca-server
        Validity
            Not Before: Aug 29 14:23:16 2018 GMT
            Not After : Jul  7 14:23:16 2028 GMT
        Subject: C=XY, L=Castle Anthrax, O=Python Software Foundation, CN=localhost-ecc
        Subject Public Key Info:
            Public Key Algorithm: id-ecPublicKey
                Public-Key: (384 bit)
                pub:
                    04:b3:cf:fa:c8:9c:a5:33:a2:7a:71:3f:96:cb:c6:
                    6a:bc:7e:6a:ed:81:14:92:d2:34:4f:50:e5:35:e9:
                    72:97:f8:ab:62:7e:72:db:98:b1:d0:b4:fa:dc:b5:
                    d9:11:45:13:82:c6:75:11:cf:67:c1:8a:14:13:26:
                    45:f2:04:c4:ac:c0:d4:d1:0a:cf:b8:0d:42:9b:30:
                    07:e2:86:28:0c:55:88:1d:59:b6:4f:14:10:e5:7a:
                    8e:5a:78:5c:38:fc:53
                ASN1 OID: secp384r1
                NIST CURVE: P-384
        X509v3 extensions:
            X509v3 Subject Alternative Name: 
                DNS:localhost-ecc
            X509v3 Key Usage: critical
                Digital Signature, Key Encipherment
            X509v3 Extended Key Usage: 
                TLS Web Server Authentication, TLS Web Client Authentication
            X509v3 Basic Constraints: critical
                CA:FALSE
            X509v3 Subject Key Identifier: 
                C6:82:22:BF:4F:3D:40:AD:9B:16:AD:E7:C5:ED:C4:82:EB:35:97:98
            X509v3 Authority Key Identifier: 
                keyid:DD:BF:CA:DA:E6:D1:34:BA:37:75:21:CA:6F:9A:08:28:F2:35:B6:48
                DirName:/C=XY/O=Python Software Foundation CA/CN=our-ca-server
                serial:CB:2D:80:99:5A:69:52:5B

            Authority Information Access: 
                CA Issuers - URI:http://testca.pythontest.net/testca/pycacert.cer
                OCSP - URI:http://testca.pythontest.net/testca/ocsp/

            X509v3 CRL Distribution Points: 

                Full Name:
                  URI:http://testca.pythontest.net/testca/revocation.crl

    Signature Algorithm: sha256WithRSAEncryption
         76:e3:19:4d:34:78:50:3e:fa:63:53:d6:3f:01:87:e8:f4:a3:
         a9:81:5b:31:d6:de:3a:98:f3:bb:70:4d:29:35:1f:b0:6a:b3:
         9d:bf:03:2b:79:c4:f2:0b:32:f8:fc:f6:cb:13:47:28:81:fa:
         96:b3:1a:1d:bd:4b:f6:35:df:87:ef:6e:74:63:87:3d:7e:2b:
         c6:78:d4:8e:ef:03:e6:01:11:22:4e:1b:ef:2c:c1:c5:4e:3f:
         4a:07:ae:92:ef:d3:ac:79:59:7c:60:89:4b:3d:39:08:ef:c4:
         9a:dc:b0:8b:ee:5f:30:40:d3:c2:f3:f8:90:77:9d:8c:a7:07:
         b9:5f:62:83:4d:37:fa:36:e1:1d:26:2b:cc:8f:7c:6f:f1:23:
         87:71:48:40:ad:6b:30:16:47:4c:d7:98:bb:f5:9b:63:c8:66:
         47:65:58:d2:c1:07:81:14:0c:25:20:87:b9:1d:ab:0b:56:db:
         2c:ab:36:db:7f:c7:42:52:af:91:d6:fb:18:cf:94:f7:1e:25:
         99:ce:20:78:c6:f8:69:6e:9c:53:f3:fe:90:3e:4d:ca:d5:d6:
         ac:6e:02:17:be:4a:0f:fe:e6:14:d4:ce:25:df:17:8f:6f:b9:
         d3:28:dc:b4:98:ef:05:6f:eb:20:14:1c:c1:e9:9d:02:7b:0e:
         0f:e4:a8:bc:3b:62:e0:42:0c:b0:f7:a1:63:fe:98:d7:aa:b0:
         f6:ed:ff:ab:4f:1a:9a:8f:eb:f0:86:61:d2:d3:a5:08:d0:db:
         e4:d6:a9:0e:ec:08:6f:af:fb:ef:73:3f:47:69:97:90:b2:5a:
         6f:31:66:a7:4c:32:0c:e9:ea:18:ce:a9:79:9c:f5:c4:42:f5:
         68:53:b2:a4:8c:98:3f:97:34:62:61:41:0a:54:d7:0b:cd:33:
         c8:62:62:da:f7:07:c6:c6:3b:fa:68:ca:5f:62:3e:57:db:bd:
         cb:16:94:07:9a:b5:31:55:b8:f8:cb:b0:7f:a0:d1:82:df:71:
         c8:90:60:b3:88:b0
-----BEGIN CERTIFICATE-----
MIIEyzCCAzOgAwIBAgIJAMstgJlaaVJeMA0GCSqGSIb3DQEBCwUAME0xCzAJBgNV
BAYTAlhZMSYwJAYDVQQKDB1QeXRob24gU29mdHdhcmUgRm91bmRhdGlvbiBDQTEW
MBQGA1UEAwwNb3VyLWNhLXNlcnZlcjAeFw0xODA4MjkxNDIzMTZaFw0yODA3MDcx
NDIzMTZaMGMxCzAJBgNVBAYTAlhZMRcwFQYDVQQHDA5DYXN0bGUgQW50aHJheDEj
MCEGA1UECgwaUHl0aG9uIFNvZnR3YXJlIEZvdW5kYXRpb24xFjAUBgNVBAMMDWxv
Y2FsaG9zdC1lY2MwdjAQBgcqhkjOPQIBBgUrgQQAIgNiAASzz/rInKUzonpxP5bL
xmq8fmrtgRSS0jRPUOU16XKX+KtifnLbmLHQtPrctdkRRROCxnURz2fBihQTJkXy
BMSswNTRCs+4DUKbMAfihigMVYgdWbZPFBDleo5aeFw4/FOjggHEMIIBwDAYBgNV
HREEETAPgg1sb2NhbGhvc3QtZWNjMA4GA1UdDwEB/wQEAwIFoDAdBgNVHSUEFjAU
BggrBgEFBQcDAQYIKwYBBQUHAwIwDAYDVR0TAQH/BAIwADAdBgNVHQ4EFgQUxoIi
v089QK2bFq3nxe3Egus1l5gwfQYDVR0jBHYwdIAU3b/K2ubRNLo3dSHKb5oIKPI1
tkihUaRPME0xCzAJBgNVBAYTAlhZMSYwJAYDVQQKDB1QeXRob24gU29mdHdhcmUg
Rm91bmRhdGlvbiBDQTEWMBQGA1UEAwwNb3VyLWNhLXNlcnZlcoIJAMstgJlaaVJb
MIGDBggrBgEFBQcBAQR3MHUwPAYIKwYBBQUHMAKGMGh0dHA6Ly90ZXN0Y2EucHl0
aG9udGVzdC5uZXQvdGVzdGNhL3B5Y2FjZXJ0LmNlcjA1BggrBgEFBQcwAYYpaHR0
cDovL3Rlc3RjYS5weXRob250ZXN0Lm5ldC90ZXN0Y2Evb2NzcC8wQwYDVR0fBDww
OjA4oDagNIYyaHR0cDovL3Rlc3RjYS5weXRob250ZXN0Lm5ldC90ZXN0Y2EvcmV2
b2NhdGlvbi5jcmwwDQYJKoZIhvcNAQELBQADggGBAHbjGU00eFA++mNT1j8Bh+j0
o6mBWzHW3jqY87twTSk1H7Bqs52/Ayt5xPILMvj89ssTRyiB+pazGh29S/Y134fv
bnRjhz1+K8Z41I7vA+YBESJOG+8swcVOP0oHrpLv06x5WXxgiUs9OQjvxJrcsIvu
XzBA08Lz+JB3nYynB7lfYoNNN/o24R0mK8yPfG/xI4dxSECtazAWR0zXmLv1m2PI
ZkdlWNLBB4EUDCUgh7kdqwtW2yyrNtt/x0JSr5HW+xjPlPceJZnOIHjG+GlunFPz
/pA+TcrV1qxuAhe+Sg/+5hTUziXfF49vudMo3LSY7wVv6yAUHMHpnQJ7Dg/kqLw7
YuBCDLD3oWP+mNeqsPbt/6tPGpqP6/CGYdLTpQjQ2+TWqQ7sCG+v++9zP0dpl5Cy
Wm8xZqdMMgzp6hjOqXmc9cRC9WhTsqSMmD+XNGJhQQpU1wvNM8hiYtr3B8bGO/po
yl9iPlfbvcsWlAeatTFVuPjLsH+g0YLfcciQYLOIsA==
-----END CERTIFICATE-----
