-----BEGIN PRIVATE KEY-----
MIIG/QIBADANBgkqhkiG9w0BAQEFAASCBucwggbjAgEAAoIBgQCfKC83Qe9/ZGMW
YhbpARRiKco6mJI9CNNeaf7A89TE+w5Y3GSwS8uzqp5C6QebZzPNueg8HYoTwN85
Z3xM036/Qw9KhQVth+XDAqM+19e5KHkYcxg3d3ZI1HgY170eakaLBvMDN5ULoFOw
Is2PtwM2o9cjd5mfSuWttI6+fCqop8/l8cerG9iX2GH39p3iWwWoTZuYndAA9qYv
07YWajuQ1ESWKPjHYGTnMvu4xIzibC1mXd2M6u/IjNO6g426SKFaRDWQkx01gIV/
CyKs9DgZoeMHkKZuPqZVOxOK+A/NrmrqHFsPIsrs5wk7QAVju5/X1skpn/UGQlmM
RwBaQULOs1FagA+54RXU6qUPW0YmhJ4xOB4gHHD1vjAKEsRZ7/6zcxMyOm+M1DbK
RTH4NWjVWpnY8XaVGdRhtTpH9MjycpKhF+D2Zdy2tQXtqu2GdcMnUedt13fn9xDu
P4PophE0ip/IMgn+kb4m9e+S+K9lldQl0B+4BcGWAqHelh2KuU0CAwEAAQKCAYEA
lKiWIYjmyRjdLKUGPTES9vWNvNmRjozV0RQ0LcoSbMMLDZkeO0UwyWqOVHUQ8+ib
jIcfEjeNJxI57oZopeHOO5vJhpNlFH+g7ltiW2qERqA1K88lSXm99Bzw6FNqhCRE
K8ub5N9fyfJA+P4o/xm0WK8EXk5yIUV17p/9zJJxzgKgv2jsVTi3QG2OZGvn4Oug
ByomMZEGHkBDzdxz8c/cP1Tlk1RFuwSgews178k2xq7AYSM/s0YmHi7b/RSvptX6
1v8P8kXNUe4AwTaNyrlvF2lwIadZ8h1hA7tCE2n44b7a7KfhAkwcbr1T59ioYh6P
zxsyPT678uD51dbtD/DXJCcoeeFOb8uzkR2KNcrnQzZpCJnRq4Gp5ybxwsxxuzpr
gz0gbNlhuWtE7EoSzmIK9t+WTS7IM2CvZymd6/OAh1Fuw6AQhSp64XRp3OfMMAAC
Ie2EPtKj4islWGT8VoUjuRYGmdRh4duAH1dkiAXOWA3R7y5a1/y/iE8KE8BtxocB
AoHBAM8aiURgpu1Fs0Oqz6izec7KSLL3l8hmW+MKUOfk/Ybng6FrTFsL5YtzR+Ap
wW4wwWnnIKEc1JLiZ7g8agRETK8hr5PwFXUn/GSWC0SMsazLJToySQS5LOV0tLzK
kJ3jtNU7tnlDGNkCHTHSoVL2T/8t+IkZI/h5Z6wjlYPvU2Iu0nVIXtiG+alv4A6M
Hrh9l5or4mjB6rGnVXeYohLkCm6s/W97ahVxLMcEdbsBo1prm2JqGnSoiR/tEFC/
QHQnbQKBwQDEu7kW0Yg9sZ89QtYtVQ1YpixFZORaUeRIRLnpEs1w7L1mCbOZ2Lj9
JHxsH05cYAc7HJfPwwxv3+3aGAIC/dfu4VSwEFtatAzUpzlhzKS5+HQCWB4JUNNU
MQ3+FwK2xQX4Ph8t+OzrFiYcK2g0An5UxWMa2HWIAWUOhnTOydAVsoH6yP31cVm4
0hxoABCwflaNLNGjRUyfBpLTAcNu/YtcE+KREy7YAAgXXrhRSO4XpLsSXwLnLT7/
YOkoBWDcTWECgcBPWnSUDZCIQ3efithMZJBciqd2Y2X19Dpq8O31HImD4jtOY0V7
cUB/wSkeHAGwjd/eCyA2e0x8B2IEdqmMfvr+86JJxekC3dJYXCFvH5WIhsH53YCa
3bT1KlWCLP9ib/g+58VQC0R/Cc9T4sfLePNH7D5ZkZd1wlbV30CPr+i8KwKay6MD
xhvtLx+jk07GE+E9wmjbCMo7TclyrLoVEOlqZMAqshgApT+p9eyCPetwXuDHwa3n
WxhHclcZCV7R4rUCgcAkdGSnxcvpIrDPOUNWwxvmAWTStw9ZbTNP8OxCNCm9cyDl
d4bAS1h8D/a+Uk7C70hnu7Sl2w7C7Eu2zhwRUdhhe3+l4GINPK/j99i6NqGPlGpq
xMlMEJ4YS768BqeKFpg0l85PRoEgTsphDeoROSUPsEPdBZ9BxIBlYKTkbKESZDGR
twzYHljx1n1NCDYPflmrb1KpXn4EOcObNghw2KqqNUUWfOeBPwBA1FxzM4BrAStp
DBINpGS4Dc0mjViVegECgcA3hTtm82XdxQXj9LQmb/E3lKx/7H87XIOeNMmvjYuZ
iS9wKrkF+u42vyoDxcKMCnxP5056wpdST4p56r+SBwVTHcc3lGBSGcMTIfwRXrj3
thOA2our2n4ouNIsYyTlcsQSzifwmpRmVMRPxl9fYVdEWUgB83FgHT0D9avvZnF9
t9OccnGJXShAIZIBADhVj/JwG4FbaX42NijD5PNpVLk1Y17OV0I576T9SfaQoBjJ
aH1M/zC4aVaS0DYB/Gxq7v8=
-----END PRIVATE KEY-----
Certificate:
    Data:
        Version: 3 (0x2)
        Serial Number:
            cb:2d:80:99:5a:69:52:5c
    Signature Algorithm: sha256WithRSAEncryption
        Issuer: C=XY, O=Python Software Foundation CA, CN=our-ca-server
        Validity
            Not Before: Aug 29 14:23:16 2018 GMT
            Not After : Jul  7 14:23:16 2028 GMT
        Subject: C=XY, L=Castle Anthrax, O=Python Software Foundation, CN=localhost
        Subject Public Key Info:
            Public Key Algorithm: rsaEncryption
                Public-Key: (3072 bit)
                Modulus:
                    00:9f:28:2f:37:41:ef:7f:64:63:16:62:16:e9:01:
                    14:62:29:ca:3a:98:92:3d:08:d3:5e:69:fe:c0:f3:
                    d4:c4:fb:0e:58:dc:64:b0:4b:cb:b3:aa:9e:42:e9:
                    07:9b:67:33:cd:b9:e8:3c:1d:8a:13:c0:df:39:67:
                    7c:4c:d3:7e:bf:43:0f:4a:85:05:6d:87:e5:c3:02:
                    a3:3e:d7:d7:b9:28:79:18:73:18:37:77:76:48:d4:
                    78:18:d7:bd:1e:6a:46:8b:06:f3:03:37:95:0b:a0:
                    53:b0:22:cd:8f:b7:03:36:a3:d7:23:77:99:9f:4a:
                    e5:ad:b4:8e:be:7c:2a:a8:a7:cf:e5:f1:c7:ab:1b:
                    d8:97:d8:61:f7:f6:9d:e2:5b:05:a8:4d:9b:98:9d:
                    d0:00:f6:a6:2f:d3:b6:16:6a:3b:90:d4:44:96:28:
                    f8:c7:60:64:e7:32:fb:b8:c4:8c:e2:6c:2d:66:5d:
                    dd:8c:ea:ef:c8:8c:d3:ba:83:8d:ba:48:a1:5a:44:
                    35:90:93:1d:35:80:85:7f:0b:22:ac:f4:38:19:a1:
                    e3:07:90:a6:6e:3e:a6:55:3b:13:8a:f8:0f:cd:ae:
                    6a:ea:1c:5b:0f:22:ca:ec:e7:09:3b:40:05:63:bb:
                    9f:d7:d6:c9:29:9f:f5:06:42:59:8c:47:00:5a:41:
                    42:ce:b3:51:5a:80:0f:b9:e1:15:d4:ea:a5:0f:5b:
                    46:26:84:9e:31:38:1e:20:1c:70:f5:be:30:0a:12:
                    c4:59:ef:fe:b3:73:13:32:3a:6f:8c:d4:36:ca:45:
                    31:f8:35:68:d5:5a:99:d8:f1:76:95:19:d4:61:b5:
                    3a:47:f4:c8:f2:72:92:a1:17:e0:f6:65:dc:b6:b5:
                    05:ed:aa:ed:86:75:c3:27:51:e7:6d:d7:77:e7:f7:
                    10:ee:3f:83:e8:a6:11:34:8a:9f:c8:32:09:fe:91:
                    be:26:f5:ef:92:f8:af:65:95:d4:25:d0:1f:b8:05:
                    c1:96:02:a1:de:96:1d:8a:b9:4d
                Exponent: 65537 (0x10001)
        X509v3 extensions:
            X509v3 Subject Alternative Name: 
                DNS:localhost
            X509v3 Key Usage: critical
                Digital Signature, Key Encipherment
            X509v3 Extended Key Usage: 
                TLS Web Server Authentication, TLS Web Client Authentication
            X509v3 Basic Constraints: critical
                CA:FALSE
            X509v3 Subject Key Identifier: 
                8F:EA:1D:E3:33:5C:00:16:B3:8B:6F:6B:6F:D3:4C:CB:B5:CB:7C:55
            X509v3 Authority Key Identifier: 
                keyid:DD:BF:CA:DA:E6:D1:34:BA:37:75:21:CA:6F:9A:08:28:F2:35:B6:48
                DirName:/C=XY/O=Python Software Foundation CA/CN=our-ca-server
                serial:CB:2D:80:99:5A:69:52:5B

            Authority Information Access: 
                CA Issuers - URI:http://testca.pythontest.net/testca/pycacert.cer
                OCSP - URI:http://testca.pythontest.net/testca/ocsp/

            X509v3 CRL Distribution Points: 

                Full Name:
                  URI:http://testca.pythontest.net/testca/revocation.crl

    Signature Algorithm: sha256WithRSAEncryption
         27:f5:8c:59:10:f4:c6:e7:28:00:bf:ba:8d:7b:13:03:f1:1c:
         a6:5f:b3:06:55:a4:22:b9:db:b2:d5:46:bd:f7:0c:dd:43:6e:
         b4:79:65:67:21:0c:2a:55:ee:40:8e:85:9f:9f:47:bb:0a:2a:
         4d:b6:64:74:98:a0:7f:ae:dc:f1:2e:db:42:77:18:e0:75:8b:
         26:35:68:c3:41:ed:6b:c8:77:72:6f:6a:9a:5d:55:69:02:fd:
         5a:54:c8:57:cb:b0:65:03:16:e2:0f:00:39:99:66:a0:9b:88:
         93:17:e2:5a:2d:79:35:5f:97:57:78:c4:af:f5:99:5e:86:ab:
         d3:11:ad:1a:a2:0d:fa:52:10:b9:fe:bf:9d:ce:33:d9:86:b2:
         9c:16:f8:d6:75:08:8a:db:0a:e5:b4:2b:16:7f:b4:f9:2a:9f:
         c3:d2:77:d7:cd:65:1e:f4:6c:1e:eb:59:b9:f0:ae:5f:a4:1f:
         cc:4a:c4:b9:7a:a9:d9:6b:32:68:3b:e1:65:b0:84:b7:90:c4:
         ae:fe:f4:37:4f:21:a0:de:9f:3a:b1:e5:cc:16:04:66:3f:0b:
         41:dc:42:3d:20:3e:ec:b7:95:2b:35:57:fa:be:7f:b6:3a:ba:
         ca:4f:58:fe:75:3e:08:89:2c:8c:b0:5d:2e:f9:89:10:2b:f9:
         41:46:4f:3c:00:b7:27:d3:65:24:28:17:23:26:31:42:ea:7e:
         4e:93:e4:7b:68:54:ca:9f:46:f3:ef:2b:e9:85:0c:b5:84:b2:
         d5:35:34:80:75:2b:f0:91:23:b8:08:01:8e:b9:0a:54:d4:fb:
         34:52:fe:d9:45:f0:80:3b:b6:c1:6f:82:d1:1f:f2:3b:08:f6:
         46:a6:96:27:61:4b:58:32:7a:0e:1d:59:c5:44:ad:5e:1a:79:
         33:c1:d4:05:2f:4a:d3:d8:42:42:8d:33:e3:63:ca:d5:87:97:
         9b:4d:b8:1a:03:34:bb:1c:d2:02:3f:59:23:e2:23:80:88:63:
         c2:f0:a2:63:a8:8b
-----BEGIN CERTIFICATE-----
MIIF8TCCBFmgAwIBAgIJAMstgJlaaVJcMA0GCSqGSIb3DQEBCwUAME0xCzAJBgNV
BAYTAlhZMSYwJAYDVQQKDB1QeXRob24gU29mdHdhcmUgRm91bmRhdGlvbiBDQTEW
MBQGA1UEAwwNb3VyLWNhLXNlcnZlcjAeFw0xODA4MjkxNDIzMTZaFw0yODA3MDcx
NDIzMTZaMF8xCzAJBgNVBAYTAlhZMRcwFQYDVQQHDA5DYXN0bGUgQW50aHJheDEj
MCEGA1UECgwaUHl0aG9uIFNvZnR3YXJlIEZvdW5kYXRpb24xEjAQBgNVBAMMCWxv
Y2FsaG9zdDCCAaIwDQYJKoZIhvcNAQEBBQADggGPADCCAYoCggGBAJ8oLzdB739k
YxZiFukBFGIpyjqYkj0I015p/sDz1MT7DljcZLBLy7OqnkLpB5tnM8256DwdihPA
3zlnfEzTfr9DD0qFBW2H5cMCoz7X17koeRhzGDd3dkjUeBjXvR5qRosG8wM3lQug
U7AizY+3Azaj1yN3mZ9K5a20jr58Kqinz+Xxx6sb2JfYYff2neJbBahNm5id0AD2
pi/TthZqO5DURJYo+MdgZOcy+7jEjOJsLWZd3Yzq78iM07qDjbpIoVpENZCTHTWA
hX8LIqz0OBmh4weQpm4+plU7E4r4D82uauocWw8iyuznCTtABWO7n9fWySmf9QZC
WYxHAFpBQs6zUVqAD7nhFdTqpQ9bRiaEnjE4HiAccPW+MAoSxFnv/rNzEzI6b4zU
NspFMfg1aNVamdjxdpUZ1GG1Okf0yPJykqEX4PZl3La1Be2q7YZ1wydR523Xd+f3
EO4/g+imETSKn8gyCf6Rvib175L4r2WV1CXQH7gFwZYCod6WHYq5TQIDAQABo4IB
wDCCAbwwFAYDVR0RBA0wC4IJbG9jYWxob3N0MA4GA1UdDwEB/wQEAwIFoDAdBgNV
HSUEFjAUBggrBgEFBQcDAQYIKwYBBQUHAwIwDAYDVR0TAQH/BAIwADAdBgNVHQ4E
FgQUj+od4zNcABazi29rb9NMy7XLfFUwfQYDVR0jBHYwdIAU3b/K2ubRNLo3dSHK
b5oIKPI1tkihUaRPME0xCzAJBgNVBAYTAlhZMSYwJAYDVQQKDB1QeXRob24gU29m
dHdhcmUgRm91bmRhdGlvbiBDQTEWMBQGA1UEAwwNb3VyLWNhLXNlcnZlcoIJAMst
gJlaaVJbMIGDBggrBgEFBQcBAQR3MHUwPAYIKwYBBQUHMAKGMGh0dHA6Ly90ZXN0
Y2EucHl0aG9udGVzdC5uZXQvdGVzdGNhL3B5Y2FjZXJ0LmNlcjA1BggrBgEFBQcw
AYYpaHR0cDovL3Rlc3RjYS5weXRob250ZXN0Lm5ldC90ZXN0Y2Evb2NzcC8wQwYD
VR0fBDwwOjA4oDagNIYyaHR0cDovL3Rlc3RjYS5weXRob250ZXN0Lm5ldC90ZXN0
Y2EvcmV2b2NhdGlvbi5jcmwwDQYJKoZIhvcNAQELBQADggGBACf1jFkQ9MbnKAC/
uo17EwPxHKZfswZVpCK527LVRr33DN1DbrR5ZWchDCpV7kCOhZ+fR7sKKk22ZHSY
oH+u3PEu20J3GOB1iyY1aMNB7WvId3JvappdVWkC/VpUyFfLsGUDFuIPADmZZqCb
iJMX4loteTVfl1d4xK/1mV6Gq9MRrRqiDfpSELn+v53OM9mGspwW+NZ1CIrbCuW0
KxZ/tPkqn8PSd9fNZR70bB7rWbnwrl+kH8xKxLl6qdlrMmg74WWwhLeQxK7+9DdP
IaDenzqx5cwWBGY/C0HcQj0gPuy3lSs1V/q+f7Y6uspPWP51PgiJLIywXS75iRAr
+UFGTzwAtyfTZSQoFyMmMULqfk6T5HtoVMqfRvPvK+mFDLWEstU1NIB1K/CRI7gI
AY65ClTU+zRS/tlF8IA7tsFvgtEf8jsI9kamlidhS1gyeg4dWcVErV4aeTPB1AUv
StPYQkKNM+NjytWHl5tNuBoDNLsc0gI/WSPiI4CIY8LwomOoiw==
-----END CERTIFICATE-----
