-----BEGIN PRIVATE KEY-----
MIICdgIBADANBgkqhkiG9w0BAQEFAASCAmAwggJcAgEAAoGBAK5UQiMI5VkNs2Qv
L7gUaiDdFevNUXRjU4DHAe3ZzzYLZNE69h9gO9VCSS16tJ5fT5VEu0EZyGr0e3V2
NkX0ZoU0Hc/UaY4qx7LHmn5SYZpIxhJnkf7SyHJK1zUaGlU0/LxYqIuGCtF5dqx1
L2OQhEx1GM6RydHdgX69G64LXcY5AgMBAAECgYAhsRMfJkb9ERLMl/oG/5sLQu9L
pWDKt6+ZwdxzlZbggQ85CMYshjLKIod2DLL/sLf2x1PRXyRG131M1E3k8zkkz6de
R1uDrIN/x91iuYzfLQZGh8bMY7Yjd2eoroa6R/7DjpElGejLxOAaDWO0ST2IFQy9
myTGS2jSM97wcXfsSQJBANP3jelJoS5X6BRjTSneY21wcocxVuQh8pXpErALVNsT
drrFTeaBuZp7KvbtnIM5g2WRNvaxLZlAY/hXPJvi6ncCQQDSix1cebml6EmPlEZS
Mm8gwI2F9ufUunwJmBJcz826Do0ZNGByWDAM/JQZH4FX4GfAFNuj8PUb+GQfadkx
i1DPAkEA0lVsNHojvuDsIo8HGuzarNZQT2beWjJ1jdxh9t7HrTx7LIps6rb/fhOK
Zs0R6gVAJaEbcWAPZ2tFyECInAdnsQJAUjaeXXjuxFkjOFym5PvqpvhpivEx78Bu
JPTr3rAKXmfGMxxfuOa0xK1wSyshP6ZR/RBn/+lcXPKubhHQDOegwwJAJF1DBQnN
+/tLmOPULtDwfP4Zixn+/8GmGOahFoRcu6VIGHmRilJTn6MOButw7Glv2YdeC6l/
e83Gq6ffLVfKNQ==
-----END PRIVATE KEY-----
Certificate:
    Data:
        Version: 1 (0x0)
        Serial Number: 12723342612721443282 (0xb09264b1f2da21d2)
    Signature Algorithm: sha1WithRSAEncryption
        Issuer: C=XY, O=Python Software Foundation CA, CN=our-ca-server
        Validity
            Not Before: Jan  4 19:47:07 2013 GMT
            Not After : Nov 13 19:47:07 2022 GMT
        Subject: C=XY, L=Castle Anthrax, O=Python Software Foundation, CN=fakehostname
        Subject Public Key Info:
            Public Key Algorithm: rsaEncryption
                Public-Key: (1024 bit)
                Modulus:
                    00:ae:54:42:23:08:e5:59:0d:b3:64:2f:2f:b8:14:
                    6a:20:dd:15:eb:cd:51:74:63:53:80:c7:01:ed:d9:
                    cf:36:0b:64:d1:3a:f6:1f:60:3b:d5:42:49:2d:7a:
                    b4:9e:5f:4f:95:44:bb:41:19:c8:6a:f4:7b:75:76:
                    36:45:f4:66:85:34:1d:cf:d4:69:8e:2a:c7:b2:c7:
                    9a:7e:52:61:9a:48:c6:12:67:91:fe:d2:c8:72:4a:
                    d7:35:1a:1a:55:34:fc:bc:58:a8:8b:86:0a:d1:79:
                    76:ac:75:2f:63:90:84:4c:75:18:ce:91:c9:d1:dd:
                    81:7e:bd:1b:ae:0b:5d:c6:39
                Exponent: 65537 (0x10001)
    Signature Algorithm: sha1WithRSAEncryption
         ad:45:8a:8e:ef:c6:ef:04:41:5c:2c:4a:84:dc:02:76:0c:d0:
         66:0f:f0:16:04:58:4d:fd:68:b7:b8:d3:a8:41:a5:5c:3c:6f:
         65:3c:d1:f8:ce:43:35:e7:41:5f:53:3d:c9:2c:c3:7d:fc:56:
         4a:fa:47:77:38:9d:bb:97:28:0a:3b:91:19:7f:bc:74:ae:15:
         6b:bd:20:36:67:45:a5:1e:79:d7:75:e6:89:5c:6d:54:84:d1:
         95:d7:a7:b4:33:3c:af:37:c4:79:8f:5e:75:dc:75:c2:18:fb:
         61:6f:2d:dc:38:65:5b:ba:67:28:d0:88:d7:8d:b9:23:5a:8e:
         e8:c6:bb:db:ce:d5:b8:41:2a:ce:93:08:b6:95:ad:34:20:18:
         d5:3b:37:52:74:50:0b:07:2c:b0:6d:a4:4c:7b:f4:e0:fd:d1:
         af:17:aa:20:cd:62:e3:f0:9d:37:69:db:41:bd:d4:1c:fb:53:
         20:da:88:9d:76:26:67:ce:01:90:a7:80:1d:a9:5b:39:73:68:
         54:0a:d1:2a:03:1b:8f:3c:43:5d:5d:c4:51:f1:a7:e7:11:da:
         31:2c:49:06:af:04:f4:b8:3c:99:c4:20:b9:06:36:a2:00:92:
         61:1d:0c:6d:24:05:e2:82:e1:47:db:a0:5f:ba:b9:fb:ba:fa:
         49:12:1e:ce
-----BEGIN CERTIFICATE-----
MIICpzCCAY8CCQCwkmSx8toh0jANBgkqhkiG9w0BAQUFADBNMQswCQYDVQQGEwJY
WTEmMCQGA1UECgwdUHl0aG9uIFNvZnR3YXJlIEZvdW5kYXRpb24gQ0ExFjAUBgNV
BAMMDW91ci1jYS1zZXJ2ZXIwHhcNMTMwMTA0MTk0NzA3WhcNMjIxMTEzMTk0NzA3
WjBiMQswCQYDVQQGEwJYWTEXMBUGA1UEBxMOQ2FzdGxlIEFudGhyYXgxIzAhBgNV
BAoTGlB5dGhvbiBTb2Z0d2FyZSBGb3VuZGF0aW9uMRUwEwYDVQQDEwxmYWtlaG9z
dG5hbWUwgZ8wDQYJKoZIhvcNAQEBBQADgY0AMIGJAoGBAK5UQiMI5VkNs2QvL7gU
aiDdFevNUXRjU4DHAe3ZzzYLZNE69h9gO9VCSS16tJ5fT5VEu0EZyGr0e3V2NkX0
ZoU0Hc/UaY4qx7LHmn5SYZpIxhJnkf7SyHJK1zUaGlU0/LxYqIuGCtF5dqx1L2OQ
hEx1GM6RydHdgX69G64LXcY5AgMBAAEwDQYJKoZIhvcNAQEFBQADggEBAK1Fio7v
xu8EQVwsSoTcAnYM0GYP8BYEWE39aLe406hBpVw8b2U80fjOQzXnQV9TPcksw338
Vkr6R3c4nbuXKAo7kRl/vHSuFWu9IDZnRaUeedd15olcbVSE0ZXXp7QzPK83xHmP
XnXcdcIY+2FvLdw4ZVu6ZyjQiNeNuSNajujGu9vO1bhBKs6TCLaVrTQgGNU7N1J0
UAsHLLBtpEx79OD90a8XqiDNYuPwnTdp20G91Bz7UyDaiJ12JmfOAZCngB2pWzlz
aFQK0SoDG488Q11dxFHxp+cR2jEsSQavBPS4PJnEILkGNqIAkmEdDG0kBeKC4Ufb
oF+6ufu6+kkSHs4=
-----END CERTIFICATE-----
