Certificate:
    Data:
        Version: 3 (0x2)
        Serial Number:
            82:ed:bf:41:c8:80:91:9b
    Signature Algorithm: sha1WithRSAEncryption
        Issuer: C=XY, O=Python Software Foundation CA, CN=our-ca-server
        Validity
            Not Before: Jan 19 19:09:06 2018 GMT
            Not After : Jan 17 19:09:06 2028 GMT
        Subject: C=XY, O=Python Software Foundation CA, CN=our-ca-server
        Subject Public Key Info:
            Public Key Algorithm: rsaEncryption
                Public-Key: (2048 bit)
                Modulus:
                    00:c3:18:69:6b:c9:47:29:98:8e:b1:56:c2:2e:fa:
                    0e:5e:bc:23:80:b3:07:62:24:d2:42:5b:f1:4a:bf:
                    a9:c8:21:75:c8:e3:e6:2c:1f:87:3c:6e:7c:1b:ed:
                    39:32:95:b7:40:b2:60:48:c3:9a:16:08:fe:6d:67:
                    88:34:3b:77:77:70:1c:70:5a:d1:1f:5f:04:21:54:
                    b9:0c:e3:41:85:1d:58:ee:2f:ed:f3:0e:ef:d8:23:
                    a1:fa:73:fb:4c:28:e0:e5:e6:4d:0b:02:52:49:86:
                    c7:be:7e:bd:e6:56:76:8b:70:8e:0a:8f:06:33:20:
                    1d:7b:5b:aa:d0:c5:1b:ab:9b:cc:54:09:3c:bf:e4:
                    40:66:f1:fb:d6:f7:16:9d:c4:19:d4:c3:f2:ff:07:
                    bc:6f:5a:9e:25:1b:02:4a:a5:ec:42:96:3a:70:d2:
                    6c:99:2b:ce:be:e8:d2:01:ef:d5:ba:b0:cf:94:3e:
                    82:d0:01:d6:4b:71:80:03:0a:12:45:86:79:81:d8:
                    4b:d2:e8:b5:b7:2c:6c:9a:4c:8a:10:10:e4:e4:f5:
                    df:ce:84:91:ca:d1:46:e0:84:73:17:66:db:69:43:
                    78:80:83:be:14:4d:f1:3e:1a:d6:6c:f5:de:45:f3:
                    39:af:91:d5:3d:54:44:bf:41:cc:73:68:1a:fc:24:
                    db:91
                Exponent: 65537 (0x10001)
        X509v3 extensions:
            X509v3 Subject Key Identifier: 
                9A:CF:CF:6E:EB:71:3D:DB:3C:F1:AE:88:6B:56:72:03:CB:08:A7:48
            X509v3 Authority Key Identifier: 
                keyid:9A:CF:CF:6E:EB:71:3D:DB:3C:F1:AE:88:6B:56:72:03:CB:08:A7:48

            X509v3 Basic Constraints: 
                CA:TRUE
    Signature Algorithm: sha1WithRSAEncryption
         10:25:c8:dc:0c:55:5c:cb:83:6e:79:ef:77:ec:0d:8e:0c:06:
         c1:4b:0c:d6:f7:75:52:21:b8:17:4a:38:88:9d:b3:78:c4:42:
         fb:b8:7c:14:38:10:fb:ac:da:11:00:5b:42:87:5e:45:9f:6d:
         4e:42:a4:9a:18:06:39:0f:45:a6:96:89:32:d6:59:b3:d3:8e:
         e3:95:b6:c4:a2:4b:74:2f:67:c1:fb:bb:f9:72:6f:37:4a:e7:
         f4:48:33:71:df:b8:f5:e6:41:3f:d5:d5:2f:26:09:f8:0e:92:
         ff:70:ea:f6:ab:58:fb:90:04:d6:43:2e:8f:b1:fb:06:ab:69:
         d0:dc:a8:f8:5b:07:f2:d4:66:1f:63:f8:5d:c1:9e:41:44:bb:
         c9:e8:7d:e0:46:e4:a7:c8:32:5f:31:62:e5:1c:5c:89:dd:b7:
         a2:4f:9e:0d:13:b8:5f:b1:84:53:4c:1f:ce:19:e1:01:00:5e:
         bf:41:55:94:a9:a5:13:db:f2:59:f3:d6:4e:b9:9d:9d:b9:0a:
         d9:b2:18:6d:7c:b1:f7:96:aa:bd:f6:f9:95:0f:4a:6e:3c:7c:
         46:5b:df:d4:78:ec:9a:dc:e2:e3:01:e6:88:77:39:93:9c:ba:
         2a:63:f9:25:4b:4f:ac:08:79:39:c6:7b:df:07:35:ba:c0:c2:
         50:bf:5a:81
-----BEGIN CERTIFICATE-----
MIIDbTCCAlWgAwIBAgIJAILtv0HIgJGbMA0GCSqGSIb3DQEBBQUAME0xCzAJBgNV
BAYTAlhZMSYwJAYDVQQKDB1QeXRob24gU29mdHdhcmUgRm91bmRhdGlvbiBDQTEW
MBQGA1UEAwwNb3VyLWNhLXNlcnZlcjAeFw0xODAxMTkxOTA5MDZaFw0yODAxMTcx
OTA5MDZaME0xCzAJBgNVBAYTAlhZMSYwJAYDVQQKDB1QeXRob24gU29mdHdhcmUg
Rm91bmRhdGlvbiBDQTEWMBQGA1UEAwwNb3VyLWNhLXNlcnZlcjCCASIwDQYJKoZI
hvcNAQEBBQADggEPADCCAQoCggEBAMMYaWvJRymYjrFWwi76Dl68I4CzB2Ik0kJb
8Uq/qcghdcjj5iwfhzxufBvtOTKVt0CyYEjDmhYI/m1niDQ7d3dwHHBa0R9fBCFU
uQzjQYUdWO4v7fMO79gjofpz+0wo4OXmTQsCUkmGx75+veZWdotwjgqPBjMgHXtb
qtDFG6ubzFQJPL/kQGbx+9b3Fp3EGdTD8v8HvG9aniUbAkql7EKWOnDSbJkrzr7o
0gHv1bqwz5Q+gtAB1ktxgAMKEkWGeYHYS9LotbcsbJpMihAQ5OT1386EkcrRRuCE
cxdm22lDeICDvhRN8T4a1mz13kXzOa+R1T1URL9BzHNoGvwk25ECAwEAAaNQME4w
HQYDVR0OBBYEFJrPz27rcT3bPPGuiGtWcgPLCKdIMB8GA1UdIwQYMBaAFJrPz27r
cT3bPPGuiGtWcgPLCKdIMAwGA1UdEwQFMAMBAf8wDQYJKoZIhvcNAQEFBQADggEB
ABAlyNwMVVzLg25573fsDY4MBsFLDNb3dVIhuBdKOIids3jEQvu4fBQ4EPus2hEA
W0KHXkWfbU5CpJoYBjkPRaaWiTLWWbPTjuOVtsSiS3QvZ8H7u/lybzdK5/RIM3Hf
uPXmQT/V1S8mCfgOkv9w6varWPuQBNZDLo+x+waradDcqPhbB/LUZh9j+F3BnkFE
u8nofeBG5KfIMl8xYuUcXIndt6JPng0TuF+xhFNMH84Z4QEAXr9BVZSppRPb8lnz
1k65nZ25CtmyGG18sfeWqr32+ZUPSm48fEZb39R47Jrc4uMB5oh3OZOcuipj+SVL
T6wIeTnGe98HNbrAwlC/WoE=
-----END CERTIFICATE-----
