Certificate:
    Data:
        Version: 3 (0x2)
        Serial Number:
            cb:2d:80:99:5a:69:52:5b
    Signature Algorithm: sha256WithRSAEncryption
        Issuer: C=XY, O=Python Software Foundation CA, CN=our-ca-server
        Validity
            Not Before: Aug 29 14:23:16 2018 GMT
            Not After : Aug 26 14:23:16 2028 GMT
        Subject: C=XY, O=Python Software Foundation CA, CN=our-ca-server
        Subject Public Key Info:
            Public Key Algorithm: rsaEncryption
                Public-Key: (3072 bit)
                Modulus:
                    00:97:ed:55:41:ba:36:17:95:db:71:1c:d3:e1:61:
                    ac:58:73:e3:c6:96:cf:2b:1f:b8:08:f5:9d:4b:4b:
                    c7:30:f6:b8:0b:b3:52:72:a0:bb:c9:4d:3b:8e:df:
                    22:8e:01:57:81:c9:92:73:cc:00:c6:ec:70:b0:3a:
                    17:40:c1:df:f2:8c:36:4c:c4:a7:81:e7:b6:24:68:
                    e2:a0:7e:35:07:2f:a0:5b:f9:45:46:f7:1e:f0:46:
                    11:fe:ca:1a:3c:50:f1:26:a9:5f:9c:22:9c:f8:41:
                    e1:df:4f:12:95:19:2f:5c:90:01:17:6e:7e:3e:7d:
                    cf:e9:09:af:25:f8:f8:42:77:2d:6d:5f:36:f2:78:
                    1e:7d:4a:87:68:63:6c:06:71:1b:8d:fa:25:fe:d4:
                    d3:f5:a5:17:b1:ef:ea:17:cb:54:c8:27:99:80:cb:
                    3c:45:f1:2c:52:1c:dd:1f:51:45:20:50:1e:5e:ab:
                    57:73:1b:41:78:96:de:84:a4:7a:dd:8f:30:85:36:
                    58:79:76:a0:d2:61:c8:1b:a9:94:99:63:c6:ee:f8:
                    14:bf:b4:52:56:31:97:fa:eb:ac:53:9e:95:ce:4c:
                    c4:5a:4a:b7:ca:03:27:5b:35:57:ce:02:dc:ec:ca:
                    69:f8:8a:5a:39:cb:16:20:15:03:24:61:6c:f4:7a:
                    fc:b6:48:e5:59:10:5c:49:d0:23:9f:fb:71:5e:3a:
                    e9:68:9f:34:72:80:27:b6:3f:4c:b1:d9:db:63:7f:
                    67:68:4a:6e:11:f8:e8:c0:f4:5a:16:39:53:0b:68:
                    de:77:fa:45:e7:f8:91:cd:78:cd:28:94:97:71:54:
                    fb:cf:f0:37:de:c9:26:c5:dc:1b:9e:89:6d:09:ac:
                    c8:44:71:cb:6d:f1:97:31:d5:4c:20:33:bf:75:4a:
                    a0:e0:dc:69:11:ed:2a:b4:64:10:11:30:8b:0e:b0:
                    a7:10:d8:8a:c5:aa:1b:c8:26:8a:25:e7:66:9f:a5:
                    6a:1a:2f:7c:5f:83:c6:78:4f:1f
                Exponent: 65537 (0x10001)
        X509v3 extensions:
            X509v3 Subject Key Identifier: 
                DD:BF:CA:DA:E6:D1:34:BA:37:75:21:CA:6F:9A:08:28:F2:35:B6:48
            X509v3 Authority Key Identifier: 
                keyid:DD:BF:CA:DA:E6:D1:34:BA:37:75:21:CA:6F:9A:08:28:F2:35:B6:48

            X509v3 Basic Constraints: 
                CA:TRUE
    Signature Algorithm: sha256WithRSAEncryption
         33:6a:54:d3:6b:c0:d7:01:5f:9d:f4:05:c1:93:66:90:50:d0:
         b7:18:e9:b0:1e:4a:a0:b6:da:76:93:af:84:db:ad:15:54:31:
         15:13:e4:de:7e:4e:0c:d5:09:1c:34:35:b6:e5:4c:d6:6f:65:
         7d:32:5f:eb:fc:a9:6b:07:f7:49:82:e5:81:7e:07:80:9a:63:
         f8:2c:c3:40:bc:8f:d4:2a:da:3e:d1:ee:08:b7:4d:a7:84:ca:
         f4:3f:a1:98:45:be:b1:05:69:e7:df:d7:99:ab:1b:ee:8b:30:
         cc:f7:fc:e7:d4:0b:17:ae:97:bf:e4:7b:fd:0f:a7:b4:85:79:
         e3:59:e2:16:87:bf:1f:29:45:2c:23:93:76:be:c0:87:1d:de:
         ec:2b:42:6a:e5:bb:c8:f4:0a:4a:08:0a:8c:5c:d8:7d:4d:d1:
         b8:bf:d5:f7:29:ed:92:d1:94:04:e8:35:06:57:7f:2c:23:97:
         87:a5:35:8d:26:d3:1a:47:f2:16:d7:d9:c6:d4:1f:23:43:d3:
         26:99:39:ca:20:f4:71:23:6f:0c:4a:76:76:f7:76:1f:b3:fe:
         bf:47:b0:fc:2a:56:81:e1:d2:dd:ee:08:d8:f4:ff:5a:dc:25:
         61:8a:91:02:b9:86:1c:f2:50:73:76:25:35:fc:b6:25:26:15:
         cb:eb:c4:2b:61:0c:1c:e7:ee:2f:17:9b:ec:f0:d4:a1:84:e7:
         d2:af:de:e4:1b:24:14:a7:01:87:e3:ab:29:58:46:a0:d9:c0:
         0a:e0:8d:d7:59:d3:1b:f8:54:20:3e:78:a5:a5:c8:4f:8b:03:
         c4:96:9f:ec:fb:47:cf:76:2d:8d:65:34:27:bf:fa:ae:01:05:
         8a:f3:92:0a:dd:89:6c:97:a1:c7:e7:60:51:e7:ac:eb:4b:7d:
         2c:b8:65:c9:fe:5d:6a:48:55:8e:e4:c7:f9:6a:40:e1:b8:64:
         45:e9:b5:59:29:a5:5f:cf:7d:58:7d:64:79:e5:a4:09:ac:1e:
         76:65:3d:94:c4:68
-----BEGIN CERTIFICATE-----
MIIEbTCCAtWgAwIBAgIJAMstgJlaaVJbMA0GCSqGSIb3DQEBCwUAME0xCzAJBgNV
BAYTAlhZMSYwJAYDVQQKDB1QeXRob24gU29mdHdhcmUgRm91bmRhdGlvbiBDQTEW
MBQGA1UEAwwNb3VyLWNhLXNlcnZlcjAeFw0xODA4MjkxNDIzMTZaFw0yODA4MjYx
NDIzMTZaME0xCzAJBgNVBAYTAlhZMSYwJAYDVQQKDB1QeXRob24gU29mdHdhcmUg
Rm91bmRhdGlvbiBDQTEWMBQGA1UEAwwNb3VyLWNhLXNlcnZlcjCCAaIwDQYJKoZI
hvcNAQEBBQADggGPADCCAYoCggGBAJftVUG6NheV23Ec0+FhrFhz48aWzysfuAj1
nUtLxzD2uAuzUnKgu8lNO47fIo4BV4HJknPMAMbscLA6F0DB3/KMNkzEp4HntiRo
4qB+NQcvoFv5RUb3HvBGEf7KGjxQ8SapX5winPhB4d9PEpUZL1yQARdufj59z+kJ
ryX4+EJ3LW1fNvJ4Hn1Kh2hjbAZxG436Jf7U0/WlF7Hv6hfLVMgnmYDLPEXxLFIc
3R9RRSBQHl6rV3MbQXiW3oSket2PMIU2WHl2oNJhyBuplJljxu74FL+0UlYxl/rr
rFOelc5MxFpKt8oDJ1s1V84C3OzKafiKWjnLFiAVAyRhbPR6/LZI5VkQXEnQI5/7
cV466WifNHKAJ7Y/TLHZ22N/Z2hKbhH46MD0WhY5Uwto3nf6Ref4kc14zSiUl3FU
+8/wN97JJsXcG56JbQmsyERxy23xlzHVTCAzv3VKoODcaRHtKrRkEBEwiw6wpxDY
isWqG8gmiiXnZp+lahovfF+DxnhPHwIDAQABo1AwTjAdBgNVHQ4EFgQU3b/K2ubR
NLo3dSHKb5oIKPI1tkgwHwYDVR0jBBgwFoAU3b/K2ubRNLo3dSHKb5oIKPI1tkgw
DAYDVR0TBAUwAwEB/zANBgkqhkiG9w0BAQsFAAOCAYEAM2pU02vA1wFfnfQFwZNm
kFDQtxjpsB5KoLbadpOvhNutFVQxFRPk3n5ODNUJHDQ1tuVM1m9lfTJf6/ypawf3
SYLlgX4HgJpj+CzDQLyP1CraPtHuCLdNp4TK9D+hmEW+sQVp59/Xmasb7oswzPf8
59QLF66Xv+R7/Q+ntIV541niFoe/HylFLCOTdr7Ahx3e7CtCauW7yPQKSggKjFzY
fU3RuL/V9yntktGUBOg1Bld/LCOXh6U1jSbTGkfyFtfZxtQfI0PTJpk5yiD0cSNv
DEp2dvd2H7P+v0ew/CpWgeHS3e4I2PT/WtwlYYqRArmGHPJQc3YlNfy2JSYVy+vE
K2EMHOfuLxeb7PDUoYTn0q/e5BskFKcBh+OrKVhGoNnACuCN11nTG/hUID54paXI
T4sDxJaf7PtHz3YtjWU0J7/6rgEFivOSCt2JbJehx+dgUees60t9LLhlyf5dakhV
juTH+WpA4bhkRem1WSmlX899WH1keeWkCawedmU9lMRo
-----END CERTIFICATE-----
