; Listing generated by Microsoft (R) Optimizing Compiler Version 19.27.29112.0 

include listing.inc

INCLUDELIB OLDNAMES

PUBLIC	??_C@_02DKCKIIND@?$CFs@				; `string'
PUBLIC	??_C@_07EBNKNFJN@?$DMfd?3?$CFd?$DO@		; `string'
PUBLIC	??_C@_0O@BNNCBLEN@out?5of?5memory@		; `string'
PUBLIC	??_C@_00CNPNBAHC@@				; `string'
PUBLIC	??_C@_02LMMGGCAJ@?3?5@				; `string'
PUBLIC	??_C@_06DIJPEION@?$CFs?$CFs?$CFs@		; `string'
EXTRN	__imp_malloc:PROC
EXTRN	__imp_free:PROC
EXTRN	__imp___stdio_common_vsprintf:PROC
EXTRN	__imp_wcstombs:PROC
EXTRN	__imp__open:PROC
EXTRN	__imp__wopen:PROC
EXTRN	__imp__lseeki64:PROC
;	COMDAT ??_C@_06DIJPEION@?$CFs?$CFs?$CFs@
CONST	SEGMENT
??_C@_06DIJPEION@?$CFs?$CFs?$CFs@ DB '%s%s%s', 00H	; `string'
CONST	ENDS
;	COMDAT ??_C@_02LMMGGCAJ@?3?5@
CONST	SEGMENT
??_C@_02LMMGGCAJ@?3?5@ DB ': ', 00H			; `string'
CONST	ENDS
;	COMDAT ??_C@_00CNPNBAHC@@
CONST	SEGMENT
??_C@_00CNPNBAHC@@ DB 00H				; `string'
CONST	ENDS
;	COMDAT ??_C@_0O@BNNCBLEN@out?5of?5memory@
CONST	SEGMENT
??_C@_0O@BNNCBLEN@out?5of?5memory@ DB 'out of memory', 00H ; `string'
CONST	ENDS
;	COMDAT ??_C@_07EBNKNFJN@?$DMfd?3?$CFd?$DO@
CONST	SEGMENT
??_C@_07EBNKNFJN@?$DMfd?3?$CFd?$DO@ DB '<fd:%d>', 00H	; `string'
CONST	ENDS
;	COMDAT ??_C@_02DKCKIIND@?$CFs@
CONST	SEGMENT
??_C@_02DKCKIIND@?$CFs@ DB '%s', 00H			; `string'
PUBLIC	gz_error
PUBLIC	gzclearerr
PUBLIC	gzerror
PUBLIC	gzeof
PUBLIC	gzoffset
PUBLIC	gzoffset64
PUBLIC	gztell
PUBLIC	gztell64
PUBLIC	gzseek
PUBLIC	gzseek64
PUBLIC	gzrewind
PUBLIC	gzbuffer
PUBLIC	gzopen_w
PUBLIC	gzdopen
PUBLIC	gzopen
PUBLIC	snprintf
PUBLIC	vsnprintf
PUBLIC	__local_stdio_printf_options
;	COMDAT pdata
pdata	SEGMENT
$pdata$gz_error DD imagerel $LN15
	DD	imagerel $LN15+253
	DD	imagerel $unwind$gz_error
pdata	ENDS
;	COMDAT pdata
pdata	SEGMENT
$pdata$gzoffset DD imagerel $LN4
	DD	imagerel $LN4+31
	DD	imagerel $unwind$gzoffset
pdata	ENDS
;	COMDAT pdata
pdata	SEGMENT
$pdata$gzoffset64 DD imagerel $LN9
	DD	imagerel $LN9+89
	DD	imagerel $unwind$gzoffset64
pdata	ENDS
;	COMDAT pdata
pdata	SEGMENT
$pdata$gztell DD imagerel $LN4
	DD	imagerel $LN4+32
	DD	imagerel $unwind$gztell
pdata	ENDS
;	COMDAT pdata
pdata	SEGMENT
$pdata$gzseek DD imagerel $LN4
	DD	imagerel $LN4+34
	DD	imagerel $unwind$gzseek
pdata	ENDS
;	COMDAT pdata
pdata	SEGMENT
$pdata$gzseek64 DD imagerel $LN27
	DD	imagerel $LN27+344
	DD	imagerel $unwind$gzseek64
pdata	ENDS
;	COMDAT pdata
pdata	SEGMENT
$pdata$gzrewind DD imagerel $LN8
	DD	imagerel $LN8+84
	DD	imagerel $unwind$gzrewind
pdata	ENDS
;	COMDAT pdata
pdata	SEGMENT
$pdata$gzdopen DD imagerel $LN6
	DD	imagerel $LN6+129
	DD	imagerel $unwind$gzdopen
pdata	ENDS
;	COMDAT pdata
pdata	SEGMENT
$pdata$gz_open DD imagerel gz_open
	DD	imagerel gz_open+64
	DD	imagerel $unwind$gz_open
pdata	ENDS
;	COMDAT pdata
pdata	SEGMENT
$pdata$1$gz_open DD imagerel gz_open+64
	DD	imagerel gz_open+620
	DD	imagerel $chain$1$gz_open
pdata	ENDS
;	COMDAT pdata
pdata	SEGMENT
$pdata$3$gz_open DD imagerel gz_open+620
	DD	imagerel gz_open+668
	DD	imagerel $chain$3$gz_open
pdata	ENDS
;	COMDAT pdata
pdata	SEGMENT
$pdata$4$gz_open DD imagerel gz_open+668
	DD	imagerel gz_open+814
	DD	imagerel $chain$4$gz_open
pdata	ENDS
;	COMDAT pdata
pdata	SEGMENT
$pdata$gz_reset DD imagerel gz_reset
	DD	imagerel gz_reset+67
	DD	imagerel $unwind$gz_reset
pdata	ENDS
;	COMDAT pdata
pdata	SEGMENT
$pdata$snprintf DD imagerel $LN6
	DD	imagerel $LN6+92
	DD	imagerel $unwind$snprintf
pdata	ENDS
;	COMDAT pdata
pdata	SEGMENT
$pdata$vsnprintf DD imagerel $LN4
	DD	imagerel $LN4+104
	DD	imagerel $unwind$vsnprintf
;	COMDAT xdata
xdata	SEGMENT
$unwind$vsnprintf DD 081401H
	DD	0a6414H
	DD	095414H
	DD	083414H
	DD	070105214H
xdata	ENDS
;	COMDAT xdata
xdata	SEGMENT
$unwind$snprintf DD 051201H
	DD	0700e6212H
	DD	0500c600dH
	DD	0300bH
xdata	ENDS
;	COMDAT xdata
xdata	SEGMENT
$unwind$gz_reset DD 040a01H
	DD	06340aH
	DD	07006320aH
xdata	ENDS
;	COMDAT xdata
xdata	SEGMENT
$chain$4$gz_open DD 021H
	DD	imagerel gz_open
	DD	imagerel gz_open+64
	DD	imagerel $unwind$gz_open
xdata	ENDS
;	COMDAT xdata
xdata	SEGMENT
$chain$3$gz_open DD 040021H
	DD	0b7400H
	DD	0a5400H
	DD	imagerel gz_open
	DD	imagerel gz_open+64
	DD	imagerel $unwind$gz_open
xdata	ENDS
;	COMDAT xdata
xdata	SEGMENT
$chain$1$gz_open DD 040a21H
	DD	0b740aH
	DD	0a5405H
	DD	imagerel gz_open
	DD	imagerel gz_open+64
	DD	imagerel $unwind$gz_open
xdata	ENDS
;	COMDAT xdata
xdata	SEGMENT
$unwind$gz_open DD 081201H
	DD	0c3412H
	DD	0f00e3212H
	DD	0d00ae00cH
	DD	06006c008H
xdata	ENDS
;	COMDAT xdata
xdata	SEGMENT
$unwind$gzdopen DD 060f01H
	DD	07640fH
	DD	06340fH
	DD	0700b320fH
xdata	ENDS
;	COMDAT xdata
xdata	SEGMENT
$unwind$gzrewind DD 020601H
	DD	030023206H
xdata	ENDS
;	COMDAT xdata
xdata	SEGMENT
$unwind$gzseek64 DD 060f01H
	DD	07640fH
	DD	06340fH
	DD	0700b320fH
xdata	ENDS
;	COMDAT xdata
xdata	SEGMENT
$unwind$gzseek DD 010401H
	DD	04204H
xdata	ENDS
;	COMDAT xdata
xdata	SEGMENT
$unwind$gztell DD 010401H
	DD	04204H
xdata	ENDS
;	COMDAT xdata
xdata	SEGMENT
$unwind$gzoffset64 DD 020601H
	DD	030023206H
xdata	ENDS
;	COMDAT xdata
xdata	SEGMENT
$unwind$gzoffset DD 010401H
	DD	04204H
xdata	ENDS
;	COMDAT xdata
xdata	SEGMENT
$unwind$gz_error DD 060f01H
	DD	09640fH
	DD	08340fH
	DD	0700b520fH
; Function compile flags: /Ogtpy
; File C:\Program Files (x86)\Windows Kits\10\Include\10.0.19041.0\ucrt\corecrt_stdio_config.h
;	COMDAT __local_stdio_printf_options
_TEXT	SEGMENT
__local_stdio_printf_options PROC			; COMDAT

; 91   :         static unsigned __int64 _OptionsStorage;
; 92   :         return &_OptionsStorage;

  00000	48 8d 05 00 00
	00 00		 lea	 rax, OFFSET FLAT:?_OptionsStorage@?1??__local_stdio_printf_options@@9@9 ; `__local_stdio_printf_options'::`2'::_OptionsStorage

; 93   :     }

  00007	c3		 ret	 0
__local_stdio_printf_options ENDP
_TEXT	ENDS
; Function compile flags: /Ogtpy
; File C:\Program Files (x86)\Windows Kits\10\Include\10.0.19041.0\ucrt\stdio.h
;	COMDAT vsnprintf
_TEXT	SEGMENT
_Buffer$ = 64
_BufferCount$ = 72
_Format$ = 80
_ArgList$ = 88
vsnprintf PROC						; COMDAT

; 1438 :     {

$LN4:
  00000	48 89 5c 24 08	 mov	 QWORD PTR [rsp+8], rbx
  00005	48 89 6c 24 10	 mov	 QWORD PTR [rsp+16], rbp
  0000a	48 89 74 24 18	 mov	 QWORD PTR [rsp+24], rsi
  0000f	57		 push	 rdi
  00010	48 83 ec 30	 sub	 rsp, 48			; 00000030H
  00014	49 8b d9	 mov	 rbx, r9
  00017	49 8b f8	 mov	 rdi, r8
  0001a	48 8b f2	 mov	 rsi, rdx
  0001d	48 8b e9	 mov	 rbp, rcx

; 1439 :         int const _Result = __stdio_common_vsprintf(

  00020	e8 00 00 00 00	 call	 __local_stdio_printf_options
  00025	48 89 5c 24 28	 mov	 QWORD PTR [rsp+40], rbx
  0002a	4c 8b cf	 mov	 r9, rdi
  0002d	4c 8b c6	 mov	 r8, rsi
  00030	48 c7 44 24 20
	00 00 00 00	 mov	 QWORD PTR [rsp+32], 0
  00039	48 8b d5	 mov	 rdx, rbp
  0003c	48 8b 08	 mov	 rcx, QWORD PTR [rax]
  0003f	48 83 c9 02	 or	 rcx, 2
  00043	ff 15 00 00 00
	00		 call	 QWORD PTR __imp___stdio_common_vsprintf

; 1440 :             _CRT_INTERNAL_LOCAL_PRINTF_OPTIONS | _CRT_INTERNAL_PRINTF_STANDARD_SNPRINTF_BEHAVIOR,
; 1441 :             _Buffer, _BufferCount, _Format, NULL, _ArgList);
; 1442 : 
; 1443 :         return _Result < 0 ? -1 : _Result;
; 1444 :     }

  00049	48 8b 5c 24 40	 mov	 rbx, QWORD PTR [rsp+64]
  0004e	b9 ff ff ff ff	 mov	 ecx, -1
  00053	48 8b 6c 24 48	 mov	 rbp, QWORD PTR [rsp+72]
  00058	85 c0		 test	 eax, eax
  0005a	48 8b 74 24 50	 mov	 rsi, QWORD PTR [rsp+80]
  0005f	0f 48 c1	 cmovs	 eax, ecx
  00062	48 83 c4 30	 add	 rsp, 48			; 00000030H
  00066	5f		 pop	 rdi
  00067	c3		 ret	 0
vsnprintf ENDP
_TEXT	ENDS
; Function compile flags: /Ogtpy
; File C:\Program Files (x86)\Windows Kits\10\Include\10.0.19041.0\ucrt\stdio.h
;	COMDAT snprintf
_TEXT	SEGMENT
_Buffer$ = 96
_BufferCount$ = 104
_Format$ = 112
snprintf PROC						; COMDAT

; 1927 :     {

$LN6:
  00000	4c 89 44 24 18	 mov	 QWORD PTR [rsp+24], r8
  00005	4c 89 4c 24 20	 mov	 QWORD PTR [rsp+32], r9
  0000a	53		 push	 rbx
  0000b	55		 push	 rbp
  0000c	56		 push	 rsi
  0000d	57		 push	 rdi
  0000e	48 83 ec 38	 sub	 rsp, 56			; 00000038H
  00012	49 8b f0	 mov	 rsi, r8

; 1928 :         int _Result;
; 1929 :         va_list _ArgList;
; 1930 :         __crt_va_start(_ArgList, _Format);

  00015	48 8d 6c 24 78	 lea	 rbp, QWORD PTR _Format$[rsp+8]
  0001a	48 8b da	 mov	 rbx, rdx
  0001d	48 8b f9	 mov	 rdi, rcx

; 1439 :         int const _Result = __stdio_common_vsprintf(

  00020	e8 00 00 00 00	 call	 __local_stdio_printf_options
  00025	48 89 6c 24 28	 mov	 QWORD PTR [rsp+40], rbp
  0002a	4c 8b ce	 mov	 r9, rsi
  0002d	4c 8b c3	 mov	 r8, rbx
  00030	48 c7 44 24 20
	00 00 00 00	 mov	 QWORD PTR [rsp+32], 0
  00039	48 8b d7	 mov	 rdx, rdi
  0003c	48 8b 08	 mov	 rcx, QWORD PTR [rax]
  0003f	48 83 c9 02	 or	 rcx, 2
  00043	ff 15 00 00 00
	00		 call	 QWORD PTR __imp___stdio_common_vsprintf

; 1440 :             _CRT_INTERNAL_LOCAL_PRINTF_OPTIONS | _CRT_INTERNAL_PRINTF_STANDARD_SNPRINTF_BEHAVIOR,
; 1441 :             _Buffer, _BufferCount, _Format, NULL, _ArgList);
; 1442 : 
; 1443 :         return _Result < 0 ? -1 : _Result;

  00049	85 c0		 test	 eax, eax
  0004b	b9 ff ff ff ff	 mov	 ecx, -1
  00050	0f 48 c1	 cmovs	 eax, ecx

; 1931 :         _Result = vsnprintf(_Buffer, _BufferCount, _Format, _ArgList);
; 1932 :         __crt_va_end(_ArgList);
; 1933 :         return _Result;
; 1934 :     }

  00053	48 83 c4 38	 add	 rsp, 56			; 00000038H
  00057	5f		 pop	 rdi
  00058	5e		 pop	 rsi
  00059	5d		 pop	 rbp
  0005a	5b		 pop	 rbx
  0005b	c3		 ret	 0
snprintf ENDP
_TEXT	ENDS
; Function compile flags: /Ogtpy
; File C:\CPython\externals\zlib-1.2.11\gzlib.c
;	COMDAT gz_reset
_TEXT	SEGMENT
state$ = 48
gz_reset PROC						; COMDAT

; 77   : {

  00000	48 89 5c 24 08	 mov	 QWORD PTR [rsp+8], rbx
  00005	57		 push	 rdi
  00006	48 83 ec 20	 sub	 rsp, 32			; 00000020H

; 78   :     state->x.have = 0;              /* no output data available */

  0000a	33 ff		 xor	 edi, edi
  0000c	48 8b d9	 mov	 rbx, rcx

; 79   :     if (state->mode == GZ_READ) {   /* for reading ... */

  0000f	81 79 18 4f 1c
	00 00		 cmp	 DWORD PTR [rcx+24], 7247 ; 00001c4fH
  00016	89 39		 mov	 DWORD PTR [rcx], edi
  00018	75 07		 jne	 SHORT $LN2@gz_reset

; 80   :         state->eof = 0;             /* not at end of file */

  0001a	48 89 79 50	 mov	 QWORD PTR [rcx+80], rdi

; 81   :         state->past = 0;            /* have not read past end yet */
; 82   :         state->how = LOOK;          /* look for gzip header */

  0001e	89 79 44	 mov	 DWORD PTR [rcx+68], edi
$LN2@gz_reset:

; 83   :     }
; 84   :     state->seek = 0;                /* no seek request pending */
; 85   :     gz_error(state, Z_OK, NULL);    /* clear error */

  00021	45 33 c0	 xor	 r8d, r8d
  00024	89 79 68	 mov	 DWORD PTR [rcx+104], edi
  00027	33 d2		 xor	 edx, edx
  00029	e8 00 00 00 00	 call	 gz_error

; 86   :     state->x.pos = 0;               /* no uncompressed data yet */

  0002e	48 89 7b 10	 mov	 QWORD PTR [rbx+16], rdi

; 87   :     state->strm.avail_in = 0;       /* no input data yet */

  00032	89 bb 80 00 00
	00		 mov	 DWORD PTR [rbx+128], edi

; 88   : }

  00038	48 8b 5c 24 30	 mov	 rbx, QWORD PTR [rsp+48]
  0003d	48 83 c4 20	 add	 rsp, 32			; 00000020H
  00041	5f		 pop	 rdi
  00042	c3		 ret	 0
gz_reset ENDP
_TEXT	ENDS
; Function compile flags: /Ogtpy
; File C:\CPython\externals\zlib-1.2.11\gzlib.c
;	COMDAT gz_open
_TEXT	SEGMENT
path$ = 80
fd$ = 88
mode$ = 96
gz_open	PROC						; COMDAT

; 95   : {

  00000	48 89 5c 24 18	 mov	 QWORD PTR [rsp+24], rbx
  00005	56		 push	 rsi
  00006	41 54		 push	 r12
  00008	41 55		 push	 r13
  0000a	41 56		 push	 r14
  0000c	41 57		 push	 r15
  0000e	48 83 ec 20	 sub	 rsp, 32			; 00000020H

; 96   :     gz_statep state;
; 97   :     z_size_t len;
; 98   :     int oflag;
; 99   : #ifdef O_CLOEXEC
; 100  :     int cloexec = 0;
; 101  : #endif
; 102  : #ifdef O_EXCL
; 103  :     int exclusive = 0;

  00012	45 33 ed	 xor	 r13d, r13d
  00015	4d 8b f0	 mov	 r14, r8
  00018	8b f2		 mov	 esi, edx
  0001a	4c 8b f9	 mov	 r15, rcx
  0001d	45 8b e5	 mov	 r12d, r13d

; 104  : #endif
; 105  : 
; 106  :     /* check input */
; 107  :     if (path == NULL)

  00020	48 85 c9	 test	 rcx, rcx
  00023	0f 84 73 02 00
	00		 je	 $LN50@gz_open

; 108  :         return NULL;
; 109  : 
; 110  :     /* allocate gzFile structure to return */
; 111  :     state = (gz_statep)malloc(sizeof(gz_state));

  00029	b9 d0 00 00 00	 mov	 ecx, 208		; 000000d0H
  0002e	ff 15 00 00 00
	00		 call	 QWORD PTR __imp_malloc
  00034	48 8b d8	 mov	 rbx, rax

; 112  :     if (state == NULL)

  00037	48 85 c0	 test	 rax, rax
  0003a	0f 84 5c 02 00
	00		 je	 $LN50@gz_open

; 113  :         return NULL;
; 114  :     state->size = 0;            /* no buffers allocated yet */

  00040	48 89 6c 24 50	 mov	 QWORD PTR [rsp+80], rbp
  00045	48 89 7c 24 58	 mov	 QWORD PTR [rsp+88], rdi

; 115  :     state->want = GZBUFSIZE;    /* requested buffer size */
; 116  :     state->msg = NULL;          /* no error message yet */
; 117  : 
; 118  :     /* interpret mode */
; 119  :     state->mode = GZ_NONE;
; 120  :     state->level = Z_DEFAULT_COMPRESSION;

  0004a	48 c7 c7 ff ff
	ff ff		 mov	 rdi, -1
  00051	89 78 58	 mov	 DWORD PTR [rax+88], edi
  00054	44 89 68 28	 mov	 DWORD PTR [rax+40], r13d
  00058	c7 40 2c 00 20
	00 00		 mov	 DWORD PTR [rax+44], 8192 ; 00002000H
  0005f	4c 89 68 70	 mov	 QWORD PTR [rax+112], r13
  00063	44 89 68 18	 mov	 DWORD PTR [rax+24], r13d

; 121  :     state->strategy = Z_DEFAULT_STRATEGY;

  00067	44 89 68 5c	 mov	 DWORD PTR [rax+92], r13d

; 122  :     state->direct = 0;

  0006b	44 89 68 40	 mov	 DWORD PTR [rax+64], r13d

; 123  :     while (*mode) {

  0006f	41 0f b6 06	 movzx	 eax, BYTE PTR [r14]
  00073	84 c0		 test	 al, al
  00075	0f 84 c9 01 00
	00		 je	 $LN49@gz_open
  0007b	48 8d 15 00 00
	00 00		 lea	 rdx, OFFSET FLAT:__ImageBase
$LL2@gz_open:

; 124  :         if (*mode >= '0' && *mode <= '9')

  00082	0f be c8	 movsx	 ecx, al
  00085	2c 30		 sub	 al, 48			; 00000030H
  00087	3c 09		 cmp	 al, 9
  00089	77 08		 ja	 SHORT $LN8@gz_open

; 125  :             state->level = *mode - '0';

  0008b	8d 41 d0	 lea	 eax, DWORD PTR [rcx-48]
  0008e	89 43 58	 mov	 DWORD PTR [rbx+88], eax
  00091	eb 6d		 jmp	 SHORT $LN21@gz_open
$LN8@gz_open:

; 126  :         else
; 127  :             switch (*mode) {

  00093	83 c1 d5	 add	 ecx, -43		; ffffffffffffffd5H
  00096	83 f9 4d	 cmp	 ecx, 77			; 0000004dH
  00099	77 65		 ja	 SHORT $LN21@gz_open
  0009b	48 63 c1	 movsxd	 rax, ecx
  0009e	0f b6 84 02 00
	00 00 00	 movzx	 eax, BYTE PTR $LN52@gz_open[rdx+rax]
  000a6	8b 8c 82 00 00
	00 00		 mov	 ecx, DWORD PTR $LN53@gz_open[rdx+rax*4]
  000ad	48 03 ca	 add	 rcx, rdx
  000b0	ff e1		 jmp	 rcx
$LN10@gz_open:

; 128  :             case 'r':
; 129  :                 state->mode = GZ_READ;

  000b2	c7 43 18 4f 1c
	00 00		 mov	 DWORD PTR [rbx+24], 7247 ; 00001c4fH

; 130  :                 break;

  000b9	eb 45		 jmp	 SHORT $LN21@gz_open
$LN11@gz_open:

; 131  : #ifndef NO_GZCOMPRESS
; 132  :             case 'w':
; 133  :                 state->mode = GZ_WRITE;

  000bb	c7 43 18 b1 79
	00 00		 mov	 DWORD PTR [rbx+24], 31153 ; 000079b1H

; 134  :                 break;

  000c2	eb 3c		 jmp	 SHORT $LN21@gz_open
$LN12@gz_open:

; 135  :             case 'a':
; 136  :                 state->mode = GZ_APPEND;

  000c4	c7 43 18 01 00
	00 00		 mov	 DWORD PTR [rbx+24], 1

; 137  :                 break;

  000cb	eb 33		 jmp	 SHORT $LN21@gz_open
$LN15@gz_open:

; 138  : #endif
; 139  :             case '+':       /* can't read and write at the same time */
; 140  :                 free(state);
; 141  :                 return NULL;
; 142  :             case 'b':       /* ignore -- will request binary anyway */
; 143  :                 break;
; 144  : #ifdef O_CLOEXEC
; 145  :             case 'e':
; 146  :                 cloexec = 1;
; 147  :                 break;
; 148  : #endif
; 149  : #ifdef O_EXCL
; 150  :             case 'x':
; 151  :                 exclusive = 1;

  000cd	41 bc 01 00 00
	00		 mov	 r12d, 1

; 152  :                 break;

  000d3	eb 2b		 jmp	 SHORT $LN21@gz_open
$LN16@gz_open:

; 153  : #endif
; 154  :             case 'f':
; 155  :                 state->strategy = Z_FILTERED;

  000d5	c7 43 5c 01 00
	00 00		 mov	 DWORD PTR [rbx+92], 1

; 156  :                 break;

  000dc	eb 22		 jmp	 SHORT $LN21@gz_open
$LN17@gz_open:

; 157  :             case 'h':
; 158  :                 state->strategy = Z_HUFFMAN_ONLY;

  000de	c7 43 5c 02 00
	00 00		 mov	 DWORD PTR [rbx+92], 2

; 159  :                 break;

  000e5	eb 19		 jmp	 SHORT $LN21@gz_open
$LN18@gz_open:

; 160  :             case 'R':
; 161  :                 state->strategy = Z_RLE;

  000e7	c7 43 5c 03 00
	00 00		 mov	 DWORD PTR [rbx+92], 3

; 162  :                 break;

  000ee	eb 10		 jmp	 SHORT $LN21@gz_open
$LN19@gz_open:

; 163  :             case 'F':
; 164  :                 state->strategy = Z_FIXED;

  000f0	c7 43 5c 04 00
	00 00		 mov	 DWORD PTR [rbx+92], 4

; 165  :                 break;

  000f7	eb 07		 jmp	 SHORT $LN21@gz_open
$LN20@gz_open:

; 166  :             case 'T':
; 167  :                 state->direct = 1;

  000f9	c7 43 40 01 00
	00 00		 mov	 DWORD PTR [rbx+64], 1
$LN21@gz_open:

; 123  :     while (*mode) {

  00100	41 0f b6 46 01	 movzx	 eax, BYTE PTR [r14+1]

; 168  :                 break;
; 169  :             default:        /* could consider as an error, but just ignore */
; 170  :                 ;
; 171  :             }
; 172  :         mode++;

  00105	49 ff c6	 inc	 r14
  00108	84 c0		 test	 al, al
  0010a	0f 85 72 ff ff
	ff		 jne	 $LL2@gz_open

; 173  :     }
; 174  : 
; 175  :     /* must provide an "r", "w", or "a" */
; 176  :     if (state->mode == GZ_NONE) {

  00110	8b 43 18	 mov	 eax, DWORD PTR [rbx+24]
  00113	85 c0		 test	 eax, eax
  00115	0f 84 29 01 00
	00		 je	 $LN49@gz_open

; 177  :         free(state);
; 178  :         return NULL;
; 179  :     }
; 180  : 
; 181  :     /* can't force transparent read */
; 182  :     if (state->mode == GZ_READ) {

  0011b	3d 4f 1c 00 00	 cmp	 eax, 7247		; 00001c4fH
  00120	75 11		 jne	 SHORT $LN23@gz_open

; 183  :         if (state->direct) {

  00122	44 39 6b 40	 cmp	 DWORD PTR [rbx+64], r13d
  00126	0f 85 18 01 00
	00		 jne	 $LN49@gz_open

; 184  :             free(state);
; 185  :             return NULL;
; 186  :         }
; 187  :         state->direct = 1;      /* for empty file */

  0012c	c7 43 40 01 00
	00 00		 mov	 DWORD PTR [rbx+64], 1
$LN23@gz_open:

; 188  :     }
; 189  : 
; 190  :     /* save the path name for error messages */
; 191  : #ifdef WIDECHAR
; 192  :     if (fd == -2) {

  00133	83 fe fe	 cmp	 esi, -2
  00136	75 1c		 jne	 SHORT $LL25@gz_open

; 193  :         len = wcstombs(NULL, path, 0);

  00138	45 33 c0	 xor	 r8d, r8d
  0013b	49 8b d7	 mov	 rdx, r15
  0013e	33 c9		 xor	 ecx, ecx
  00140	ff 15 00 00 00
	00		 call	 QWORD PTR __imp_wcstombs
  00146	48 8b f8	 mov	 rdi, rax

; 194  :         if (len == (z_size_t)-1)

  00149	48 83 f8 ff	 cmp	 rax, -1
  0014d	75 0e		 jne	 SHORT $LN26@gz_open

; 195  :             len = 0;

  0014f	49 8b fd	 mov	 rdi, r13

; 196  :     }

  00152	eb 09		 jmp	 SHORT $LN26@gz_open
$LL25@gz_open:

; 197  :     else
; 198  : #endif
; 199  :         len = strlen((const char *)path);

  00154	48 ff c7	 inc	 rdi
  00157	45 38 2c 3f	 cmp	 BYTE PTR [r15+rdi], r13b
  0015b	75 f7		 jne	 SHORT $LL25@gz_open
$LN26@gz_open:

; 200  :     state->path = (char *)malloc(len + 1);

  0015d	48 8d 4f 01	 lea	 rcx, QWORD PTR [rdi+1]
  00161	ff 15 00 00 00
	00		 call	 QWORD PTR __imp_malloc
  00167	48 89 43 20	 mov	 QWORD PTR [rbx+32], rax

; 201  :     if (state->path == NULL) {

  0016b	48 85 c0	 test	 rax, rax
  0016e	0f 84 d0 00 00
	00		 je	 $LN49@gz_open

; 202  :         free(state);
; 203  :         return NULL;
; 204  :     }
; 205  : #ifdef WIDECHAR
; 206  :     if (fd == -2)

  00174	83 fe fe	 cmp	 esi, -2
  00177	75 1c		 jne	 SHORT $LN29@gz_open

; 207  :         if (len)

  00179	48 85 ff	 test	 rdi, rdi
  0017c	74 12		 je	 SHORT $LN31@gz_open

; 208  :             wcstombs(state->path, path, len + 1);

  0017e	4c 8d 47 01	 lea	 r8, QWORD PTR [rdi+1]
  00182	49 8b d7	 mov	 rdx, r15
  00185	48 8b c8	 mov	 rcx, rax
  00188	ff 15 00 00 00
	00		 call	 QWORD PTR __imp_wcstombs
  0018e	eb 1b		 jmp	 SHORT $LN30@gz_open
$LN31@gz_open:

; 209  :         else
; 210  :             *(state->path) = 0;

  00190	44 88 28	 mov	 BYTE PTR [rax], r13b
  00193	eb 16		 jmp	 SHORT $LN30@gz_open
$LN29@gz_open:

; 211  :     else
; 212  : #endif
; 213  : #if !defined(NO_snprintf) && !defined(NO_vsnprintf)
; 214  :         (void)snprintf(state->path, len + 1, "%s", (const char *)path);

  00195	4d 8b cf	 mov	 r9, r15
  00198	4c 8d 05 00 00
	00 00		 lea	 r8, OFFSET FLAT:??_C@_02DKCKIIND@?$CFs@
  0019f	48 8d 57 01	 lea	 rdx, QWORD PTR [rdi+1]
  001a3	48 8b c8	 mov	 rcx, rax
  001a6	e8 00 00 00 00	 call	 snprintf
$LN30@gz_open:

; 215  : #else
; 216  :         strcpy(state->path, path);
; 217  : #endif
; 218  : 
; 219  :     /* compute the flags for open() */
; 220  :     oflag =

  001ab	8b 43 18	 mov	 eax, DWORD PTR [rbx+24]
  001ae	3d 4f 1c 00 00	 cmp	 eax, 7247		; 00001c4fH
  001b3	75 05		 jne	 SHORT $LN38@gz_open
  001b5	41 8b d5	 mov	 edx, r13d
  001b8	eb 24		 jmp	 SHORT $LN39@gz_open
$LN38@gz_open:
  001ba	3d b1 79 00 00	 cmp	 eax, 31153		; 000079b1H
  001bf	b9 00 02 00 00	 mov	 ecx, 512		; 00000200H
  001c4	ba 08 00 00 00	 mov	 edx, 8
  001c9	b8 01 01 00 00	 mov	 eax, 257		; 00000101H
  001ce	0f 44 d1	 cmove	 edx, ecx
  001d1	45 85 e4	 test	 r12d, r12d
  001d4	b9 01 05 00 00	 mov	 ecx, 1281		; 00000501H
  001d9	0f 45 c1	 cmovne	 eax, ecx
  001dc	0b d0		 or	 edx, eax
$LN39@gz_open:
  001de	0f ba ea 0f	 bts	 edx, 15

; 221  : #ifdef O_LARGEFILE
; 222  :         O_LARGEFILE |
; 223  : #endif
; 224  : #ifdef O_BINARY
; 225  :         O_BINARY |
; 226  : #endif
; 227  : #ifdef O_CLOEXEC
; 228  :         (cloexec ? O_CLOEXEC : 0) |
; 229  : #endif
; 230  :         (state->mode == GZ_READ ?
; 231  :          O_RDONLY :
; 232  :          (O_WRONLY | O_CREAT |
; 233  : #ifdef O_EXCL
; 234  :           (exclusive ? O_EXCL : 0) |
; 235  : #endif
; 236  :           (state->mode == GZ_WRITE ?
; 237  :            O_TRUNC :
; 238  :            O_APPEND)));
; 239  : 
; 240  :     /* open the file with the appropriate flags (or just use fd) */
; 241  :     state->fd = fd > -1 ? fd : (

  001e2	83 fe ff	 cmp	 esi, -1
  001e5	7e 2d		 jle	 SHORT $LN42@gz_open
  001e7	89 73 1c	 mov	 DWORD PTR [rbx+28], esi
$LN33@gz_open:

; 250  :     }
; 251  :     if (state->mode == GZ_APPEND) {

  001ea	8b 43 18	 mov	 eax, DWORD PTR [rbx+24]
  001ed	83 f8 01	 cmp	 eax, 1
  001f0	75 7a		 jne	 SHORT $LN34@gz_open

; 252  :         LSEEK(state->fd, 0, SEEK_END);  /* so gzoffset() is correct */

  001f2	33 d2		 xor	 edx, edx
  001f4	44 8d 40 01	 lea	 r8d, QWORD PTR [rax+1]
  001f8	8b ce		 mov	 ecx, esi
  001fa	ff 15 00 00 00
	00		 call	 QWORD PTR __imp__lseeki64

; 260  :     }
; 261  : 
; 262  :     /* initialize stream */
; 263  :     gz_reset(state);

  00200	48 8b cb	 mov	 rcx, rbx
  00203	c7 43 18 b1 79
	00 00		 mov	 DWORD PTR [rbx+24], 31153 ; 000079b1H
  0020a	e8 00 00 00 00	 call	 gz_reset

; 264  : 
; 265  :     /* return stream */
; 266  :     return (gzFile)state;

  0020f	48 8b c3	 mov	 rax, rbx
  00212	eb 3b		 jmp	 SHORT $LN56@gz_open
$LN42@gz_open:

; 221  : #ifdef O_LARGEFILE
; 222  :         O_LARGEFILE |
; 223  : #endif
; 224  : #ifdef O_BINARY
; 225  :         O_BINARY |
; 226  : #endif
; 227  : #ifdef O_CLOEXEC
; 228  :         (cloexec ? O_CLOEXEC : 0) |
; 229  : #endif
; 230  :         (state->mode == GZ_READ ?
; 231  :          O_RDONLY :
; 232  :          (O_WRONLY | O_CREAT |
; 233  : #ifdef O_EXCL
; 234  :           (exclusive ? O_EXCL : 0) |
; 235  : #endif
; 236  :           (state->mode == GZ_WRITE ?
; 237  :            O_TRUNC :
; 238  :            O_APPEND)));
; 239  : 
; 240  :     /* open the file with the appropriate flags (or just use fd) */
; 241  :     state->fd = fd > -1 ? fd : (

  00214	41 b8 b6 01 00
	00		 mov	 r8d, 438		; 000001b6H
  0021a	49 8b cf	 mov	 rcx, r15
  0021d	83 fe fe	 cmp	 esi, -2
  00220	75 08		 jne	 SHORT $LN40@gz_open
  00222	ff 15 00 00 00
	00		 call	 QWORD PTR __imp__wopen
  00228	eb 06		 jmp	 SHORT $LN57@gz_open
$LN40@gz_open:
  0022a	ff 15 00 00 00
	00		 call	 QWORD PTR __imp__open
$LN57@gz_open:
  00230	89 43 1c	 mov	 DWORD PTR [rbx+28], eax
  00233	8b f0		 mov	 esi, eax

; 242  : #ifdef WIDECHAR
; 243  :         fd == -2 ? _wopen(path, oflag, 0666) :
; 244  : #endif
; 245  :         open((const char *)path, oflag, 0666));
; 246  :     if (state->fd == -1) {

  00235	83 f8 ff	 cmp	 eax, -1
  00238	75 b0		 jne	 SHORT $LN33@gz_open

; 247  :         free(state->path);

  0023a	48 8b 4b 20	 mov	 rcx, QWORD PTR [rbx+32]
  0023e	ff 15 00 00 00
	00		 call	 QWORD PTR __imp_free
$LN49@gz_open:

; 248  :         free(state);

  00244	48 8b cb	 mov	 rcx, rbx
  00247	ff 15 00 00 00
	00		 call	 QWORD PTR __imp_free

; 249  :         return NULL;

  0024d	33 c0		 xor	 eax, eax
$LN56@gz_open:
  0024f	48 8b 6c 24 50	 mov	 rbp, QWORD PTR [rsp+80]
  00254	48 8b 7c 24 58	 mov	 rdi, QWORD PTR [rsp+88]

; 267  : }

  00259	48 8b 5c 24 60	 mov	 rbx, QWORD PTR [rsp+96]
  0025e	48 83 c4 20	 add	 rsp, 32			; 00000020H
  00262	41 5f		 pop	 r15
  00264	41 5e		 pop	 r14
  00266	41 5d		 pop	 r13
  00268	41 5c		 pop	 r12
  0026a	5e		 pop	 rsi
  0026b	c3		 ret	 0
$LN34@gz_open:

; 253  :         state->mode = GZ_WRITE;         /* simplify later checks */
; 254  :     }
; 255  : 
; 256  :     /* save the current position for rewinding (only if reading) */
; 257  :     if (state->mode == GZ_READ) {

  0026c	3d 4f 1c 00 00	 cmp	 eax, 7247		; 00001c4fH
  00271	75 1c		 jne	 SHORT $LN36@gz_open

; 258  :         state->start = LSEEK(state->fd, 0, SEEK_CUR);

  00273	33 d2		 xor	 edx, edx
  00275	8b ce		 mov	 ecx, esi
  00277	44 8d 42 01	 lea	 r8d, QWORD PTR [rdx+1]
  0027b	ff 15 00 00 00
	00		 call	 QWORD PTR __imp__lseeki64
  00281	48 89 43 48	 mov	 QWORD PTR [rbx+72], rax

; 259  :         if (state->start == -1) state->start = 0;

  00285	48 83 f8 ff	 cmp	 rax, -1
  00289	75 04		 jne	 SHORT $LN36@gz_open
  0028b	4c 89 6b 48	 mov	 QWORD PTR [rbx+72], r13
$LN36@gz_open:

; 260  :     }
; 261  : 
; 262  :     /* initialize stream */
; 263  :     gz_reset(state);

  0028f	48 8b cb	 mov	 rcx, rbx
  00292	e8 00 00 00 00	 call	 gz_reset

; 264  : 
; 265  :     /* return stream */
; 266  :     return (gzFile)state;

  00297	48 8b c3	 mov	 rax, rbx
  0029a	eb b3		 jmp	 SHORT $LN56@gz_open
$LN50@gz_open:

; 267  : }

  0029c	48 8b 5c 24 60	 mov	 rbx, QWORD PTR [rsp+96]
  002a1	33 c0		 xor	 eax, eax
  002a3	48 83 c4 20	 add	 rsp, 32			; 00000020H
  002a7	41 5f		 pop	 r15
  002a9	41 5e		 pop	 r14
  002ab	41 5d		 pop	 r13
  002ad	41 5c		 pop	 r12
  002af	5e		 pop	 rsi
  002b0	c3		 ret	 0
  002b1	0f 1f 00	 npad	 3
$LN53@gz_open:
  002b4	00 00 00 00	 DD	 $LN49@gz_open
  002b8	00 00 00 00	 DD	 $LN19@gz_open
  002bc	00 00 00 00	 DD	 $LN18@gz_open
  002c0	00 00 00 00	 DD	 $LN20@gz_open
  002c4	00 00 00 00	 DD	 $LN12@gz_open
  002c8	00 00 00 00	 DD	 $LN16@gz_open
  002cc	00 00 00 00	 DD	 $LN17@gz_open
  002d0	00 00 00 00	 DD	 $LN10@gz_open
  002d4	00 00 00 00	 DD	 $LN11@gz_open
  002d8	00 00 00 00	 DD	 $LN15@gz_open
  002dc	00 00 00 00	 DD	 $LN21@gz_open
$LN52@gz_open:
  002e0	00		 DB	 0
  002e1	0a		 DB	 10
  002e2	0a		 DB	 10
  002e3	0a		 DB	 10
  002e4	0a		 DB	 10
  002e5	0a		 DB	 10
  002e6	0a		 DB	 10
  002e7	0a		 DB	 10
  002e8	0a		 DB	 10
  002e9	0a		 DB	 10
  002ea	0a		 DB	 10
  002eb	0a		 DB	 10
  002ec	0a		 DB	 10
  002ed	0a		 DB	 10
  002ee	0a		 DB	 10
  002ef	0a		 DB	 10
  002f0	0a		 DB	 10
  002f1	0a		 DB	 10
  002f2	0a		 DB	 10
  002f3	0a		 DB	 10
  002f4	0a		 DB	 10
  002f5	0a		 DB	 10
  002f6	0a		 DB	 10
  002f7	0a		 DB	 10
  002f8	0a		 DB	 10
  002f9	0a		 DB	 10
  002fa	0a		 DB	 10
  002fb	01		 DB	 1
  002fc	0a		 DB	 10
  002fd	0a		 DB	 10
  002fe	0a		 DB	 10
  002ff	0a		 DB	 10
  00300	0a		 DB	 10
  00301	0a		 DB	 10
  00302	0a		 DB	 10
  00303	0a		 DB	 10
  00304	0a		 DB	 10
  00305	0a		 DB	 10
  00306	0a		 DB	 10
  00307	02		 DB	 2
  00308	0a		 DB	 10
  00309	03		 DB	 3
  0030a	0a		 DB	 10
  0030b	0a		 DB	 10
  0030c	0a		 DB	 10
  0030d	0a		 DB	 10
  0030e	0a		 DB	 10
  0030f	0a		 DB	 10
  00310	0a		 DB	 10
  00311	0a		 DB	 10
  00312	0a		 DB	 10
  00313	0a		 DB	 10
  00314	0a		 DB	 10
  00315	0a		 DB	 10
  00316	04		 DB	 4
  00317	0a		 DB	 10
  00318	0a		 DB	 10
  00319	0a		 DB	 10
  0031a	0a		 DB	 10
  0031b	05		 DB	 5
  0031c	0a		 DB	 10
  0031d	06		 DB	 6
  0031e	0a		 DB	 10
  0031f	0a		 DB	 10
  00320	0a		 DB	 10
  00321	0a		 DB	 10
  00322	0a		 DB	 10
  00323	0a		 DB	 10
  00324	0a		 DB	 10
  00325	0a		 DB	 10
  00326	0a		 DB	 10
  00327	07		 DB	 7
  00328	0a		 DB	 10
  00329	0a		 DB	 10
  0032a	0a		 DB	 10
  0032b	0a		 DB	 10
  0032c	08		 DB	 8
  0032d	09		 DB	 9
gz_open	ENDP
_TEXT	ENDS
; Function compile flags: /Ogtpy
; File C:\CPython\externals\zlib-1.2.11\gzlib.c
;	COMDAT gzopen
_TEXT	SEGMENT
path$ = 8
mode$ = 16
gzopen	PROC						; COMDAT

; 274  :     return gz_open(path, -1, mode);

  00000	4c 8b c2	 mov	 r8, rdx
  00003	ba ff ff ff ff	 mov	 edx, -1
  00008	e9 00 00 00 00	 jmp	 gz_open
gzopen	ENDP
_TEXT	ENDS
; Function compile flags: /Ogtpy
; File C:\CPython\externals\zlib-1.2.11\gzlib.c
;	COMDAT gzdopen
_TEXT	SEGMENT
fd$ = 48
mode$ = 56
gzdopen	PROC						; COMDAT

; 289  : {

$LN6:
  00000	48 89 5c 24 08	 mov	 QWORD PTR [rsp+8], rbx
  00005	48 89 74 24 10	 mov	 QWORD PTR [rsp+16], rsi
  0000a	57		 push	 rdi
  0000b	48 83 ec 20	 sub	 rsp, 32			; 00000020H
  0000f	48 8b f2	 mov	 rsi, rdx
  00012	8b d9		 mov	 ebx, ecx

; 290  :     char *path;         /* identifier for error messages */
; 291  :     gzFile gz;
; 292  : 
; 293  :     if (fd == -1 || (path = (char *)malloc(7 + 3 * sizeof(int))) == NULL)

  00014	83 f9 ff	 cmp	 ecx, -1
  00017	74 56		 je	 SHORT $LN3@gzdopen
  00019	b9 13 00 00 00	 mov	 ecx, 19
  0001e	ff 15 00 00 00
	00		 call	 QWORD PTR __imp_malloc
  00024	48 8b f8	 mov	 rdi, rax
  00027	48 85 c0	 test	 rax, rax
  0002a	74 43		 je	 SHORT $LN3@gzdopen

; 294  :         return NULL;
; 295  : #if !defined(NO_snprintf) && !defined(NO_vsnprintf)
; 296  :     (void)snprintf(path, 7 + 3 * sizeof(int), "<fd:%d>", fd);

  0002c	44 8b cb	 mov	 r9d, ebx
  0002f	4c 8d 05 00 00
	00 00		 lea	 r8, OFFSET FLAT:??_C@_07EBNKNFJN@?$DMfd?3?$CFd?$DO@
  00036	ba 13 00 00 00	 mov	 edx, 19
  0003b	48 8b c8	 mov	 rcx, rax
  0003e	e8 00 00 00 00	 call	 snprintf

; 297  : #else
; 298  :     sprintf(path, "<fd:%d>", fd);   /* for debugging */
; 299  : #endif
; 300  :     gz = gz_open(path, fd, mode);

  00043	4c 8b c6	 mov	 r8, rsi
  00046	8b d3		 mov	 edx, ebx
  00048	48 8b cf	 mov	 rcx, rdi
  0004b	e8 00 00 00 00	 call	 gz_open

; 301  :     free(path);

  00050	48 8b cf	 mov	 rcx, rdi
  00053	48 8b d8	 mov	 rbx, rax
  00056	ff 15 00 00 00
	00		 call	 QWORD PTR __imp_free

; 302  :     return gz;

  0005c	48 8b c3	 mov	 rax, rbx

; 303  : }

  0005f	48 8b 5c 24 30	 mov	 rbx, QWORD PTR [rsp+48]
  00064	48 8b 74 24 38	 mov	 rsi, QWORD PTR [rsp+56]
  00069	48 83 c4 20	 add	 rsp, 32			; 00000020H
  0006d	5f		 pop	 rdi
  0006e	c3		 ret	 0
$LN3@gzdopen:
  0006f	48 8b 5c 24 30	 mov	 rbx, QWORD PTR [rsp+48]
  00074	33 c0		 xor	 eax, eax
  00076	48 8b 74 24 38	 mov	 rsi, QWORD PTR [rsp+56]
  0007b	48 83 c4 20	 add	 rsp, 32			; 00000020H
  0007f	5f		 pop	 rdi
  00080	c3		 ret	 0
gzdopen	ENDP
_TEXT	ENDS
; Function compile flags: /Ogtpy
; File C:\CPython\externals\zlib-1.2.11\gzlib.c
;	COMDAT gzopen_w
_TEXT	SEGMENT
path$ = 8
mode$ = 16
gzopen_w PROC						; COMDAT

; 311  :     return gz_open(path, -2, mode);

  00000	4c 8b c2	 mov	 r8, rdx
  00003	ba fe ff ff ff	 mov	 edx, -2
  00008	e9 00 00 00 00	 jmp	 gz_open
gzopen_w ENDP
_TEXT	ENDS
; Function compile flags: /Ogtpy
; File C:\CPython\externals\zlib-1.2.11\gzlib.c
;	COMDAT gzbuffer
_TEXT	SEGMENT
file$ = 8
size$ = 16
gzbuffer PROC						; COMDAT

; 320  :     gz_statep state;
; 321  : 
; 322  :     /* get internal structure and check integrity */
; 323  :     if (file == NULL)

  00000	48 85 c9	 test	 rcx, rcx
  00003	74 2e		 je	 SHORT $LN8@gzbuffer

; 324  :         return -1;
; 325  :     state = (gz_statep)file;
; 326  :     if (state->mode != GZ_READ && state->mode != GZ_WRITE)

  00005	8b 41 18	 mov	 eax, DWORD PTR [rcx+24]
  00008	3d 4f 1c 00 00	 cmp	 eax, 7247		; 00001c4fH
  0000d	74 07		 je	 SHORT $LN3@gzbuffer
  0000f	3d b1 79 00 00	 cmp	 eax, 31153		; 000079b1H
  00014	75 1d		 jne	 SHORT $LN8@gzbuffer
$LN3@gzbuffer:

; 327  :         return -1;
; 328  : 
; 329  :     /* make sure we haven't already allocated memory */
; 330  :     if (state->size != 0)

  00016	83 79 28 00	 cmp	 DWORD PTR [rcx+40], 0
  0001a	75 17		 jne	 SHORT $LN8@gzbuffer

; 331  :         return -1;
; 332  : 
; 333  :     /* check and set requested size */
; 334  :     if ((size << 1) < size)

  0001c	8d 04 12	 lea	 eax, DWORD PTR [rdx+rdx]
  0001f	3b c2		 cmp	 eax, edx
  00021	72 10		 jb	 SHORT $LN8@gzbuffer

; 336  :     if (size < 2)
; 337  :         size = 2;               /* need two bytes to check magic header */
; 338  :     state->want = size;

  00023	b8 02 00 00 00	 mov	 eax, 2
  00028	3b d0		 cmp	 edx, eax
  0002a	0f 43 c2	 cmovae	 eax, edx
  0002d	89 41 2c	 mov	 DWORD PTR [rcx+44], eax

; 339  :     return 0;

  00030	33 c0		 xor	 eax, eax

; 340  : }

  00032	c3		 ret	 0
$LN8@gzbuffer:

; 335  :         return -1;              /* need to be able to double it */

  00033	b8 ff ff ff ff	 mov	 eax, -1

; 340  : }

  00038	c3		 ret	 0
gzbuffer ENDP
_TEXT	ENDS
; Function compile flags: /Ogtpy
; File C:\CPython\externals\zlib-1.2.11\gzlib.c
;	COMDAT gzrewind
_TEXT	SEGMENT
file$ = 48
gzrewind PROC						; COMDAT

; 345  : {

$LN8:
  00000	40 53		 push	 rbx
  00002	48 83 ec 20	 sub	 rsp, 32			; 00000020H
  00006	48 8b d9	 mov	 rbx, rcx

; 346  :     gz_statep state;
; 347  : 
; 348  :     /* get internal structure */
; 349  :     if (file == NULL)

  00009	48 85 c9	 test	 rcx, rcx
  0000c	74 3b		 je	 SHORT $LN4@gzrewind

; 350  :         return -1;
; 351  :     state = (gz_statep)file;
; 352  : 
; 353  :     /* check that we're reading and that there's no error */
; 354  :     if (state->mode != GZ_READ ||

  0000e	81 79 18 4f 1c
	00 00		 cmp	 DWORD PTR [rcx+24], 7247 ; 00001c4fH
  00015	75 32		 jne	 SHORT $LN4@gzrewind
  00017	8b 41 6c	 mov	 eax, DWORD PTR [rcx+108]
  0001a	85 c0		 test	 eax, eax
  0001c	74 05		 je	 SHORT $LN3@gzrewind
  0001e	83 f8 fb	 cmp	 eax, -5
  00021	75 26		 jne	 SHORT $LN4@gzrewind
$LN3@gzrewind:

; 357  : 
; 358  :     /* back up and start over */
; 359  :     if (LSEEK(state->fd, state->start, SEEK_SET) == -1)

  00023	48 8b 51 48	 mov	 rdx, QWORD PTR [rcx+72]
  00027	45 33 c0	 xor	 r8d, r8d
  0002a	8b 49 1c	 mov	 ecx, DWORD PTR [rcx+28]
  0002d	ff 15 00 00 00
	00		 call	 QWORD PTR __imp__lseeki64
  00033	48 83 f8 ff	 cmp	 rax, -1
  00037	74 10		 je	 SHORT $LN4@gzrewind

; 360  :         return -1;
; 361  :     gz_reset(state);

  00039	48 8b cb	 mov	 rcx, rbx
  0003c	e8 00 00 00 00	 call	 gz_reset

; 362  :     return 0;

  00041	33 c0		 xor	 eax, eax

; 363  : }

  00043	48 83 c4 20	 add	 rsp, 32			; 00000020H
  00047	5b		 pop	 rbx
  00048	c3		 ret	 0
$LN4@gzrewind:

; 355  :             (state->err != Z_OK && state->err != Z_BUF_ERROR))
; 356  :         return -1;

  00049	b8 ff ff ff ff	 mov	 eax, -1

; 363  : }

  0004e	48 83 c4 20	 add	 rsp, 32			; 00000020H
  00052	5b		 pop	 rbx
  00053	c3		 ret	 0
gzrewind ENDP
_TEXT	ENDS
; Function compile flags: /Ogtpy
; File C:\CPython\externals\zlib-1.2.11\gzlib.c
;	COMDAT gzseek64
_TEXT	SEGMENT
file$ = 48
offset$ = 56
whence$ = 64
gzseek64 PROC						; COMDAT

; 370  : {

$LN27:
  00000	48 89 5c 24 08	 mov	 QWORD PTR [rsp+8], rbx
  00005	48 89 74 24 10	 mov	 QWORD PTR [rsp+16], rsi
  0000a	57		 push	 rdi
  0000b	48 83 ec 20	 sub	 rsp, 32			; 00000020H
  0000f	48 8b fa	 mov	 rdi, rdx
  00012	48 8b d9	 mov	 rbx, rcx

; 371  :     unsigned n;
; 372  :     z_off64_t ret;
; 373  :     gz_statep state;
; 374  : 
; 375  :     /* get internal structure and check integrity */
; 376  :     if (file == NULL)

  00015	48 85 c9	 test	 rcx, rcx
  00018	0f 84 23 01 00
	00		 je	 $LN25@gzseek64

; 377  :         return -1;
; 378  :     state = (gz_statep)file;
; 379  :     if (state->mode != GZ_READ && state->mode != GZ_WRITE)

  0001e	8b 51 18	 mov	 edx, DWORD PTR [rcx+24]
  00021	81 fa 4f 1c 00
	00		 cmp	 edx, 7247		; 00001c4fH
  00027	74 0c		 je	 SHORT $LN23@gzseek64
  00029	81 fa b1 79 00
	00		 cmp	 edx, 31153		; 000079b1H
  0002f	0f 85 0c 01 00
	00		 jne	 $LN25@gzseek64
$LN23@gzseek64:

; 380  :         return -1;
; 381  : 
; 382  :     /* check that there's no error */
; 383  :     if (state->err != Z_OK && state->err != Z_BUF_ERROR)

  00035	8b 41 6c	 mov	 eax, DWORD PTR [rcx+108]
  00038	85 c0		 test	 eax, eax
  0003a	74 09		 je	 SHORT $LN4@gzseek64
  0003c	83 f8 fb	 cmp	 eax, -5
  0003f	0f 85 fc 00 00
	00		 jne	 $LN25@gzseek64
$LN4@gzseek64:

; 384  :         return -1;
; 385  : 
; 386  :     /* can only seek from start or relative to current position */
; 387  :     if (whence != SEEK_SET && whence != SEEK_CUR)

  00045	45 85 c0	 test	 r8d, r8d
  00048	74 16		 je	 SHORT $LN22@gzseek64
  0004a	41 83 f8 01	 cmp	 r8d, 1
  0004e	0f 85 ed 00 00
	00		 jne	 $LN25@gzseek64

; 393  :     else if (state->seek)

  00054	83 79 68 00	 cmp	 DWORD PTR [rcx+104], 0
  00058	74 0a		 je	 SHORT $LN8@gzseek64

; 394  :         offset += state->skip;

  0005a	48 03 79 60	 add	 rdi, QWORD PTR [rcx+96]
  0005e	eb 04		 jmp	 SHORT $LN8@gzseek64
$LN22@gzseek64:

; 388  :         return -1;
; 389  : 
; 390  :     /* normalize offset to a SEEK_CUR specification */
; 391  :     if (whence == SEEK_SET)
; 392  :         offset -= state->x.pos;

  00060	48 2b 79 10	 sub	 rdi, QWORD PTR [rcx+16]
$LN8@gzseek64:

; 395  :     state->seek = 0;

  00064	33 f6		 xor	 esi, esi
  00066	89 71 68	 mov	 DWORD PTR [rcx+104], esi

; 396  : 
; 397  :     /* if within raw area while reading, just go there */
; 398  :     if (state->mode == GZ_READ && state->how == COPY &&

  00069	81 fa 4f 1c 00
	00		 cmp	 edx, 7247		; 00001c4fH
  0006f	75 65		 jne	 SHORT $LN9@gzseek64
  00071	83 79 44 01	 cmp	 DWORD PTR [rcx+68], 1
  00075	75 5f		 jne	 SHORT $LN9@gzseek64
  00077	48 8b 49 10	 mov	 rcx, QWORD PTR [rcx+16]
  0007b	48 03 cf	 add	 rcx, rdi
  0007e	78 56		 js	 SHORT $LN9@gzseek64

; 399  :             state->x.pos + offset >= 0) {
; 400  :         ret = LSEEK(state->fd, offset - state->x.have, SEEK_CUR);

  00080	8b 03		 mov	 eax, DWORD PTR [rbx]
  00082	44 8d 46 01	 lea	 r8d, QWORD PTR [rsi+1]
  00086	8b 4b 1c	 mov	 ecx, DWORD PTR [rbx+28]
  00089	48 8b d7	 mov	 rdx, rdi
  0008c	48 2b d0	 sub	 rdx, rax
  0008f	ff 15 00 00 00
	00		 call	 QWORD PTR __imp__lseeki64

; 401  :         if (ret == -1)

  00095	48 83 f8 ff	 cmp	 rax, -1
  00099	0f 84 a2 00 00
	00		 je	 $LN25@gzseek64

; 402  :             return -1;
; 403  :         state->x.have = 0;
; 404  :         state->eof = 0;
; 405  :         state->past = 0;
; 406  :         state->seek = 0;
; 407  :         gz_error(state, Z_OK, NULL);

  0009f	45 33 c0	 xor	 r8d, r8d
  000a2	89 33		 mov	 DWORD PTR [rbx], esi
  000a4	33 d2		 xor	 edx, edx
  000a6	48 89 73 50	 mov	 QWORD PTR [rbx+80], rsi
  000aa	48 8b cb	 mov	 rcx, rbx
  000ad	89 73 68	 mov	 DWORD PTR [rbx+104], esi
  000b0	e8 00 00 00 00	 call	 gz_error

; 408  :         state->strm.avail_in = 0;
; 409  :         state->x.pos += offset;

  000b5	48 8b 43 10	 mov	 rax, QWORD PTR [rbx+16]
  000b9	48 03 c7	 add	 rax, rdi
  000bc	89 b3 80 00 00
	00		 mov	 DWORD PTR [rbx+128], esi
  000c2	48 89 43 10	 mov	 QWORD PTR [rbx+16], rax

; 440  : }

  000c6	48 8b 5c 24 30	 mov	 rbx, QWORD PTR [rsp+48]
  000cb	48 8b 74 24 38	 mov	 rsi, QWORD PTR [rsp+56]
  000d0	48 83 c4 20	 add	 rsp, 32			; 00000020H
  000d4	5f		 pop	 rdi
  000d5	c3		 ret	 0
$LN9@gzseek64:

; 410  :         return state->x.pos;
; 411  :     }
; 412  : 
; 413  :     /* calculate skip amount, rewinding if needed for back seek when reading */
; 414  :     if (offset < 0) {

  000d6	48 85 ff	 test	 rdi, rdi
  000d9	79 1b		 jns	 SHORT $LN20@gzseek64

; 415  :         if (state->mode != GZ_READ)         /* writing -- can't go backwards */

  000db	81 fa 4f 1c 00
	00		 cmp	 edx, 7247		; 00001c4fH
  000e1	75 5e		 jne	 SHORT $LN25@gzseek64

; 416  :             return -1;
; 417  :         offset += state->x.pos;

  000e3	48 03 7b 10	 add	 rdi, QWORD PTR [rbx+16]

; 418  :         if (offset < 0)                     /* before start of file! */

  000e7	78 58		 js	 SHORT $LN25@gzseek64

; 419  :             return -1;
; 420  :         if (gzrewind(file) == -1)           /* rewind, then skip to offset */

  000e9	48 8b cb	 mov	 rcx, rbx
  000ec	e8 00 00 00 00	 call	 gzrewind
  000f1	83 f8 ff	 cmp	 eax, -1
  000f4	74 4b		 je	 SHORT $LN25@gzseek64
$LN20@gzseek64:

; 421  :             return -1;
; 422  :     }
; 423  : 
; 424  :     /* if reading, skip what's in output buffer (one less gzgetc() check) */
; 425  :     if (state->mode == GZ_READ) {

  000f6	81 7b 18 4f 1c
	00 00		 cmp	 DWORD PTR [rbx+24], 7247 ; 00001c4fH
  000fd	75 1b		 jne	 SHORT $LN24@gzseek64

; 426  :         n = GT_OFF(state->x.have) || (z_off64_t)state->x.have > offset ?

  000ff	8b 0b		 mov	 ecx, DWORD PTR [rbx]

; 427  :             (unsigned)offset : state->x.have;
; 428  :         state->x.have -= n;

  00101	48 3b cf	 cmp	 rcx, rdi
  00104	8b c1		 mov	 eax, ecx
  00106	0f 47 c7	 cmova	 eax, edi
  00109	8b d0		 mov	 edx, eax
  0010b	2b c8		 sub	 ecx, eax

; 429  :         state->x.next += n;

  0010d	48 01 53 08	 add	 QWORD PTR [rbx+8], rdx

; 430  :         state->x.pos += n;

  00111	48 01 53 10	 add	 QWORD PTR [rbx+16], rdx

; 431  :         offset -= n;

  00115	48 2b fa	 sub	 rdi, rdx
  00118	89 0b		 mov	 DWORD PTR [rbx], ecx
$LN24@gzseek64:

; 432  :     }
; 433  : 
; 434  :     /* request skip (if not zero) */
; 435  :     if (offset) {

  0011a	48 85 ff	 test	 rdi, rdi
  0011d	74 0b		 je	 SHORT $LN16@gzseek64

; 436  :         state->seek = 1;

  0011f	c7 43 68 01 00
	00 00		 mov	 DWORD PTR [rbx+104], 1

; 437  :         state->skip = offset;

  00126	48 89 7b 60	 mov	 QWORD PTR [rbx+96], rdi
$LN16@gzseek64:

; 438  :     }
; 439  :     return state->x.pos + offset;

  0012a	48 8b 43 10	 mov	 rax, QWORD PTR [rbx+16]
  0012e	48 03 c7	 add	 rax, rdi

; 440  : }

  00131	48 8b 5c 24 30	 mov	 rbx, QWORD PTR [rsp+48]
  00136	48 8b 74 24 38	 mov	 rsi, QWORD PTR [rsp+56]
  0013b	48 83 c4 20	 add	 rsp, 32			; 00000020H
  0013f	5f		 pop	 rdi
  00140	c3		 ret	 0
$LN25@gzseek64:
  00141	48 8b 5c 24 30	 mov	 rbx, QWORD PTR [rsp+48]
  00146	48 c7 c0 ff ff
	ff ff		 mov	 rax, -1
  0014d	48 8b 74 24 38	 mov	 rsi, QWORD PTR [rsp+56]
  00152	48 83 c4 20	 add	 rsp, 32			; 00000020H
  00156	5f		 pop	 rdi
  00157	c3		 ret	 0
gzseek64 ENDP
_TEXT	ENDS
; Function compile flags: /Ogtpy
; File C:\CPython\externals\zlib-1.2.11\gzlib.c
;	COMDAT gzseek
_TEXT	SEGMENT
file$ = 48
offset$ = 56
whence$ = 64
gzseek	PROC						; COMDAT

; 447  : {

$LN4:
  00000	48 83 ec 28	 sub	 rsp, 40			; 00000028H

; 448  :     z_off64_t ret;
; 449  : 
; 450  :     ret = gzseek64(file, (z_off64_t)offset, whence);

  00004	48 63 d2	 movsxd	 rdx, edx
  00007	e8 00 00 00 00	 call	 gzseek64
  0000c	48 8b d0	 mov	 rdx, rax

; 451  :     return ret == (z_off_t)ret ? (z_off_t)ret : -1;

  0000f	48 63 c8	 movsxd	 rcx, eax
  00012	48 3b d1	 cmp	 rdx, rcx
  00015	b8 ff ff ff ff	 mov	 eax, -1
  0001a	0f 44 c2	 cmove	 eax, edx

; 452  : }

  0001d	48 83 c4 28	 add	 rsp, 40			; 00000028H
  00021	c3		 ret	 0
gzseek	ENDP
_TEXT	ENDS
; Function compile flags: /Ogtpy
; File C:\CPython\externals\zlib-1.2.11\gzlib.c
;	COMDAT gztell64
_TEXT	SEGMENT
file$ = 8
gztell64 PROC						; COMDAT

; 458  :     gz_statep state;
; 459  : 
; 460  :     /* get internal structure and check integrity */
; 461  :     if (file == NULL)

  00000	48 85 c9	 test	 rcx, rcx
  00003	74 2d		 je	 SHORT $LN7@gztell64

; 462  :         return -1;
; 463  :     state = (gz_statep)file;
; 464  :     if (state->mode != GZ_READ && state->mode != GZ_WRITE)

  00005	8b 41 18	 mov	 eax, DWORD PTR [rcx+24]
  00008	3d 4f 1c 00 00	 cmp	 eax, 7247		; 00001c4fH
  0000d	74 07		 je	 SHORT $LN3@gztell64
  0000f	3d b1 79 00 00	 cmp	 eax, 31153		; 000079b1H
  00014	75 1c		 jne	 SHORT $LN7@gztell64
$LN3@gztell64:

; 466  : 
; 467  :     /* return position */
; 468  :     return state->x.pos + (state->seek ? state->skip : 0);

  00016	83 79 68 00	 cmp	 DWORD PTR [rcx+104], 0
  0001a	74 0c		 je	 SHORT $LN5@gztell64
  0001c	48 8b 51 60	 mov	 rdx, QWORD PTR [rcx+96]
  00020	48 8b 41 10	 mov	 rax, QWORD PTR [rcx+16]
  00024	48 03 c2	 add	 rax, rdx

; 469  : }

  00027	c3		 ret	 0
$LN5@gztell64:

; 466  : 
; 467  :     /* return position */
; 468  :     return state->x.pos + (state->seek ? state->skip : 0);

  00028	48 8b 41 10	 mov	 rax, QWORD PTR [rcx+16]
  0002c	33 d2		 xor	 edx, edx
  0002e	48 03 c2	 add	 rax, rdx

; 469  : }

  00031	c3		 ret	 0
$LN7@gztell64:

; 465  :         return -1;

  00032	48 c7 c0 ff ff
	ff ff		 mov	 rax, -1

; 469  : }

  00039	c3		 ret	 0
gztell64 ENDP
_TEXT	ENDS
; Function compile flags: /Ogtpy
; File C:\CPython\externals\zlib-1.2.11\gzlib.c
;	COMDAT gztell
_TEXT	SEGMENT
file$ = 48
gztell	PROC						; COMDAT

; 474  : {

$LN4:
  00000	48 83 ec 28	 sub	 rsp, 40			; 00000028H

; 475  :     z_off64_t ret;
; 476  : 
; 477  :     ret = gztell64(file);

  00004	e8 00 00 00 00	 call	 gztell64
  00009	4c 8b c0	 mov	 r8, rax

; 478  :     return ret == (z_off_t)ret ? (z_off_t)ret : -1;

  0000c	48 63 c8	 movsxd	 rcx, eax
  0000f	4c 3b c1	 cmp	 r8, rcx
  00012	b8 ff ff ff ff	 mov	 eax, -1
  00017	41 0f 44 c0	 cmove	 eax, r8d

; 479  : }

  0001b	48 83 c4 28	 add	 rsp, 40			; 00000028H
  0001f	c3		 ret	 0
gztell	ENDP
_TEXT	ENDS
; Function compile flags: /Ogtpy
; File C:\CPython\externals\zlib-1.2.11\gzlib.c
;	COMDAT gzoffset64
_TEXT	SEGMENT
file$ = 48
gzoffset64 PROC						; COMDAT

; 484  : {

$LN9:
  00000	40 53		 push	 rbx
  00002	48 83 ec 20	 sub	 rsp, 32			; 00000020H
  00006	48 8b d9	 mov	 rbx, rcx

; 485  :     z_off64_t offset;
; 486  :     gz_statep state;
; 487  : 
; 488  :     /* get internal structure and check integrity */
; 489  :     if (file == NULL)

  00009	48 85 c9	 test	 rcx, rcx
  0000c	74 3e		 je	 SHORT $LN7@gzoffset64

; 490  :         return -1;
; 491  :     state = (gz_statep)file;
; 492  :     if (state->mode != GZ_READ && state->mode != GZ_WRITE)

  0000e	8b 41 18	 mov	 eax, DWORD PTR [rcx+24]
  00011	3d 4f 1c 00 00	 cmp	 eax, 7247		; 00001c4fH
  00016	74 07		 je	 SHORT $LN3@gzoffset64
  00018	3d b1 79 00 00	 cmp	 eax, 31153		; 000079b1H
  0001d	75 2d		 jne	 SHORT $LN7@gzoffset64
$LN3@gzoffset64:

; 493  :         return -1;
; 494  : 
; 495  :     /* compute and return effective offset in file */
; 496  :     offset = LSEEK(state->fd, 0, SEEK_CUR);

  0001f	8b 49 1c	 mov	 ecx, DWORD PTR [rcx+28]
  00022	33 d2		 xor	 edx, edx
  00024	44 8d 42 01	 lea	 r8d, QWORD PTR [rdx+1]
  00028	ff 15 00 00 00
	00		 call	 QWORD PTR __imp__lseeki64

; 497  :     if (offset == -1)

  0002e	48 83 f8 ff	 cmp	 rax, -1
  00032	74 18		 je	 SHORT $LN7@gzoffset64

; 499  :     if (state->mode == GZ_READ)             /* reading */

  00034	81 7b 18 4f 1c
	00 00		 cmp	 DWORD PTR [rbx+24], 7247 ; 00001c4fH
  0003b	75 16		 jne	 SHORT $LN1@gzoffset64

; 500  :         offset -= state->strm.avail_in;     /* don't count buffered input */

  0003d	8b 8b 80 00 00
	00		 mov	 ecx, DWORD PTR [rbx+128]
  00043	48 2b c1	 sub	 rax, rcx

; 501  :     return offset;
; 502  : }

  00046	48 83 c4 20	 add	 rsp, 32			; 00000020H
  0004a	5b		 pop	 rbx
  0004b	c3		 ret	 0
$LN7@gzoffset64:

; 498  :         return -1;

  0004c	48 c7 c0 ff ff
	ff ff		 mov	 rax, -1
$LN1@gzoffset64:

; 501  :     return offset;
; 502  : }

  00053	48 83 c4 20	 add	 rsp, 32			; 00000020H
  00057	5b		 pop	 rbx
  00058	c3		 ret	 0
gzoffset64 ENDP
_TEXT	ENDS
; Function compile flags: /Ogtpy
; File C:\CPython\externals\zlib-1.2.11\gzlib.c
;	COMDAT gzoffset
_TEXT	SEGMENT
file$ = 48
gzoffset PROC						; COMDAT

; 507  : {

$LN4:
  00000	48 83 ec 28	 sub	 rsp, 40			; 00000028H

; 508  :     z_off64_t ret;
; 509  : 
; 510  :     ret = gzoffset64(file);

  00004	e8 00 00 00 00	 call	 gzoffset64
  00009	48 8b d0	 mov	 rdx, rax

; 511  :     return ret == (z_off_t)ret ? (z_off_t)ret : -1;

  0000c	48 63 c8	 movsxd	 rcx, eax
  0000f	48 3b d1	 cmp	 rdx, rcx
  00012	b8 ff ff ff ff	 mov	 eax, -1
  00017	0f 44 c2	 cmove	 eax, edx

; 512  : }

  0001a	48 83 c4 28	 add	 rsp, 40			; 00000028H
  0001e	c3		 ret	 0
gzoffset ENDP
_TEXT	ENDS
; Function compile flags: /Ogtpy
; File C:\CPython\externals\zlib-1.2.11\gzlib.c
;	COMDAT gzeof
_TEXT	SEGMENT
file$ = 8
gzeof	PROC						; COMDAT

; 518  :     gz_statep state;
; 519  : 
; 520  :     /* get internal structure and check integrity */
; 521  :     if (file == NULL)

  00000	48 85 c9	 test	 rcx, rcx
  00003	74 0e		 je	 SHORT $LN8@gzeof

; 522  :         return 0;
; 523  :     state = (gz_statep)file;
; 524  :     if (state->mode != GZ_READ && state->mode != GZ_WRITE)

  00005	8b 41 18	 mov	 eax, DWORD PTR [rcx+24]
  00008	3d 4f 1c 00 00	 cmp	 eax, 7247		; 00001c4fH
  0000d	75 04		 jne	 SHORT $LN8@gzeof

; 525  :         return 0;
; 526  : 
; 527  :     /* return end-of-file state */
; 528  :     return state->mode == GZ_READ ? state->past : 0;

  0000f	8b 41 54	 mov	 eax, DWORD PTR [rcx+84]

; 529  : }

  00012	c3		 ret	 0
$LN8@gzeof:
  00013	33 c0		 xor	 eax, eax
  00015	c3		 ret	 0
gzeof	ENDP
_TEXT	ENDS
; Function compile flags: /Ogtpy
; File C:\CPython\externals\zlib-1.2.11\gzlib.c
;	COMDAT gzerror
_TEXT	SEGMENT
file$ = 8
errnum$ = 16
gzerror	PROC						; COMDAT

; 536  :     gz_statep state;
; 537  : 
; 538  :     /* get internal structure and check integrity */
; 539  :     if (file == NULL)

  00000	48 85 c9	 test	 rcx, rcx
  00003	74 3c		 je	 SHORT $LN10@gzerror

; 540  :         return NULL;
; 541  :     state = (gz_statep)file;
; 542  :     if (state->mode != GZ_READ && state->mode != GZ_WRITE)

  00005	8b 41 18	 mov	 eax, DWORD PTR [rcx+24]
  00008	3d 4f 1c 00 00	 cmp	 eax, 7247		; 00001c4fH
  0000d	74 07		 je	 SHORT $LN3@gzerror
  0000f	3d b1 79 00 00	 cmp	 eax, 31153		; 000079b1H
  00014	75 2b		 jne	 SHORT $LN10@gzerror
$LN3@gzerror:

; 544  : 
; 545  :     /* return error information */
; 546  :     if (errnum != NULL)

  00016	48 85 d2	 test	 rdx, rdx
  00019	74 05		 je	 SHORT $LN4@gzerror

; 547  :         *errnum = state->err;

  0001b	8b 41 6c	 mov	 eax, DWORD PTR [rcx+108]
  0001e	89 02		 mov	 DWORD PTR [rdx], eax
$LN4@gzerror:

; 548  :     return state->err == Z_MEM_ERROR ? "out of memory" :

  00020	83 79 6c fc	 cmp	 DWORD PTR [rcx+108], -4
  00024	75 08		 jne	 SHORT $LN8@gzerror
  00026	48 8d 05 00 00
	00 00		 lea	 rax, OFFSET FLAT:??_C@_0O@BNNCBLEN@out?5of?5memory@

; 549  :                                        (state->msg == NULL ? "" : state->msg);
; 550  : }

  0002d	c3		 ret	 0
$LN8@gzerror:

; 548  :     return state->err == Z_MEM_ERROR ? "out of memory" :

  0002e	48 8b 49 70	 mov	 rcx, QWORD PTR [rcx+112]
  00032	48 8d 05 00 00
	00 00		 lea	 rax, OFFSET FLAT:??_C@_00CNPNBAHC@@
  00039	48 85 c9	 test	 rcx, rcx
  0003c	48 0f 45 c1	 cmovne	 rax, rcx

; 549  :                                        (state->msg == NULL ? "" : state->msg);
; 550  : }

  00040	c3		 ret	 0
$LN10@gzerror:

; 543  :         return NULL;

  00041	33 c0		 xor	 eax, eax

; 549  :                                        (state->msg == NULL ? "" : state->msg);
; 550  : }

  00043	c3		 ret	 0
gzerror	ENDP
_TEXT	ENDS
; Function compile flags: /Ogtpy
; File C:\CPython\externals\zlib-1.2.11\gzlib.c
;	COMDAT gzclearerr
_TEXT	SEGMENT
file$ = 8
gzclearerr PROC						; COMDAT

; 556  :     gz_statep state;
; 557  : 
; 558  :     /* get internal structure and check integrity */
; 559  :     if (file == NULL)

  00000	48 85 c9	 test	 rcx, rcx
  00003	74 2b		 je	 SHORT $LN1@gzclearerr

; 560  :         return;
; 561  :     state = (gz_statep)file;
; 562  :     if (state->mode != GZ_READ && state->mode != GZ_WRITE)

  00005	8b 41 18	 mov	 eax, DWORD PTR [rcx+24]
  00008	3d 4f 1c 00 00	 cmp	 eax, 7247		; 00001c4fH
  0000d	74 11		 je	 SHORT $LN6@gzclearerr
  0000f	3d b1 79 00 00	 cmp	 eax, 31153		; 000079b1H
  00014	75 1a		 jne	 SHORT $LN1@gzclearerr

; 568  :         state->past = 0;
; 569  :     }
; 570  :     gz_error(state, Z_OK, NULL);

  00016	45 33 c0	 xor	 r8d, r8d
  00019	33 d2		 xor	 edx, edx
  0001b	e9 00 00 00 00	 jmp	 gz_error
$LN6@gzclearerr:

; 563  :         return;
; 564  : 
; 565  :     /* clear error and end-of-file */
; 566  :     if (state->mode == GZ_READ) {
; 567  :         state->eof = 0;

  00020	33 c0		 xor	 eax, eax

; 568  :         state->past = 0;
; 569  :     }
; 570  :     gz_error(state, Z_OK, NULL);

  00022	45 33 c0	 xor	 r8d, r8d
  00025	33 d2		 xor	 edx, edx
  00027	48 89 41 50	 mov	 QWORD PTR [rcx+80], rax
  0002b	e9 00 00 00 00	 jmp	 gz_error
$LN1@gzclearerr:

; 571  : }

  00030	c3		 ret	 0
gzclearerr ENDP
_TEXT	ENDS
; Function compile flags: /Ogtpy
; File C:\CPython\externals\zlib-1.2.11\gzlib.c
;	COMDAT gz_error
_TEXT	SEGMENT
state$ = 64
err$ = 72
msg$ = 80
gz_error PROC						; COMDAT

; 583  : {

$LN15:
  00000	48 89 5c 24 08	 mov	 QWORD PTR [rsp+8], rbx
  00005	48 89 74 24 10	 mov	 QWORD PTR [rsp+16], rsi
  0000a	57		 push	 rdi
  0000b	48 83 ec 30	 sub	 rsp, 48			; 00000030H
  0000f	48 8b f9	 mov	 rdi, rcx
  00012	49 8b f0	 mov	 rsi, r8

; 584  :     /* free previously allocated message and clear */
; 585  :     if (state->msg != NULL) {

  00015	48 8b 49 70	 mov	 rcx, QWORD PTR [rcx+112]
  00019	8b da		 mov	 ebx, edx
  0001b	48 85 c9	 test	 rcx, rcx
  0001e	74 14		 je	 SHORT $LN2@gz_error

; 586  :         if (state->err != Z_MEM_ERROR)

  00020	83 7f 6c fc	 cmp	 DWORD PTR [rdi+108], -4
  00024	74 06		 je	 SHORT $LN3@gz_error

; 587  :             free(state->msg);

  00026	ff 15 00 00 00
	00		 call	 QWORD PTR __imp_free
$LN3@gz_error:

; 588  :         state->msg = NULL;

  0002c	48 c7 47 70 00
	00 00 00	 mov	 QWORD PTR [rdi+112], 0
$LN2@gz_error:

; 589  :     }
; 590  : 
; 591  :     /* if fatal, set state->x.have to 0 so that the gzgetc() macro fails */
; 592  :     if (err != Z_OK && err != Z_BUF_ERROR)

  00034	85 db		 test	 ebx, ebx
  00036	74 0b		 je	 SHORT $LN4@gz_error
  00038	83 fb fb	 cmp	 ebx, -5
  0003b	74 06		 je	 SHORT $LN4@gz_error

; 593  :         state->x.have = 0;

  0003d	c7 07 00 00 00
	00		 mov	 DWORD PTR [rdi], 0
$LN4@gz_error:

; 594  : 
; 595  :     /* set error code, and if no message, then done */
; 596  :     state->err = err;

  00043	89 5f 6c	 mov	 DWORD PTR [rdi+108], ebx

; 597  :     if (msg == NULL)

  00046	48 85 f6	 test	 rsi, rsi
  00049	0f 84 9e 00 00
	00		 je	 $LN1@gz_error

; 598  :         return;
; 599  : 
; 600  :     /* for an out of memory error, return literal string when requested */
; 601  :     if (err == Z_MEM_ERROR)

  0004f	83 fb fc	 cmp	 ebx, -4
  00052	0f 84 95 00 00
	00		 je	 $LN1@gz_error

; 602  :         return;
; 603  : 
; 604  :     /* construct error message with path */
; 605  :     if ((state->msg = (char *)malloc(strlen(state->path) + strlen(msg) + 3)) ==

  00058	48 8b 4f 20	 mov	 rcx, QWORD PTR [rdi+32]
  0005c	48 c7 c3 ff ff
	ff ff		 mov	 rbx, -1
  00063	48 8b c3	 mov	 rax, rbx
$LL12@gz_error:
  00066	48 ff c0	 inc	 rax
  00069	80 3c 01 00	 cmp	 BYTE PTR [rcx+rax], 0
  0006d	75 f7		 jne	 SHORT $LL12@gz_error
  0006f	48 8b cb	 mov	 rcx, rbx
$LL11@gz_error:
  00072	48 ff c1	 inc	 rcx
  00075	80 3c 0e 00	 cmp	 BYTE PTR [rsi+rcx], 0
  00079	75 f7		 jne	 SHORT $LL11@gz_error
  0007b	48 83 c0 03	 add	 rax, 3
  0007f	48 03 c8	 add	 rcx, rax
  00082	ff 15 00 00 00
	00		 call	 QWORD PTR __imp_malloc
  00088	48 89 47 70	 mov	 QWORD PTR [rdi+112], rax
  0008c	48 8b c8	 mov	 rcx, rax
  0008f	48 85 c0	 test	 rax, rax
  00092	75 17		 jne	 SHORT $LN7@gz_error

; 606  :             NULL) {
; 607  :         state->err = Z_MEM_ERROR;

  00094	c7 47 6c fc ff
	ff ff		 mov	 DWORD PTR [rdi+108], -4

; 612  :                    "%s%s%s", state->path, ": ", msg);
; 613  : #else
; 614  :     strcpy(state->msg, state->path);
; 615  :     strcat(state->msg, ": ");
; 616  :     strcat(state->msg, msg);
; 617  : #endif
; 618  : }

  0009b	48 8b 5c 24 40	 mov	 rbx, QWORD PTR [rsp+64]
  000a0	48 8b 74 24 48	 mov	 rsi, QWORD PTR [rsp+72]
  000a5	48 83 c4 30	 add	 rsp, 48			; 00000030H
  000a9	5f		 pop	 rdi
  000aa	c3		 ret	 0
$LN7@gz_error:

; 608  :         return;
; 609  :     }
; 610  : #if !defined(NO_snprintf) && !defined(NO_vsnprintf)
; 611  :     (void)snprintf(state->msg, strlen(state->path) + strlen(msg) + 3,

  000ab	4c 8b 4f 20	 mov	 r9, QWORD PTR [rdi+32]
  000af	48 8b c3	 mov	 rax, rbx
$LL10@gz_error:
  000b2	41 80 7c 01 01
	00		 cmp	 BYTE PTR [r9+rax+1], 0
  000b8	48 8d 40 01	 lea	 rax, QWORD PTR [rax+1]
  000bc	75 f4		 jne	 SHORT $LL10@gz_error
  000be	66 90		 npad	 2
$LL9@gz_error:
  000c0	48 ff c3	 inc	 rbx
  000c3	80 3c 1e 00	 cmp	 BYTE PTR [rsi+rbx], 0
  000c7	75 f7		 jne	 SHORT $LL9@gz_error
  000c9	48 8d 50 03	 lea	 rdx, QWORD PTR [rax+3]
  000cd	48 89 74 24 28	 mov	 QWORD PTR [rsp+40], rsi
  000d2	48 8d 05 00 00
	00 00		 lea	 rax, OFFSET FLAT:??_C@_02LMMGGCAJ@?3?5@
  000d9	48 03 d3	 add	 rdx, rbx
  000dc	4c 8d 05 00 00
	00 00		 lea	 r8, OFFSET FLAT:??_C@_06DIJPEION@?$CFs?$CFs?$CFs@
  000e3	48 89 44 24 20	 mov	 QWORD PTR [rsp+32], rax
  000e8	e8 00 00 00 00	 call	 snprintf
$LN1@gz_error:

; 612  :                    "%s%s%s", state->path, ": ", msg);
; 613  : #else
; 614  :     strcpy(state->msg, state->path);
; 615  :     strcat(state->msg, ": ");
; 616  :     strcat(state->msg, msg);
; 617  : #endif
; 618  : }

  000ed	48 8b 5c 24 40	 mov	 rbx, QWORD PTR [rsp+64]
  000f2	48 8b 74 24 48	 mov	 rsi, QWORD PTR [rsp+72]
  000f7	48 83 c4 30	 add	 rsp, 48			; 00000030H
  000fb	5f		 pop	 rdi
  000fc	c3		 ret	 0
gz_error ENDP
_TEXT	ENDS
END
